--------------------------------------------------
Z80 DISASSEMBLER LISTING
Line   Addr Opcodes     Label   Instruction
--------------------------------------------------

0001   0000 18 67       L0030:  JR L0001
0002   0002 D3 58       L0014:  OUT (58H),A
0003   0004 00          L0521:  NOP
0004   0005 00                  NOP
0005   0006 00                  NOP
0006   0007 00                  NOP
0007   0008 08                  EX AF,AF'
0008   0009 D9                  EXX
0009   000A ED 40               IN B,(C)
0010   000C 7D                  LD A,L
0011   000D D3 98               OUT (98H),A
0012   000F 7C                  LD A,H
0013   0010 D3 9C               OUT (9CH),A
0014   0012 23                  INC HL
0015   0013 1B                  DEC DE
0016   0014 7A                  LD A,D
0017   0015 B3                  OR E
0018   0016 D9                  EXX
0019   0017 28 02               JR Z,L0002
0020   0019 08                  EX AF,AF'
0021   001A C9                  RET
0022   001B E1          L0002:  POP HL
0023   001C C9                  RET
0024   001D 00                  NOP
0025   001E 00                  NOP
0026   001F 00                  NOP
0027   0020 00                  NOP
0028   0021 00                  NOP
0029   0022 00                  NOP
0030   0023 00                  NOP
0031   0024 00                  NOP
0032   0025 00                  NOP
0033   0026 00                  NOP
0034   0027 00                  NOP
0035   0028 00                  NOP
0036   0029 00                  NOP
0037   002A 00                  NOP
0038   002B 00                  NOP
0039   002C 00                  NOP
0040   002D 00                  NOP
0041   002E 00                  NOP
0042   002F 00                  NOP
0043   0030 00                  NOP
0044   0031 00                  NOP
0045   0032 00                  NOP
0046   0033 00                  NOP
0047   0034 00                  NOP
0048   0035 00                  NOP
0049   0036 00                  NOP
0050   0037 00                  NOP
0051   0038 C3 AB 01            JP L0003
0052   003B 00                  NOP
0053   003C 00                  NOP
0054   003D 00                  NOP
0055   003E 00                  NOP
0056   003F 00                  NOP
0057   0040 00                  NOP
0058   0041 00                  NOP
0059   0042 00                  NOP
0060   0043 00                  NOP
0061   0044 00                  NOP
0062   0045 00                  NOP
0063   0046 00                  NOP
0064   0047 00                  NOP
0065   0048 00                  NOP
0066   0049 00                  NOP
0067   004A 00                  NOP
0068   004B 00                  NOP
0069   004C 00                  NOP
0070   004D 00                  NOP
0071   004E 00                  NOP
0072   004F 00                  NOP
0073   0050 00                  NOP
0074   0051 00                  NOP
0075   0052 00                  NOP
0076   0053 00                  NOP
0077   0054 00                  NOP
0078   0055 00                  NOP
0079   0056 00                  NOP
0080   0057 00                  NOP
0081   0058 00                  NOP
0082   0059 00                  NOP
0083   005A 00                  NOP
0084   005B 00                  NOP
0085   005C 00                  NOP
0086   005D 00                  NOP
0087   005E 00                  NOP
0088   005F 00                  NOP
0089   0060 00                  NOP
0090   0061 00                  NOP
0091   0062 00                  NOP
0092   0063 00                  NOP
0093   0064 00                  NOP
0094   0065 00                  NOP
0095   0066 C3 AB 01            JP L0003
0096   0069 31 00 62    L0001:  LD SP,6200H
0097   006C AF                  XOR A
0098   006D CD 64 01            CALL L0004
0099   0070 3E 7C               LD A,7CH
0100   0072 D3 88               OUT (88H),A
0101   0074 21 59 01            LD HL,0159H
0102   0077 46                  LD B,(HL)
0103   0078 23          L0005:  INC HL
0104   0079 7E                  LD A,(HL)
0105   007A 00                  NOP
0106   007B 00                  NOP
0107   007C 00                  NOP
0108   007D 10 F9               DJNZ L0005
0109   007F 11 13 01            LD DE,0113H
0110   0082 00                  NOP
0111   0083 00                  NOP
0112   0084 00                  NOP
0113   0085 AF                  XOR A
0114   0086 D3 8C               OUT (8CH),A
0115   0088 D3 90               OUT (90H),A
0116   008A 3D                  DEC A
0117   008B 21 00 00            LD HL,0000H
0118   008E 01 00 00            LD BC,0000H
0119   0091 00                  NOP
0120   0092 00                  NOP
0121   0093 00                  NOP
0122   0094 00                  NOP
0123   0095 00                  NOP
0124   0096 00                  NOP
0125   0097 00                  NOP
0126   0098 D3 8C               OUT (8CH),A
0127   009A D3 90               OUT (90H),A
0128   009C 21 5D 01            LD HL,015DH
0129   009F 01 51 07            LD BC,0751H
0130   00A2 ED B3               OTIR
0131   00A4 3E 7C               LD A,7CH
0132   00A6 32 79 61            LD (6179H),A
0133   00A9 ED 5E               IM 2
0134   00AB 3E 60               LD A,60H
0135   00AD 32 7A 61            LD (617AH),A
0136   00B0 21 FC 00    L0013:  LD HL,00FCH
0137   00B3 CD 9F 01            CALL L0006
0138   00B6 CD AE 01            CALL L0007
0139   00B9 DB 58               IN A,(58H)
0140   00BB E6 60               AND 60H
0141   00BD CA AB 01            JP Z,L0003
0142   00C0 CB 77               BIT 6,A
0143   00C2 CA FF 06            JP Z,L0008
0144   00C5 CB 6F               BIT 5,A
0145   00C7 CA 7B 10            JP Z,L0009
0146   00CA 21 FD 00            LD HL,00FDH
0147   00CD CD 9F 01            CALL L0006
0148   00D0 CD AE 01            CALL L0007
0149   00D3 FD 7E 09            LD A,(IY+09H)
0150   00D6 FE 80               CP 80H
0151   00D8 28 0F               JR Z,L0010
0152   00DA FE C2       L0015:  CP 0C2H
0153   00DC 11 47 01            LD DE,0147H
0154   00DF 20 03               JR NZ,L0011
0155   00E1 11 35 01            LD DE,0135H
0156   00E4 CD D5 0F    L0011:  CALL L0012
0157   00E7 18 C7               JR L0013
0158   00E9 21 08 01    L0010:  LD HL,0108H
0159   00EC CD 9F 01            CALL L0006
0160   00EF CD AE 01            CALL L0007
0161   00F2 FD 7E 09            LD A,(IY+09H)
0162   00F5 FE 80               CP 80H
0163   00F7 CA 02 00            JP Z,L0014
0164   00FA 18 DE               JR L0015
0165   00FC 00                  NOP
0166   00FD 0A                  LD A,(BC)
0167   00FE 00                  NOP
0168   00FF 00                  NOP
0169   0100 00                  NOP
0170   0101 40                  LD B,B
0171   0102 61                  LD H,C
0172   0103 00                  NOP
0173   0104 00                  NOP
0174   0105 00                  NOP
0175   0106 00                  NOP
0176   0107 00                  NOP
0177   0108 0A                  LD A,(BC)
0178   0109 00                  NOP
0179   010A A0                  AND B
0180   010B 00                  NOP
0181   010C 00                  NOP
0182   010D 46                  LD B,(HL)
0183   010E 00                  NOP
0184   010F 00                  NOP
0185   0110 00                  NOP
0186   0111 00                  NOP
0187   0112 07                  RLCA
0188   0113 53                  LD D,E
0189   0114 50                  LD D,B
0190   0115 2D                  DEC L
0191   0116 31 32 30            LD SP,3032H
0192   0119 30 20               JR NC,L0016
0193   011B 20 52               JR NZ,L0017
0194   011D 45                  LD B,L
0195   011E 56                  LD D,(HL)
0196   011F 20 42               JR NZ,L0018
0197   0121 20 20               JR NZ,L0019
0198   0123 90                  SUB B
0199   0124 4C                  LD C,H
0200   0125 6F                  LD L,A
0201   0126 61                  LD H,C
0202   0127 64                  LD H,H
0203   0128 69                  LD L,C
0204   0129 6E                  LD L,(HL)
0205   012A 67                  LD H,A
0206   012B 20 53               JR NZ,L0020
0207   012D 6F                  LD L,A
0208   012E 66                  LD H,(HL)
0209   012F 74                  LD (HL),H
0210   0130 77                  LD (HL),A
0211   0131 61                  LD H,C
0212   0132 72                  LD (HL),D
0213   0133 65                  LD H,L
0214   0134 FE 90               CP 90H
0215   0136 49                  LD C,C
0216   0137 6E                  LD L,(HL)
0217   0138 73                  LD (HL),E
0218   0139 65                  LD H,L
0219   013A 72                  LD (HL),D
0220   013B 74          L0016:  LD (HL),H
0221   013C 20 44               JR NZ,L0021
0222   013E 69                  LD L,C
0223   013F 73                  LD (HL),E
0224   0140 6B                  LD L,E
0225   0141 65                  LD H,L
0226   0142 74                  LD (HL),H
0227   0143 74          L0019:  LD (HL),H
0228   0144 65                  LD H,L
0229   0145 20 FE       L0022:  JR NZ,L0022
0230   0147 90                  SUB B
0231   0148 44                  LD B,H
0232   0149 69                  LD L,C
0233   014A 73                  LD (HL),E
0234   014B 6B                  LD L,E
0235   014C 20 52               JR NZ,L0023
0236   014E 65                  LD H,L
0237   014F 61                  LD H,C
0238   0150 64                  LD H,H
0239   0151 20 45               JR NZ,L0024
0240   0153 72                  LD (HL),D
0241   0154 72                  LD (HL),D
0242   0155 6F                  LD L,A
0243   0156 72                  LD (HL),D
0244   0157 20 FE       L0025:  JR NZ,L0025
0245   0159 03                  INC BC
0246   015A 38 0C               JR C,L0026
0247   015C 01 18 04            LD BC,0418H
0248   015F CC 03 C1            CALL Z,L0027
0249   0162 05                  DEC B
0250   0163 68          L0018:  LD L,B
0251   0164 01 80 08    L0004:  LD BC,0880H
0252   0167 ED 79       L0028:  OUT (C),A
0253   0169 0C                  INC C
0254   016A 10 FB               DJNZ L0028
0255   016C 01 00 08            LD BC,0800H
0256   016F 21 FD FF    L0017:  LD HL,0FFFDH
0257   0172 3E 02               LD A,02H
0258   0174 CD 95 01            CALL L0029
0259   0177 3E 00               LD A,00H
0260   0179 CD 95 01            CALL L0029
0261   017C 21 00 00            LD HL,0000H
0262   017F 3E 03               LD A,03H
0263   0181 CD 95 01            CALL L0029
0264   0184 3E 04               LD A,04H
0265   0186 CD 95 01            CALL L0029
0266   0189 79                  LD A,C
0267   018A C6 08               ADD A,08H
0268   018C 4F                  LD C,A
0269   018D 10 E0               DJNZ L0017
0270   018F 21 00 00            LD HL,0000H
0271   0192 0E 07               LD C,07H
0272   0194 AF                  XOR A
0273   0195 81          L0029:  ADD A,C
0274   0196 D3 94               OUT (94H),A
0275   0198 7D          L0024:  LD A,L
0276   0199 D3 98               OUT (98H),A
0277   019B 7C                  LD A,H
0278   019C D3 9C               OUT (9CH),A
0279   019E C9                  RET
0280   019F 11 7B 61    L0006:  LD DE,617BH
0281   01A2 D5                  PUSH DE
0282   01A3 FD E1               POP IY
0283   01A5 01 0B 00            LD BC,000BH
0284   01A8 ED B0               LDIR
0285   01AA C9                  RET
0286   01AB C3 00 00    L0003:  JP L0030
0287   01AE FD 7E 00    L0007:  LD A,(IY+00H)
0288   01B1 E6 FE               AND 0FEH
0289   01B3 28 29               JR Z,L0031
0290   01B5 21 DB 01            LD HL,01DBH
0291   01B8 01 03 00            LD BC,0003H
0292   01BB ED B1               CPIR
0293   01BD 28 27               JR Z,L0032
0294   01BF 3E C1               LD A,0C1H
0295   01C1 FD 77 09    L0034:  LD (IY+09H),A
0296   01C4 3E 05               LD A,05H
0297   01C6 D3 53               OUT (53H),A
0298   01C8 3A 7A 61            LD A,(617AH)
0299   01CB D3 53               OUT (53H),A
0300   01CD 11 80 01            LD DE,0180H
0301   01D0 1B          L0033:  DEC DE
0302   01D1 7A                  LD A,D
0303   01D2 B3                  OR E
0304   01D3 20 FB               JR NZ,L0033
0305   01D5 FD 7E 09            LD A,(IY+09H)
0306   01D8 FE 80               CP 80H
0307   01DA C9                  RET
0308   01DB 0A                  LD A,(BC)
0309   01DC 0E 1E               LD C,1EH
0310   01DE 3D          L0031:  DEC A
0311   01DF 32 5A 61            LD (615AH),A
0312   01E2 3E 80               LD A,80H
0313   01E4 18 DB               JR L0034
0314   01E6 3E 04       L0032:  LD A,04H
0315   01E8 32 5B 61            LD (615BH),A
0316   01EB 3E 0A               LD A,0AH
0317   01ED 32 5C 61            LD (615CH),A
0318   01F0 3E 05               LD A,05H
0319   01F2 D3 53               OUT (53H),A
0320   01F4 3E 66               LD A,66H
0321   01F6 D3 53               OUT (53H),A
0322   01F8 06 03               LD B,03H
0323   01FA 10 FE       L0035:  DJNZ L0035
0324   01FC 3E 10               LD A,10H
0325   01FE D3 51               OUT (51H),A
0326   0200 DB 51               IN A,(51H)
0327   0202 CB 67               BIT 4,A
0328   0204 28 0A               JR Z,L0036
0329   0206 FD CB 00 56         BIT 2,(IY+00H)
0330   020A 28 04               JR Z,L0036
0331   020C 3E C3               LD A,0C3H
0332   020E 18 B1               JR L0034
0333   0210 FD 36 09 00 L0036:  LD (IY+09H),00H
0334   0214 FD 5E 04            LD E,(IY+04H)
0335   0217 FD 56 05            LD D,(IY+05H)
0336   021A FD 7E 06            LD A,(IY+06H)
0337   021D ED 53 66 61         LD (6166H),DE
0338   0221 32 68 61            LD (6168H),A
0339   0224 FD 4E 07            LD C,(IY+07H)
0340   0227 FD 46 08            LD B,(IY+08H)
0341   022A ED 43 69 61         LD (6169H),BC
0342   022E FD 6E 01            LD L,(IY+01H)
0343   0231 FD 66 02            LD H,(IY+02H)
0344   0234 FD 7E 03            LD A,(IY+03H)
0345   0237 32 77 61            LD (6177H),A
0346   023A A7                  AND A
0347   023B 28 26               JR Z,L0037
0348   023D CB 85               RES 0,L
0349   023F CB 83               RES 0,E
0350   0241 CB 81               RES 0,C
0351   0243 ED 53 66 61         LD (6166H),DE
0352   0247 ED 43 69 61         LD (6169H),BC
0353   024B E6 07               AND 07H
0354   024D 5F                  LD E,A
0355   024E 16 FC               LD D,0FCH
0356   0250 01 80 08            LD BC,0880H
0357   0253 ED 59       L0038:  OUT (C),E
0358   0255 7A                  LD A,D
0359   0256 C6 08               ADD A,08H
0360   0258 57                  LD D,A
0361   0259 D3 94               OUT (94H),A
0362   025B AF                  XOR A
0363   025C D3 98               OUT (98H),A
0364   025E D3 9C               OUT (9CH),A
0365   0260 0C                  INC C
0366   0261 10 F0               DJNZ L0038
0367   0263 22 75 61    L0037:  LD (6175H),HL
0368   0266 FD 7E 0A            LD A,(IY+0AH)
0369   0269 A7                  AND A
0370   026A 1F                  RRA
0371   026B 32 5D 61            LD (615DH),A
0372   026E 5F                  LD E,A
0373   026F 1F                  RRA
0374   0270 E6 80               AND 80H
0375   0272 32 5E 61            LD (615EH),A
0376   0275 CD DB 06            CALL L0039
0377   0278 EB                  EX DE,HL
0378   0279 3A 5A 61            LD A,(615AH)
0379   027C CB 7F               BIT 7,A
0380   027E 20 19               JR NZ,L0040
0381   0280 95                  SUB L
0382   0281 CA 07 03            JP Z,L0041
0383   0284 67          L0048:  LD H,A
0384   0285 7D                  LD A,L
0385   0286 A7                  AND A
0386   0287 28 10               JR Z,L0040
0387   0289 32 5A 61            LD (615AH),A
0388   028C 7C                  LD A,H
0389   028D 26 08               LD H,08H
0390   028F CB 7F               BIT 7,A
0391   0291 28 18               JR Z,L0042
0392   0293 26 00               LD H,00H
0393   0295 ED 44               NEG
0394   0297 18 12               JR L0042
0395   0299 AF          L0040:  XOR A
0396   029A 32 5A 61            LD (615AH),A
0397   029D 26 08               LD H,08H
0398   029F 3E 10               LD A,10H
0399   02A1 D3 53               OUT (53H),A
0400   02A3 DB 53               IN A,(53H)
0401   02A5 CB 6F               BIT 5,A
0402   02A7 20 21               JR NZ,L0043
0403   02A9 3E 5A               LD A,5AH
0404   02AB 3D          L0042:  DEC A
0405   02AC 32 60 61            LD (6160H),A
0406   02AF 3A 79 61            LD A,(6179H)
0407   02B2 E6 F7               AND 0F7H
0408   02B4 B4                  OR H
0409   02B5 D3 88               OUT (88H),A
0410   02B7 32 79 61            LD (6179H),A
0411   02BA 3E 05       L0046:  LD A,05H
0412   02BC D3 53               OUT (53H),A
0413   02BE 3E E6               LD A,0E6H
0414   02C0 D3 53               OUT (53H),A
0415   02C2 3E 05               LD A,05H
0416   02C4 D3 53               OUT (53H),A
0417   02C6 3E 66               LD A,66H
0418   02C8 D3 53               OUT (53H),A
0419   02CA 11 80 01    L0043:  LD DE,0180H
0420   02CD 1B          L0044:  DEC DE
0421   02CE 7A                  LD A,D
0422   02CF B3                  OR E
0423   02D0 20 FB               JR NZ,L0044
0424   02D2 3A 60 61            LD A,(6160H)
0425   02D5 3D                  DEC A
0426   02D6 FA ED 02            JP M,L0045
0427   02D9 32 60 61            LD (6160H),A
0428   02DC 3A 79 61            LD A,(6179H)
0429   02DF CB 5F               BIT 3,A
0430   02E1 28 D7               JR Z,L0046
0431   02E3 3E 10               LD A,10H
0432   02E5 D3 53               OUT (53H),A
0433   02E7 DB 53               IN A,(53H)
0434   02E9 CB 6F               BIT 5,A
0435   02EB 28 CD               JR Z,L0046
0436   02ED 3A 5D 61    L0045:  LD A,(615DH)
0437   02F0 6F                  LD L,A
0438   02F1 3A 5A 61            LD A,(615AH)
0439   02F4 95                  SUB L
0440   02F5 28 02               JR Z,L0047
0441   02F7 18 8B               JR L0048
0442   02F9 FD CB 00 56 L0047:  BIT 2,(IY+00H)
0443   02FD 28 08               JR Z,L0041
0444   02FF 11 83 07            LD DE,0783H
0445   0302 1B          L0049:  DEC DE
0446   0303 7A                  LD A,D
0447   0304 B3                  OR E
0448   0305 20 FB               JR NZ,L0049
0449   0307 11 9C AD    L0041:  LD DE,0AD9CH
0450   030A 1B          L0051:  DEC DE
0451   030B 7A                  LD A,D
0452   030C B3                  OR E
0453   030D 20 05               JR NZ,L0050
0454   030F 3E C2               LD A,0C2H
0455   0311 C3 C1 01            JP L0034
0456   0314 3E 10       L0050:  LD A,10H
0457   0316 D3 51               OUT (51H),A
0458   0318 DB 51               IN A,(51H)
0459   031A CB 5F               BIT 3,A
0460   031C 28 EC               JR Z,L0051
0461   031E 21 5F 03            LD HL,035FH
0462   0321 FD CB 00 66         BIT 4,(IY+00H)
0463   0325 28 09               JR Z,L0052
0464   0327 FD CB 09 6E         BIT 5,(IY+09H)
0465   032B 20 03               JR NZ,L0052
0466   032D 21 81 05            LD HL,0581H
0467   0330 11 71 45    L0052:  LD DE,4571H
0468   0333 1B                  DEC DE
0469   0334 7A                  LD A,D
0470   0335 B3                  OR E
0471   0336 20 05               JR NZ,L0053
0472   0338 3E C2               LD A,0C2H
0473   033A C3 C1 01            JP L0034
0474   033D 3E 10       L0053:  LD A,10H
0475   033F D3 51               OUT (51H),A
0476   0341 DB 51               IN A,(51H)
0477   0343 CB 6F               BIT 5,A
0478   0345 20 E9               JR NZ,L0052
0479   0347 11 71 45    L0055:  LD DE,4571H
0480   034A 1B                  DEC DE
0481   034B 7A                  LD A,D
0482   034C B3                  OR E
0483   034D 20 05               JR NZ,L0054
0484   034F 3E C2               LD A,0C2H
0485   0351 C3 C1 01            JP L0034
0486   0354 3E 10       L0054:  LD A,10H
0487   0356 D3 51               OUT (51H),A
0488   0358 DB 51               IN A,(51H)
0489   035A CB 6F               BIT 5,A
0490   035C 28 E9               JR Z,L0055
0491   035E E9                  JP (HL)
0492   035F DB 52               IN A,(52H)
0493   0361 DB 52               IN A,(52H)
0494   0363 DB 52               IN A,(52H)
0495   0365 DB 52               IN A,(52H)
0496   0367 3E 43               LD A,43H
0497   0369 D3 53               OUT (53H),A
0498   036B 3E D9               LD A,0D9H
0499   036D D3 53               OUT (53H),A
0500   036F 11 14 05            LD DE,0514H
0501   0372 DB 53       L0057:  IN A,(53H)
0502   0374 E6 01               AND 01H
0503   0376 20 0A               JR NZ,L0056
0504   0378 1B                  DEC DE
0505   0379 7A                  LD A,D
0506   037A B3                  OR E
0507   037B 20 F5               JR NZ,L0057
0508   037D 3E C4               LD A,0C4H
0509   037F C3 C1 01            JP L0034
0510   0382 21 62 61    L0056:  LD HL,6162H
0511   0385 01 52 04            LD BC,0452H
0512   0388 ED A2               INI
0513   038A DB 53       L0058:  IN A,(53H)
0514   038C E6 01               AND 01H
0515   038E 28 FA               JR Z,L0058
0516   0390 ED A2               INI
0517   0392 20 F6               JR NZ,L0058
0518   0394 DB 53       L0059:  IN A,(53H)
0519   0396 CB 47               BIT 0,A
0520   0398 28 FA               JR Z,L0059
0521   039A 3E 01               LD A,01H
0522   039C D3 53               OUT (53H),A
0523   039E DB 53               IN A,(53H)
0524   03A0 CB 77               BIT 6,A
0525   03A2 C2 90 04            JP NZ,L0060
0526   03A5 3A 62 61            LD A,(6162H)
0527   03A8 67                  LD H,A
0528   03A9 3A 5E 61            LD A,(615EH)
0529   03AC 17                  RLA
0530   03AD 3A 5D 61            LD A,(615DH)
0531   03B0 17                  RLA
0532   03B1 BC                  CP H
0533   03B2 C2 90 04            JP NZ,L0060
0534   03B5 FD CB 00 56         BIT 2,(IY+00H)
0535   03B9 C2 EE 05            JP NZ,L0061
0536   03BC 3E 03       L0093:  LD A,03H
0537   03BE D3 53               OUT (53H),A
0538   03C0 3E D9               LD A,0D9H
0539   03C2 D3 53               OUT (53H),A
0540   03C4 DB 52               IN A,(52H)
0541   03C6 DB 52               IN A,(52H)
0542   03C8 DB 52               IN A,(52H)
0543   03CA DB 52               IN A,(52H)
0544   03CC 2A 69 61            LD HL,(6169H)
0545   03CF ED 5B 75 61         LD DE,(6175H)
0546   03D3 3A 77 61            LD A,(6177H)
0547   03D6 A7                  AND A
0548   03D7 28 11               JR Z,L0062
0549   03D9 3E 07               LD A,07H
0550   03DB D3 94               OUT (94H),A
0551   03DD 7B                  LD A,E
0552   03DE D3 98               OUT (98H),A
0553   03E0 7A                  LD A,D
0554   03E1 D3 9C               OUT (9CH),A
0555   03E3 44                  LD B,H
0556   03E4 4D                  LD C,L
0557   03E5 CB 38               SRL B
0558   03E7 CB 19               RR C
0559   03E9 09                  ADD HL,BC
0560   03EA 01 0E 00    L0062:  LD BC,000EH
0561   03ED FD CB 09 6E         BIT 5,(IY+09H)
0562   03F1 28 03               JR Z,L0063
0563   03F3 21 FF FF            LD HL,0FFFFH
0564   03F6 7C          L0063:  LD A,H
0565   03F7 B5                  OR L
0566   03F8 28 10               JR Z,L0064
0567   03FA DB 53       L0065:  IN A,(53H)
0568   03FC E6 01               AND 01H
0569   03FE 28 FA               JR Z,L0065
0570   0400 DB 52               IN A,(52H)
0571   0402 2B                  DEC HL
0572   0403 10 F1               DJNZ L0063
0573   0405 0D                  DEC C
0574   0406 20 EE               JR NZ,L0063
0575   0408 18 2D               JR L0066
0576   040A 3A 77 61    L0064:  LD A,(6177H)
0577   040D A7                  AND A
0578   040E C2 3A 04            JP NZ,L0067
0579   0411 2A 66 61            LD HL,(6166H)
0580   0414 7C          L0069:  LD A,H
0581   0415 B5                  OR L
0582   0416 28 12               JR Z,L0068
0583   0418 DB 53               IN A,(53H)
0584   041A E6 01               AND 01H
0585   041C 28 F6               JR Z,L0069
0586   041E DB 52               IN A,(52H)
0587   0420 12                  LD (DE),A
0588   0421 13                  INC DE
0589   0422 2B                  DEC HL
0590   0423 10 EF               DJNZ L0069
0591   0425 0D                  DEC C
0592   0426 20 EC               JR NZ,L0069
0593   0428 18 0D               JR L0066
0594   042A DB 53       L0068:  IN A,(53H)
0595   042C E6 01               AND 01H
0596   042E 28 FA               JR Z,L0068
0597   0430 DB 52               IN A,(52H)
0598   0432 10 F6               DJNZ L0068
0599   0434 0D                  DEC C
0600   0435 20 F3               JR NZ,L0068
0601   0437 C3 C0 04    L0066:  JP L0070
0602   043A 2A 66 61    L0067:  LD HL,(6166H)
0603   043D 2B                  DEC HL
0604   043E D5                  PUSH DE
0605   043F EB                  EX DE,HL
0606   0440 21 3F 09            LD HL,093FH
0607   0443 ED 52               SBC HL,DE
0608   0445 EB                  EX DE,HL
0609   0446 30 03               JR NC,L0071
0610   0448 21 3F 09            LD HL,093FH
0611   044B 23          L0071:  INC HL
0612   044C D1                  POP DE
0613   044D DB 53       L0072:  IN A,(53H)
0614   044F E6 01               AND 01H
0615   0451 28 FA               JR Z,L0072
0616   0453 DB 52               IN A,(52H)
0617   0455 D3 41               OUT (41H),A
0618   0457 13                  INC DE
0619   0458 7B                  LD A,E
0620   0459 D3 98               OUT (98H),A
0621   045B 7A                  LD A,D
0622   045C D3 9C               OUT (9CH),A
0623   045E 10 03               DJNZ L0073
0624   0460 0D                  DEC C
0625   0461 28 D4               JR Z,L0066
0626   0463 DB 53       L0073:  IN A,(53H)
0627   0465 E6 01               AND 01H
0628   0467 28 FA               JR Z,L0073
0629   0469 DB 52               IN A,(52H)
0630   046B D3 41               OUT (41H),A
0631   046D 10 03               DJNZ L0074
0632   046F 0D                  DEC C
0633   0470 28 C5               JR Z,L0066
0634   0472 DB 53       L0074:  IN A,(53H)
0635   0474 E6 01               AND 01H
0636   0476 28 FA               JR Z,L0074
0637   0478 DB 52               IN A,(52H)
0638   047A D3 40               OUT (40H),A
0639   047C 13                  INC DE
0640   047D 7B                  LD A,E
0641   047E D3 98               OUT (98H),A
0642   0480 7A                  LD A,D
0643   0481 D3 9C               OUT (9CH),A
0644   0483 2B                  DEC HL
0645   0484 2B                  DEC HL
0646   0485 10 03               DJNZ L0075
0647   0487 0D                  DEC C
0648   0488 28 AD               JR Z,L0066
0649   048A 7C          L0075:  LD A,H
0650   048B B5                  OR L
0651   048C 28 9C               JR Z,L0068
0652   048E 18 BD               JR L0072
0653   0490 2A 71 61    L0060:  LD HL,(6171H)
0654   0493 23                  INC HL
0655   0494 22 71 61            LD (6171H),HL
0656   0497 3A 5B 61            LD A,(615BH)
0657   049A 3D                  DEC A
0658   049B 20 05               JR NZ,L0076
0659   049D 3E C5               LD A,0C5H
0660   049F C3 C1 01            JP L0034
0661   04A2 32 5B 61    L0076:  LD (615BH),A
0662   04A5 FE 03               CP 03H
0663   04A7 20 11               JR NZ,L0077
0664   04A9 2B                  DEC HL
0665   04AA 22 71 61            LD (6171H),HL
0666   04AD 2A 73 61            LD HL,(6173H)
0667   04B0 23                  INC HL
0668   04B1 22 73 61            LD (6173H),HL
0669   04B4 CD DB 06            CALL L0039
0670   04B7 C3 07 03            JP L0041
0671   04BA CD DB 06    L0077:  CALL L0039
0672   04BD C3 99 02            JP L0040
0673   04C0 26 04       L0070:  LD H,04H
0674   04C2 DB 53       L0078:  IN A,(53H)
0675   04C4 CB 47               BIT 0,A
0676   04C6 28 FA               JR Z,L0078
0677   04C8 DB 52               IN A,(52H)
0678   04CA 25                  DEC H
0679   04CB 20 F5               JR NZ,L0078
0680   04CD DB 53       L0079:  IN A,(53H)
0681   04CF CB 47               BIT 0,A
0682   04D1 28 FA               JR Z,L0079
0683   04D3 3E 01               LD A,01H
0684   04D5 D3 53               OUT (53H),A
0685   04D7 DB 53               IN A,(53H)
0686   04D9 CB 77               BIT 6,A
0687   04DB C2 56 05            JP NZ,L0080
0688   04DE 3E 03               LD A,03H
0689   04E0 D3 53               OUT (53H),A
0690   04E2 3E C0               LD A,0C0H
0691   04E4 D3 53               OUT (53H),A
0692   04E6 3A 77 61            LD A,(6177H)
0693   04E9 A7                  AND A
0694   04EA 28 05               JR Z,L0081
0695   04EC 21 40 09            LD HL,0940H
0696   04EF 18 03               JR L0082
0697   04F1 21 00 0E    L0081:  LD HL,0E00H
0698   04F4 ED 4B 69 61 L0082:  LD BC,(6169H)
0699   04F8 A7                  AND A
0700   04F9 ED 42               SBC HL,BC
0701   04FB 44                  LD B,H
0702   04FC 4D                  LD C,L
0703   04FD 2A 75 61            LD HL,(6175H)
0704   0500 09                  ADD HL,BC
0705   0501 22 75 61            LD (6175H),HL
0706   0504 2A 66 61            LD HL,(6166H)
0707   0507 3A 68 61            LD A,(6168H)
0708   050A A7                  AND A
0709   050B ED 42               SBC HL,BC
0710   050D 22 66 61            LD (6166H),HL
0711   0510 DE 00               SBC A,00H
0712   0512 32 68 61            LD (6168H),A
0713   0515 38 05               JR C,L0083
0714   0517 B4                  OR H
0715   0518 B5                  OR L
0716   0519 20 01               JR NZ,L0083
0717   051B 37                  SCF
0718   051C 3E 80       L0083:  LD A,80H
0719   051E DA C1 01            JP C,L0034
0720   0521 3E 04               LD A,04H
0721   0523 32 5B 61            LD (615BH),A
0722   0526 3E 0A               LD A,0AH
0723   0528 32 5C 61            LD (615CH),A
0724   052B FD CB 09 AE         RES 5,(IY+09H)
0725   052F 3A 5E 61            LD A,(615EH)
0726   0532 EE 80               XOR 80H
0727   0534 32 5E 61            LD (615EH),A
0728   0537 21 00 00            LD HL,0000H
0729   053A 22 69 61            LD (6169H),HL
0730   053D CD DB 06            CALL L0039
0731   0540 CB 7F               BIT 7,A
0732   0542 C2 07 03            JP NZ,L0041
0733   0545 3A 5D 61            LD A,(615DH)
0734   0548 3C                  INC A
0735   0549 32 5D 61            LD (615DH),A
0736   054C 32 5A 61            LD (615AH),A
0737   054F 3E 01               LD A,01H
0738   0551 26 00               LD H,00H
0739   0553 C3 AB 02            JP L0042
0740   0556 3A 5C 61    L0080:  LD A,(615CH)
0741   0559 FE 0A               CP 0AH
0742   055B 28 09               JR Z,L0084
0743   055D 2A 6D 61            LD HL,(616DH)
0744   0560 23                  INC HL
0745   0561 22 6D 61            LD (616DH),HL
0746   0564 18 07               JR L0085
0747   0566 2A 6F 61    L0084:  LD HL,(616FH)
0748   0569 23                  INC HL
0749   056A 22 6F 61            LD (616FH),HL
0750   056D 3D          L0085:  DEC A
0751   056E 28 0C               JR Z,L0086
0752   0570 32 5C 61            LD (615CH),A
0753   0573 CD DB 06    L0106:  CALL L0039
0754   0576 21 5F 03            LD HL,035FH
0755   0579 C3 30 03            JP L0052
0756   057C 3E C6       L0086:  LD A,0C6H
0757   057E C3 C1 01            JP L0034
0758   0581 3E 05               LD A,05H
0759   0583 D3 51               OUT (51H),A
0760   0585 3A 5E 61            LD A,(615EH)
0761   0588 F6 6A               OR 6AH
0762   058A D3 51               OUT (51H),A
0763   058C 21 9B 00            LD HL,009BH
0764   058F 2B          L0087:  DEC HL
0765   0590 7C                  LD A,H
0766   0591 B5                  OR L
0767   0592 20 FB               JR NZ,L0087
0768   0594 D3 52               OUT (52H),A
0769   0596 3E 05               LD A,05H
0770   0598 D3 53               OUT (53H),A
0771   059A 3E 6E               LD A,6EH
0772   059C D3 53               OUT (53H),A
0773   059E 21 FA 06            LD HL,06FAH
0774   05A1 01 52 05            LD BC,0552H
0775   05A4 DB 53       L0088:  IN A,(53H)
0776   05A6 CB 57               BIT 2,A
0777   05A8 28 FA               JR Z,L0088
0778   05AA ED A3               OUTI
0779   05AC 20 F6               JR NZ,L0088
0780   05AE DB 53       L0089:  IN A,(53H)
0781   05B0 CB 57               BIT 2,A
0782   05B2 28 FA               JR Z,L0089
0783   05B4 3E 85               LD A,85H
0784   05B6 D3 53               OUT (53H),A
0785   05B8 3E 66               LD A,66H
0786   05BA F6 6F               OR 6FH
0787   05BC D3 53               OUT (53H),A
0788   05BE 3A 5E 61            LD A,(615EH)
0789   05C1 17                  RLA
0790   05C2 3A 5D 61            LD A,(615DH)
0791   05C5 17                  RLA
0792   05C6 D3 52               OUT (52H),A
0793   05C8 3E D0               LD A,0D0H
0794   05CA D3 53               OUT (53H),A
0795   05CC DB 53       L0090:  IN A,(53H)
0796   05CE CB 77               BIT 6,A
0797   05D0 3E 10               LD A,10H
0798   05D2 D3 53               OUT (53H),A
0799   05D4 28 F6               JR Z,L0090
0800   05D6 AF                  XOR A
0801   05D7 D3 52               OUT (52H),A
0802   05D9 DB 53       L0091:  IN A,(53H)
0803   05DB CB 57               BIT 2,A
0804   05DD 28 FA               JR Z,L0091
0805   05DF AF                  XOR A
0806   05E0 D3 52               OUT (52H),A
0807   05E2 3E 05               LD A,05H
0808   05E4 D3 53               OUT (53H),A
0809   05E6 3E 66               LD A,66H
0810   05E8 D3 53               OUT (53H),A
0811   05EA 06 1C               LD B,1CH
0812   05EC 10 FE       L0092:  DJNZ L0092
0813   05EE FD CB 09 6E L0061:  BIT 5,(IY+09H)
0814   05F2 C2 BC 03            JP NZ,L0093
0815   05F5 3E 05               LD A,05H
0816   05F7 D3 51               OUT (51H),A
0817   05F9 3A 5E 61            LD A,(615EH)
0818   05FC F6 6A               OR 6AH
0819   05FE D3 51               OUT (51H),A
0820   0600 21 4D 00            LD HL,004DH
0821   0603 2B          L0094:  DEC HL
0822   0604 7C                  LD A,H
0823   0605 B5                  OR L
0824   0606 20 FB               JR NZ,L0094
0825   0608 D3 52               OUT (52H),A
0826   060A 3E 15               LD A,15H
0827   060C D3 53               OUT (53H),A
0828   060E 3E 6E               LD A,6EH
0829   0610 D3 53               OUT (53H),A
0830   0612 21 FA 06            LD HL,06FAH
0831   0615 01 52 05            LD BC,0552H
0832   0618 DB 53       L0095:  IN A,(53H)
0833   061A CB 57               BIT 2,A
0834   061C 28 FA               JR Z,L0095
0835   061E ED A3               OUTI
0836   0620 20 F6               JR NZ,L0095
0837   0622 2A 75 61            LD HL,(6175H)
0838   0625 01 0E 00            LD BC,000EH
0839   0628 3E 07               LD A,07H
0840   062A D3 94               OUT (94H),A
0841   062C 7D                  LD A,L
0842   062D D3 98               OUT (98H),A
0843   062F 7C                  LD A,H
0844   0630 D3 9C               OUT (9CH),A
0845   0632 3A 77 61            LD A,(6177H)
0846   0635 A7                  AND A
0847   0636 3E 6F               LD A,6FH
0848   0638 F5                  PUSH AF
0849   0639 DB 53       L0096:  IN A,(53H)
0850   063B CB 57               BIT 2,A
0851   063D 28 FA               JR Z,L0096
0852   063F 3E 85               LD A,85H
0853   0641 D3 53               OUT (53H),A
0854   0643 F1                  POP AF
0855   0644 D3 53               OUT (53H),A
0856   0646 28 3D               JR Z,L0097
0857   0648 DB 53       L0098:  IN A,(53H)
0858   064A E6 04               AND 04H
0859   064C 28 FA               JR Z,L0098
0860   064E DB 41               IN A,(41H)
0861   0650 D3 52               OUT (52H),A
0862   0652 23                  INC HL
0863   0653 7D                  LD A,L
0864   0654 D3 98               OUT (98H),A
0865   0656 7C                  LD A,H
0866   0657 D3 9C               OUT (9CH),A
0867   0659 10 03               DJNZ L0099
0868   065B 0D                  DEC C
0869   065C 28 36               JR Z,L0100
0870   065E DB 53       L0099:  IN A,(53H)
0871   0660 E6 04               AND 04H
0872   0662 28 FA               JR Z,L0099
0873   0664 DB 41               IN A,(41H)
0874   0666 D3 52               OUT (52H),A
0875   0668 10 03               DJNZ L0101
0876   066A 0D                  DEC C
0877   066B 28 27               JR Z,L0100
0878   066D DB 53       L0101:  IN A,(53H)
0879   066F E6 04               AND 04H
0880   0671 28 FA               JR Z,L0101
0881   0673 DB 40               IN A,(40H)
0882   0675 D3 52               OUT (52H),A
0883   0677 23                  INC HL
0884   0678 7D                  LD A,L
0885   0679 D3 98               OUT (98H),A
0886   067B 7C                  LD A,H
0887   067C D3 9C               OUT (9CH),A
0888   067E 10 C8               DJNZ L0098
0889   0680 0D                  DEC C
0890   0681 20 C5               JR NZ,L0098
0891   0683 18 0F               JR L0100
0892   0685 DB 53       L0097:  IN A,(53H)
0893   0687 E6 04               AND 04H
0894   0689 28 FA               JR Z,L0097
0895   068B 7E                  LD A,(HL)
0896   068C D3 52               OUT (52H),A
0897   068E 23                  INC HL
0898   068F 10 F4               DJNZ L0097
0899   0691 0D                  DEC C
0900   0692 20 F1               JR NZ,L0097
0901   0694 3E D0       L0100:  LD A,0D0H
0902   0696 D3 53               OUT (53H),A
0903   0698 DB 53       L0102:  IN A,(53H)
0904   069A CB 77               BIT 6,A
0905   069C 3E 10               LD A,10H
0906   069E D3 53               OUT (53H),A
0907   06A0 28 F6               JR Z,L0102
0908   06A2 AF                  XOR A
0909   06A3 D3 52               OUT (52H),A
0910   06A5 DB 53       L0103:  IN A,(53H)
0911   06A7 CB 57               BIT 2,A
0912   06A9 28 FA               JR Z,L0103
0913   06AB AF                  XOR A
0914   06AC D3 52               OUT (52H),A
0915   06AE DB 53       L0104:  IN A,(53H)
0916   06B0 CB 57               BIT 2,A
0917   06B2 28 FA               JR Z,L0104
0918   06B4 3E 05               LD A,05H
0919   06B6 D3 53               OUT (53H),A
0920   06B8 3E 66               LD A,66H
0921   06BA D3 53               OUT (53H),A
0922   06BC 21 22 00            LD HL,0022H
0923   06BF 2B          L0105:  DEC HL
0924   06C0 7C                  LD A,H
0925   06C1 B5                  OR L
0926   06C2 20 FB               JR NZ,L0105
0927   06C4 FD CB 09 EE         SET 5,(IY+09H)
0928   06C8 3E 02               LD A,02H
0929   06CA 32 5C 61            LD (615CH),A
0930   06CD 3E 05               LD A,05H
0931   06CF D3 51               OUT (51H),A
0932   06D1 3A 5E 61            LD A,(615EH)
0933   06D4 F6 68               OR 68H
0934   06D6 D3 51               OUT (51H),A
0935   06D8 C3 73 05            JP L0106
0936   06DB 21 F0 06    L0039:  LD HL,06F0H
0937   06DE 01 53 08            LD BC,0853H
0938   06E1 ED B3               OTIR
0939   06E3 01 51 02            LD BC,0251H
0940   06E6 3A 5E 61            LD A,(615EH)
0941   06E9 F6 68               OR 68H
0942   06EB ED B3               OTIR
0943   06ED D3 51               OUT (51H),A
0944   06EF C9                  RET
0945   06F0 04                  INC B
0946   06F1 10 06               DJNZ L0107
0947   06F3 FA 07 96            JP M,L0108
0948   06F6 03                  INC BC
0949   06F7 C0                  RET NZ
0950   06F8 10 05               DJNZ L0008
0951   06FA 00                  NOP
0952   06FB 00                  NOP
0953   06FC 00                  NOP
0954   06FD FA 96 CD            JP M,L0109
0955   0700 B3                  OR E
0956   0701 0E CD               LD C,0CDH
0957   0703 D7                  RST 10H
0958   0704 0E 21               LD C,21H
0959   0706 76                  HALT
0960   0707 07                  RLCA
0961   0708 01 51 07            LD BC,0751H
0962   070B ED B3               OTIR
0963   070D 3E 7F       L0117:  LD A,7FH
0964   070F D3 88               OUT (88H),A
0965   0711 11 16 08            LD DE,0816H
0966   0714 CD D5 0F            CALL L0012
0967   0717 DB 58       L0111:  IN A,(58H)
0968   0719 CB 77               BIT 6,A
0969   071B 28 2F               JR Z,L0110
0970   071D CB 6F               BIT 5,A
0971   071F 20 F6               JR NZ,L0111
0972   0721 11 31 08    L0119:  LD DE,0831H
0973   0724 CD D5 0F            CALL L0012
0974   0727 3E 03               LD A,03H
0975   0729 32 D1 68            LD (68D1H),A
0976   072C CD 06 08            CALL L0112
0977   072F DB 58       L0115:  IN A,(58H)
0978   0731 CB 77               BIT 6,A
0979   0733 28 0D               JR Z,L0113
0980   0735 CB 6F               BIT 5,A
0981   0737 28 0E               JR Z,L0114
0982   0739 CB 67               BIT 4,A
0983   073B 20 F2               JR NZ,L0115
0984   073D CD 98 07            CALL L0116
0985   0740 18 CB               JR L0117
0986   0742 CD 8B 07    L0113:  CALL L0118
0987   0745 18 DA               JR L0119
0988   0747 CD 7D 07    L0114:  CALL L0120
0989   074A 18 D5               JR L0119
0990   074C 11 54 08    L0110:  LD DE,0854H
0991   074F CD D5 0F            CALL L0012
0992   0752 AF                  XOR A
0993   0753 32 D1 68            LD (68D1H),A
0994   0756 CD 06 08            CALL L0112
0995   0759 DB 58       L0123:  IN A,(58H)
0996   075B CB 77               BIT 6,A
0997   075D 28 0D               JR Z,L0121
0998   075F CB 6F               BIT 5,A
0999   0761 28 0E               JR Z,L0122
1000   0763 CB 67               BIT 4,A
1001   0765 20 F2               JR NZ,L0123
1002   0767 CD 98 07            CALL L0116
1003   076A 18 A1               JR L0117
1004   076C CD 8B 07    L0121:  CALL L0118
1005   076F 18 DB               JR L0110
1006   0771 CD 7D 07    L0122:  CALL L0120
1007   0774 18 D6               JR L0110
1008   0776 18 04               JR L0124
1009   0778 CC 05 68            CALL Z,L0125
1010   077B 03                  INC BC
1011   077C C1          L0124:  POP BC
1012   077D CD D5 07    L0120:  CALL L0126
1013   0780 CD 6D 09            CALL L0127
1014   0783 F5                  PUSH AF
1015   0784 DC D7 0E            CALL C,L0128
1016   0787 F1                  POP AF
1017   0788 C3 A6 07            JP L0129
1018   078B CD D5 07    L0118:  CALL L0126
1019   078E CD 0F 0B            CALL L0130
1020   0791 F5                  PUSH AF
1021   0792 DC B3 0E            CALL C,L0131
1022   0795 F1                  POP AF
1023   0796 18 0E               JR L0129
1024   0798 11 B2 08    L0116:  LD DE,08B2H
1025   079B CD D5 0F            CALL L0012
1026   079E CD 58 0F            CALL L0132
1027   07A1 20 03               JR NZ,L0129
1028   07A3 CD 64 0F            CALL L0133
1029   07A6 F5          L0129:  PUSH AF
1030   07A7 CD 06 08            CALL L0112
1031   07AA F1                  POP AF
1032   07AB 21 C1 07            LD HL,07C1H
1033   07AE 87                  ADD A,A
1034   07AF 5F                  LD E,A
1035   07B0 16 00               LD D,00H
1036   07B2 19                  ADD HL,DE
1037   07B3 5E                  LD E,(HL)
1038   07B4 23                  INC HL
1039   07B5 56                  LD D,(HL)
1040   07B6 CD D5 0F            CALL L0012
1041   07B9 CD E8 07            CALL L0134
1042   07BC 3E 7F               LD A,7FH
1043   07BE D3 88               OUT (88H),A
1044   07C0 C9                  RET
1045   07C1 D1                  POP DE
1046   07C2 08                  EX AF,AF'
1047   07C3 DC 08 E6            CALL C,L0135
1048   07C6 08                  EX AF,AF'
1049   07C7 F7                  RST 30H
1050   07C8 08                  EX AF,AF'
1051   07C9 08                  EX AF,AF'
1052   07CA 09                  ADD HL,BC
1053   07CB 08                  EX AF,AF'
1054   07CC 09                  ADD HL,BC
1055   07CD 0A                  LD A,(BC)
1056   07CE 09                  ADD HL,BC
1057   07CF 1B                  DEC DE
1058   07D0 09                  ADD HL,BC
1059   07D1 2D                  DEC L
1060   07D2 09                  ADD HL,BC
1061   07D3 3F                  CCF
1062   07D4 09                  ADD HL,BC
1063   07D5 FD 21 D1 68 L0126:  LD IY,68D1H
1064   07D9 11 77 08            LD DE,0877H
1065   07DC FD CB 00 4E         BIT 1,(IY+00H)
1066   07E0 28 03               JR Z,L0136
1067   07E2 11 87 08            LD DE,0887H
1068   07E5 CD D5 0F    L0136:  CALL L0012
1069   07E8 11 98 08    L0134:  LD DE,0898H
1070   07EB CD D5 0F            CALL L0012
1071   07EE 3E 7D               LD A,7DH
1072   07F0 D3 88               OUT (88H),A
1073   07F2 DB 58       L0137:  IN A,(58H)
1074   07F4 CB 7F               BIT 7,A
1075   07F6 20 FA               JR NZ,L0137
1076   07F8 11 A5 08            LD DE,08A5H
1077   07FB CD D5 0F            CALL L0012
1078   07FE 3E 7E               LD A,7EH
1079   0800 D3 88               OUT (88H),A
1080   0802 FD 7E 00            LD A,(IY+00H)
1081   0805 C9                  RET
1082   0806 DB 58       L0112:  IN A,(58H)
1083   0808 F6 07               OR 07H
1084   080A 3C                  INC A
1085   080B 20 F9               JR NZ,L0112
1086   080D 21 14 32            LD HL,3214H
1087   0810 2B          L0138:  DEC HL
1088   0811 7C                  LD A,H
1089   0812 B5                  OR L
1090   0813 20 FB               JR NZ,L0138
1091   0815 C9                  RET
1092   0816 10 31               DJNZ L0139
1093   0818 20 3D               JR NZ,L0140
1094   081A 20 43               JR NZ,L0141
1095   081C 61                  LD H,C
1096   081D 73                  LD (HL),E
1097   081E 73                  LD (HL),E
1098   081F 65                  LD H,L
1099   0820 74                  LD (HL),H
1100   0821 74                  LD (HL),H
1101   0822 65                  LD H,L
1102   0823 90                  SUB B
1103   0824 32 20 3D            LD (3D20H),A
1104   0827 20 4D               JR NZ,L0142
1105   0829 69                  LD L,C
1106   082A 64                  LD H,H
1107   082B 69                  LD L,C
1108   082C 44                  LD B,H
1109   082D 69                  LD L,C
1110   082E 73                  LD (HL),E
1111   082F 6B                  LD L,E
1112   0830 FE 10               CP 10H
1113   0832 4D                  LD C,L
1114   0833 69                  LD L,C
1115   0834 64                  LD H,H
1116   0835 69                  LD L,C
1117   0836 44                  LD B,H
1118   0837 69                  LD L,C
1119   0838 73                  LD (HL),E
1120   0839 6B                  LD L,E
1121   083A 3A 20 31            LD A,(3120H)
1122   083D 3D                  DEC A
1123   083E 53                  LD D,E
1124   083F 65                  LD H,L
1125   0840 71                  LD (HL),C
1126   0841 73                  LD (HL),E
1127   0842 90                  SUB B
1128   0843 32 3D 53            LD (533DH),A
1129   0846 6E                  LD L,(HL)
1130   0847 64                  LD H,H
1131   0848 73                  LD (HL),E
1132   0849 20 33       L0139:  JR NZ,L0143
1133   084B 3D                  DEC A
1134   084C 4D                  LD C,L
1135   084D 61                  LD H,C
1136   084E 6B                  LD L,E
1137   084F 65                  LD H,L
1138   0850 44                  LD B,H
1139   0851 73          L0151:  LD (HL),E
1140   0852 6B                  LD L,E
1141   0853 FE 10               CP 10H
1142   0855 43                  LD B,E
1143   0856 61                  LD H,C
1144   0857 73          L0140:  LD (HL),E
1145   0858 73                  LD (HL),E
1146   0859 65                  LD H,L
1147   085A 74                  LD (HL),H
1148   085B 74                  LD (HL),H
1149   085C 65                  LD H,L
1150   085D 3A 20 31            LD A,(3120H)
1151   0860 3D                  DEC A
1152   0861 53                  LD D,E
1153   0862 65                  LD H,L
1154   0863 71                  LD (HL),C
1155   0864 73                  LD (HL),E
1156   0865 90                  SUB B
1157   0866 32 3D 53            LD (533DH),A
1158   0869 6E                  LD L,(HL)
1159   086A 64                  LD H,H
1160   086B 73                  LD (HL),E
1161   086C 20 33               JR NZ,L0144
1162   086E 3D                  DEC A
1163   086F 4D                  LD C,L
1164   0870 61                  LD H,C
1165   0871 6B                  LD L,E
1166   0872 65                  LD H,L
1167   0873 44                  LD B,H
1168   0874 73                  LD (HL),E
1169   0875 6B                  LD L,E
1170   0876 FE 10       L0142:  CP 10H
1171   0878 53                  LD D,E
1172   0879 74                  LD (HL),H
1173   087A 61                  LD H,C
1174   087B 72                  LD (HL),D
1175   087C 74                  LD (HL),H
1176   087D 20 43               JR NZ,L0145
1177   087F 61                  LD H,C
1178   0880 73                  LD (HL),E
1179   0881 73                  LD (HL),E
1180   0882 65                  LD H,L
1181   0883 74                  LD (HL),H
1182   0884 74                  LD (HL),H
1183   0885 65                  LD H,L
1184   0886 FE 10               CP 10H
1185   0888 49                  LD C,C
1186   0889 6E                  LD L,(HL)
1187   088A 73                  LD (HL),E
1188   088B 65                  LD H,L
1189   088C 72                  LD (HL),D
1190   088D 74                  LD (HL),H
1191   088E 20 4D               JR NZ,L0146
1192   0890 69                  LD L,C
1193   0891 64                  LD H,H
1194   0892 69                  LD L,C
1195   0893 44                  LD B,H
1196   0894 69                  LD L,C
1197   0895 73                  LD (HL),E
1198   0896 6B                  LD L,E
1199   0897 FE 90               CP 90H
1200   0899 50                  LD D,B
1201   089A 72                  LD (HL),D
1202   089B 65                  LD H,L
1203   089C 73                  LD (HL),E
1204   089D 73                  LD (HL),E
1205   089E 20 45               JR NZ,L0147
1206   08A0 6E                  LD L,(HL)
1207   08A1 74          L0144:  LD (HL),H
1208   08A2 65                  LD H,L
1209   08A3 72                  LD (HL),D
1210   08A4 FE 10               CP 10H
1211   08A6 90                  SUB B
1212   08A7 4E                  LD C,(HL)
1213   08A8 4F                  LD C,A
1214   08A9 20 3D               JR NZ,L0148
1215   08AB 20 41               JR NZ,L0149
1216   08AD 62                  LD H,D
1217   08AE 6F                  LD L,A
1218   08AF 72                  LD (HL),D
1219   08B0 74                  LD (HL),H
1220   08B1 FE 10               CP 10H
1221   08B3 53                  LD D,E
1222   08B4 61                  LD H,C
1223   08B5 76                  HALT
1224   08B6 69                  LD L,C
1225   08B7 6E                  LD L,(HL)
1226   08B8 67                  LD H,A
1227   08B9 20 53               JR NZ,L0150
1228   08BB 50                  LD D,B
1229   08BC 31 32 30            LD SP,3032H
1230   08BF 30 90               JR NC,L0151
1231   08C1 53                  LD D,E
1232   08C2 65          L0145:  LD H,L
1233   08C3 71                  LD (HL),C
1234   08C4 73                  LD (HL),E
1235   08C5 20 61               JR NZ,L0152
1236   08C7 6E                  LD L,(HL)
1237   08C8 64                  LD H,H
1238   08C9 20 53               JR NZ,L0153
1239   08CB 6F                  LD L,A
1240   08CC 75                  LD (HL),L
1241   08CD 6E                  LD L,(HL)
1242   08CE 64                  LD H,H
1243   08CF 73                  LD (HL),E
1244   08D0 FE 10               CP 10H
1245   08D2 84                  ADD A,H
1246   08D3 43                  LD B,E
1247   08D4 6F                  LD L,A
1248   08D5 6D                  LD L,L
1249   08D6 70                  LD (HL),B
1250   08D7 6C                  LD L,H
1251   08D8 65                  LD H,L
1252   08D9 74                  LD (HL),H
1253   08DA 65                  LD H,L
1254   08DB FE 10               CP 10H
1255   08DD 84          L0146:  ADD A,H
1256   08DE 41                  LD B,C
1257   08DF 62                  LD H,D
1258   08E0 6F                  LD L,A
1259   08E1 72                  LD (HL),D
1260   08E2 74                  LD (HL),H
1261   08E3 65                  LD H,L
1262   08E4 64                  LD H,H
1263   08E5 FE 10       L0147:  CP 10H
1264   08E7 44                  LD B,H
1265   08E8 61          L0148:  LD H,C
1266   08E9 74                  LD (HL),H
1267   08EA 61                  LD H,C
1268   08EB 20 52               JR NZ,L0154
1269   08ED 65                  LD H,L
1270   08EE 61          L0149:  LD H,C
1271   08EF 64                  LD H,H
1272   08F0 20 45               JR NZ,L0155
1273   08F2 72                  LD (HL),D
1274   08F3 72                  LD (HL),D
1275   08F4 6F                  LD L,A
1276   08F5 72                  LD (HL),D
1277   08F6 FE 10               CP 10H
1278   08F8 57                  LD D,A
1279   08F9 72                  LD (HL),D
1280   08FA 6F                  LD L,A
1281   08FB 6E                  LD L,(HL)
1282   08FC 67                  LD H,A
1283   08FD 20 46               JR NZ,L0156
1284   08FF 69                  LD L,C
1285   0900 6C                  LD L,H
1286   0901 65                  LD H,L
1287   0902 20 54               JR NZ,L0157
1288   0904 79                  LD A,C
1289   0905 70                  LD (HL),B
1290   0906 65                  LD H,L
1291   0907 FE 10               CP 10H
1292   0909 FE 10               CP 10H
1293   090B 57                  LD D,A
1294   090C 72                  LD (HL),D
1295   090D 69                  LD L,C
1296   090E 74          L0150:  LD (HL),H
1297   090F 65                  LD H,L
1298   0910 20 50               JR NZ,L0158
1299   0912 72                  LD (HL),D
1300   0913 6F          L0380:  LD L,A
1301   0914 74                  LD (HL),H
1302   0915 65                  LD H,L
1303   0916 63                  LD H,E
1304   0917 74                  LD (HL),H
1305   0918 65                  LD H,L
1306   0919 64                  LD H,H
1307   091A FE 10               CP 10H
1308   091C 44                  LD B,H
1309   091D 69                  LD L,C
1310   091E 73          L0153:  LD (HL),E
1311   091F 6B                  LD L,E
1312   0920 20 52               JR NZ,L0159
1313   0922 64                  LD H,H
1314   0923 2F                  CPL
1315   0924 56                  LD D,(HL)
1316   0925 65                  LD H,L
1317   0926 72                  LD (HL),D
1318   0927 45                  LD B,L
1319   0928 72          L0152:  LD (HL),D
1320   0929 72                  LD (HL),D
1321   092A 6F                  LD L,A
1322   092B 72                  LD (HL),D
1323   092C FE 10               CP 10H
1324   092E 4E                  LD C,(HL)
1325   092F 6F                  LD L,A
1326   0930 44                  LD B,H
1327   0931 69                  LD L,C
1328   0932 73                  LD (HL),E
1329   0933 6B                  LD L,E
1330   0934 20 43               JR NZ,L0160
1331   0936 6F                  LD L,A
1332   0937 6E          L0155:  LD L,(HL)
1333   0938 6E                  LD L,(HL)
1334   0939 65                  LD H,L
1335   093A 63                  LD H,E
1336   093B 74                  LD (HL),H
1337   093C 65                  LD H,L
1338   093D 64                  LD H,H
1339   093E FE 10               CP 10H
1340   0940 44                  LD B,H
1341   0941 72                  LD (HL),D
1342   0942 69                  LD L,C
1343   0943 76                  HALT
1344   0944 65                  LD H,L
1345   0945 20 4E       L0156:  JR NZ,L0161
1346   0947 6F                  LD L,A
1347   0948 74                  LD (HL),H
1348   0949 20 52               JR NZ,L0162
1349   094B 65                  LD H,L
1350   094C 61                  LD H,C
1351   094D 64                  LD H,H
1352   094E 79                  LD A,C
1353   094F FE FD               CP 0FDH
1354   0951 CB 00               RLC B
1355   0953 4E                  LD C,(HL)
1356   0954 C2 38 0D            JP NZ,L0163
1357   0957 C3 E6 0B            JP L0164
1358   095A FD CB 00 4E         BIT 1,(IY+00H)
1359   095E C2 2A 0D            JP NZ,L0165
1360   0961 C3 49 0C            JP L0166
1361   0964 FD CB 00 4E         BIT 1,(IY+00H)
1362   0968 C2 20 0D            JP NZ,L0167
1363   096B AF                  XOR A
1364   096C C9                  RET
1365   096D CD 5A 09    L0127:  CALL L0168
1366   0970 A7                  AND A
1367   0971 C0                  RET NZ
1368   0972 21 00 00            LD HL,0000H
1369   0975 11 01 00            LD DE,0001H
1370   0978 06 00               LD B,00H
1371   097A CD 50 09            CALL L0169
1372   097D A7                  AND A
1373   097E C0                  RET NZ
1374   097F 3A 20 69            LD A,(6920H)
1375   0982 FE 18               CP 18H
1376   0984 3E 03               LD A,03H
1377   0986 28 02               JR Z,L0170
1378   0988 BF                  CP A
1379   0989 C9                  RET
1380   098A 3E FF       L0170:  LD A,0FFH
1381   098C 32 7C 6C            LD (6C7CH),A
1382   098F 21 21 69            LD HL,6921H
1383   0992 11 F0 6B            LD DE,6BF0H
1384   0995 01 FF 00    L0161:  LD BC,00FFH
1385   0998 CD 5B 0A            CALL L0171
1386   099B 06 03               LD B,03H
1387   099D C5          L0162:  PUSH BC
1388   099E D5                  PUSH DE
1389   099F 21 00 00            LD HL,0000H
1390   09A2 11 01 00            LD DE,0001H
1391   09A5 06 00               LD B,00H
1392   09A7 CD 50 09            CALL L0169
1393   09AA D1                  POP DE
1394   09AB C1                  POP BC
1395   09AC D8                  RET C
1396   09AD C5                  PUSH BC
1397   09AE 05                  DEC B
1398   09AF 01 00 01            LD BC,0100H
1399   09B2 20 03               JR NZ,L0172
1400   09B4 01 0F 00            LD BC,000FH
1401   09B7 21 20 69    L0172:  LD HL,6920H
1402   09BA CD 5B 0A            CALL L0171
1403   09BD C1                  POP BC
1404   09BE 10 DD               DJNZ L0162
1405   09C0 21 00 00            LD HL,0000H
1406   09C3 22 D7 68            LD (68D7H),HL
1407   09C6 2A 7A 6C            LD HL,(6C7AH)
1408   09C9 CD DD 0A            CALL L0173
1409   09CC 3E 07               LD A,07H
1410   09CE 32 D6 68            LD (68D6H),A
1411   09D1 7C                  LD A,H
1412   09D2 B5                  OR L
1413   09D3 20 05               JR NZ,L0174
1414   09D5 3E 06               LD A,06H
1415   09D7 32 D6 68            LD (68D6H),A
1416   09DA 22 D9 68    L0174:  LD (68D9H),HL
1417   09DD E5                  PUSH HL
1418   09DE 2A 78 6C            LD HL,(6C78H)
1419   09E1 CD DD 0A            CALL L0173
1420   09E4 D1                  POP DE
1421   09E5 19                  ADD HL,DE
1422   09E6 7C                  LD A,H
1423   09E7 B5                  OR L
1424   09E8 C8                  RET Z
1425   09E9 EB                  EX DE,HL
1426   09EA 21 00 00            LD HL,0000H
1427   09ED 06 00               LD B,00H
1428   09EF DD 21 7D 0A         LD IX,0A7DH
1429   09F3 CD 50 09            CALL L0169
1430   09F6 D8                  RET C
1431   09F7 CD 7D 0A            CALL L0175
1432   09FA F5                  PUSH AF
1433   09FB 21 00 00            LD HL,0000H
1434   09FE 22 74 6C            LD (6C74H),HL
1435   0A01 22 76 6C            LD (6C76H),HL
1436   0A04 DD 21 7E 6C         LD IX,6C7EH
1437   0A08 01 0A 00            LD BC,000AH
1438   0A0B 21 F0 6B            LD HL,6BF0H
1439   0A0E 11 04 00            LD DE,0004H
1440   0A11 3E 20               LD A,20H
1441   0A13 DD CB 01 56 L0178:  BIT 2,(IX+01H)
1442   0A17 20 35               JR NZ,L0176
1443   0A19 36 00               LD (HL),00H
1444   0A1B 23                  INC HL
1445   0A1C 36 00               LD (HL),00H
1446   0A1E 23                  INC HL
1447   0A1F 36 00               LD (HL),00H
1448   0A21 23                  INC HL
1449   0A22 36 00               LD (HL),00H
1450   0A24 DD 36 01 80         LD (IX+01H),80H
1451   0A28 DD 36 00 17         LD (IX+00H),17H
1452   0A2C DD 36 02 00         LD (IX+02H),00H
1453   0A30 DD 36 03 00         LD (IX+03H),00H
1454   0A34 DD 36 04 FD         LD (IX+04H),0FDH
1455   0A38 DD 36 05 FF         LD (IX+05H),0FFH
1456   0A3C DD 36 06 00         LD (IX+06H),00H
1457   0A40 DD 36 07 00         LD (IX+07H),00H
1458   0A44 DD 36 08 FD         LD (IX+08H),0FDH
1459   0A48 DD 36 09 FF         LD (IX+09H),0FFH
1460   0A4C 18 03               JR L0177
1461   0A4E 23          L0176:  INC HL
1462   0A4F 23                  INC HL
1463   0A50 23                  INC HL
1464   0A51 23          L0177:  INC HL
1465   0A52 DD 09               ADD IX,BC
1466   0A54 3D                  DEC A
1467   0A55 20 BC               JR NZ,L0178
1468   0A57 F1                  POP AF
1469   0A58 C3 64 09            JP L0179
1470   0A5B ED B0       L0171:  LDIR
1471   0A5D C9                  RET
1472   0A5E CD F3 0A            CALL L0180
1473   0A61 06 00               LD B,00H
1474   0A63 18 05               JR L0181
1475   0A65 C5                  PUSH BC
1476   0A66 CD F3 0A            CALL L0180
1477   0A69 C1                  POP BC
1478   0A6A 21 20 69    L0181:  LD HL,6920H
1479   0A6D 3A DD 68            LD A,(68DDH)
1480   0A70 A7                  AND A
1481   0A71 28 12               JR Z,L0182
1482   0A73 23          L0183:  INC HL
1483   0A74 05                  DEC B
1484   0A75 3D                  DEC A
1485   0A76 20 FB               JR NZ,L0183
1486   0A78 32 DD 68            LD (68DDH),A
1487   0A7B 18 08               JR L0182
1488   0A7D CD F3 0A    L0175:  CALL L0180
1489   0A80 06 00               LD B,00H
1490   0A82 21 20 69            LD HL,6920H
1491   0A85 ED 5B D7 68 L0182:  LD DE,(68D7H)
1492   0A89 0E 41               LD C,41H
1493   0A8B FD CB 00 6E         BIT 5,(IY+00H)
1494   0A8F 20 23               JR NZ,L0184
1495   0A91 CB 43               BIT 0,E
1496   0A93 20 0B               JR NZ,L0185
1497   0A95 7B          L0188:  LD A,E
1498   0A96 D3 98               OUT (98H),A
1499   0A98 7A                  LD A,D
1500   0A99 D3 9C               OUT (9CH),A
1501   0A9B ED A3               OUTI
1502   0A9D 13                  INC DE
1503   0A9E 28 22               JR Z,L0186
1504   0AA0 7B          L0185:  LD A,E
1505   0AA1 D3 98               OUT (98H),A
1506   0AA3 7A                  LD A,D
1507   0AA4 D3 9C               OUT (9CH),A
1508   0AA6 ED A3               OUTI
1509   0AA8 28 12               JR Z,L0187
1510   0AAA 13          L0189:  INC DE
1511   0AAB 0D                  DEC C
1512   0AAC ED A3               OUTI
1513   0AAE 28 12               JR Z,L0186
1514   0AB0 0C                  INC C
1515   0AB1 C3 95 0A            JP L0188
1516   0AB4 7B          L0184:  LD A,E
1517   0AB5 D3 98               OUT (98H),A
1518   0AB7 7A                  LD A,D
1519   0AB8 D3 9C               OUT (9CH),A
1520   0ABA 18 EE               JR L0189
1521   0ABC FD CB 00 EE L0187:  SET 5,(IY+00H)
1522   0AC0 18 04               JR L0190
1523   0AC2 FD CB 00 AE L0186:  RES 5,(IY+00H)
1524   0AC6 ED 53 D7 68 L0190:  LD (68D7H),DE
1525   0ACA 2A D9 68            LD HL,(68D9H)
1526   0ACD 2B                  DEC HL
1527   0ACE 22 D9 68            LD (68D9H),HL
1528   0AD1 7C                  LD A,H
1529   0AD2 B5                  OR L
1530   0AD3 C0                  RET NZ
1531   0AD4 3E 06               LD A,06H
1532   0AD6 32 D6 68            LD (68D6H),A
1533   0AD9 22 D7 68            LD (68D7H),HL
1534   0ADC C9                  RET
1535   0ADD 7C          L0173:  LD A,H
1536   0ADE B5                  OR L
1537   0ADF C8                  RET Z
1538   0AE0 2B                  DEC HL
1539   0AE1 6C                  LD L,H
1540   0AE2 26 00               LD H,00H
1541   0AE4 23                  INC HL
1542   0AE5 CB 45               BIT 0,L
1543   0AE7 28 01               JR Z,L0191
1544   0AE9 23                  INC HL
1545   0AEA 7C          L0191:  LD A,H
1546   0AEB 1F                  RRA
1547   0AEC 7D                  LD A,L
1548   0AED 1F                  RRA
1549   0AEE 85                  ADD A,L
1550   0AEF 6F                  LD L,A
1551   0AF0 D0                  RET NC
1552   0AF1 24                  INC H
1553   0AF2 C9                  RET
1554   0AF3 01 80 08    L0180:  LD BC,0880H
1555   0AF6 26 04               LD H,04H
1556   0AF8 3A D6 68            LD A,(68D6H)
1557   0AFB 6F                  LD L,A
1558   0AFC ED 69       L0192:  OUT (C),L
1559   0AFE 7C                  LD A,H
1560   0AFF D3 94               OUT (94H),A
1561   0B01 C6 08               ADD A,08H
1562   0B03 67                  LD H,A
1563   0B04 AF                  XOR A
1564   0B05 D3 9C               OUT (9CH),A
1565   0B07 0C                  INC C
1566   0B08 10 F2               DJNZ L0192
1567   0B0A 3E 07               LD A,07H
1568   0B0C D3 94               OUT (94H),A
1569   0B0E C9                  RET
1570   0B0F CD 5A 09    L0130:  CALL L0168
1571   0B12 A7                  AND A
1572   0B13 C0                  RET NZ
1573   0B14 21 00 00            LD HL,0000H
1574   0B17 11 01 00            LD DE,0001H
1575   0B1A 06 00               LD B,00H
1576   0B1C CD 50 09            CALL L0169
1577   0B1F A7                  AND A
1578   0B20 C0                  RET NZ
1579   0B21 3A 20 69            LD A,(6920H)
1580   0B24 FE 17               CP 17H
1581   0B26 3E 03               LD A,03H
1582   0B28 C2 A7 0B            JP NZ,L0193
1583   0B2B ED 5B 21 69         LD DE,(6921H)
1584   0B2F 2A FE 6E            LD HL,(6EFEH)
1585   0B32 A7                  AND A
1586   0B33 ED 52               SBC HL,DE
1587   0B35 7C                  LD A,H
1588   0B36 32 D6 68            LD (68D6H),A
1589   0B39 2A 21 69            LD HL,(6921H)
1590   0B3C ED 5B 25 69         LD DE,(6925H)
1591   0B40 A7                  AND A
1592   0B41 ED 52               SBC HL,DE
1593   0B43 44                  LD B,H
1594   0B44 4D                  LD C,L
1595   0B45 2A FE 6E            LD HL,(6EFEH)
1596   0B48 A7                  AND A
1597   0B49 ED 42               SBC HL,BC
1598   0B4B 22 02 6F            LD (6F02H),HL
1599   0B4E 23                  INC HL
1600   0B4F 22 DB 68            LD (68DBH),HL
1601   0B52 2A 23 69            LD HL,(6923H)
1602   0B55 22 00 6F            LD (6F00H),HL
1603   0B58 11 04 6F            LD DE,6F04H
1604   0B5B A7                  AND A
1605   0B5C ED 52               SBC HL,DE
1606   0B5E 44                  LD B,H
1607   0B5F 4D                  LD C,L
1608   0B60 21 27 69            LD HL,6927H
1609   0B63 3E F9               LD A,0F9H
1610   0B65 CD D1 0B            CALL L0194
1611   0B68 2A FE 6E            LD HL,(6EFEH)
1612   0B6B ED 5B DB 68         LD DE,(68DBH)
1613   0B6F 23                  INC HL
1614   0B70 A7                  AND A
1615   0B71 ED 52               SBC HL,DE
1616   0B73 09                  ADD HL,BC
1617   0B74 45                  LD B,L
1618   0B75 5C                  LD E,H
1619   0B76 78                  LD A,B
1620   0B77 A7                  AND A
1621   0B78 28 01               JR Z,L0195
1622   0B7A 1C                  INC E
1623   0B7B 16 00       L0195:  LD D,00H
1624   0B7D C5                  PUSH BC
1625   0B7E 21 00 00            LD HL,0000H
1626   0B81 DD 21 C3 0B         LD IX,0BC3H
1627   0B85 CD 50 09            CALL L0169
1628   0B88 C1                  POP BC
1629   0B89 D8                  RET C
1630   0B8A CD C5 0B            CALL L0196
1631   0B8D 3A D6 68            LD A,(68D6H)
1632   0B90 A7                  AND A
1633   0B91 28 11               JR Z,L0197
1634   0B93 4F                  LD C,A
1635   0B94 06 64               LD B,64H
1636   0B96 21 CC 6F            LD HL,6FCCH
1637   0B99 7E          L0199:  LD A,(HL)
1638   0B9A 23                  INC HL
1639   0B9B B6                  OR (HL)
1640   0B9C 28 03               JR Z,L0198
1641   0B9E 7E                  LD A,(HL)
1642   0B9F 81                  ADD A,C
1643   0BA0 77                  LD (HL),A
1644   0BA1 23          L0198:  INC HL
1645   0BA2 10 F5               DJNZ L0199
1646   0BA4 C3 64 09    L0197:  JP L0179
1647   0BA7 F5          L0193:  PUSH AF
1648   0BA8 CD 64 09            CALL L0179
1649   0BAB F1                  POP AF
1650   0BAC A7                  AND A
1651   0BAD C9                  RET
1652   0BAE 06 00               LD B,00H
1653   0BB0 21 20 69            LD HL,6920H
1654   0BB3 3A DD 68            LD A,(68DDH)
1655   0BB6 A7                  AND A
1656   0BB7 28 0F               JR Z,L0200
1657   0BB9 23          L0201:  INC HL
1658   0BBA 05                  DEC B
1659   0BBB 3D                  DEC A
1660   0BBC 20 FB               JR NZ,L0201
1661   0BBE 32 DD 68            LD (68DDH),A
1662   0BC1 18 05               JR L0200
1663   0BC3 06 00               LD B,00H
1664   0BC5 21 20 69    L0196:  LD HL,6920H
1665   0BC8 ED 5B D7 68 L0200:  LD DE,(68D7H)
1666   0BCC 78                  LD A,B
1667   0BCD ED 4B D9 68         LD BC,(68D9H)
1668   0BD1 ED A0       L0194:  LDI
1669   0BD3 EA DA 0B            JP PE,L0202
1670   0BD6 ED 5B DB 68         LD DE,(68DBH)
1671   0BDA 3D          L0202:  DEC A
1672   0BDB 20 F4               JR NZ,L0194
1673   0BDD ED 53 D7 68         LD (68D7H),DE
1674   0BE1 ED 43 D9 68         LD (68D9H),BC
1675   0BE5 C9                  RET
1676   0BE6 C5          L0164:  PUSH BC
1677   0BE7 EB                  EX DE,HL
1678   0BE8 37                  SCF
1679   0BE9 ED 52               SBC HL,DE
1680   0BEB EB                  EX DE,HL
1681   0BEC D8                  RET C
1682   0BED 13                  INC DE
1683   0BEE 7C          L0206:  LD A,H
1684   0BEF B5                  OR L
1685   0BF0 28 0C               JR Z,L0203
1686   0BF2 2B                  DEC HL
1687   0BF3 06 00               LD B,00H
1688   0BF5 E5                  PUSH HL
1689   0BF6 CD 23 0C            CALL L0204
1690   0BF9 E1                  POP HL
1691   0BFA 38 10               JR C,L0205
1692   0BFC 18 F0               JR L0206
1693   0BFE 1B          L0203:  DEC DE
1694   0BFF 7A                  LD A,D
1695   0C00 E6 7F               AND 7FH
1696   0C02 B3                  OR E
1697   0C03 28 15               JR Z,L0207
1698   0C05 06 00               LD B,00H
1699   0C07 CD 23 0C            CALL L0204
1700   0C0A 30 02               JR NC,L0208
1701   0C0C C1          L0205:  POP BC
1702   0C0D C9                  RET
1703   0C0E D5          L0208:  PUSH DE
1704   0C0F B7                  OR A
1705   0C10 CB 7A               BIT 7,D
1706   0C12 CC 21 0C            CALL Z,L0209
1707   0C15 D1                  POP DE
1708   0C16 38 F4               JR C,L0205
1709   0C18 18 E4               JR L0203
1710   0C1A C1          L0207:  POP BC
1711   0C1B CD 23 0C            CALL L0204
1712   0C1E D8                  RET C
1713   0C1F AF                  XOR A
1714   0C20 C9                  RET
1715   0C21 DD E9       L0209:  JP (IX)
1716   0C23 21 20 69    L0204:  LD HL,6920H
1717   0C26 CD 33 0C    L0211:  CALL L0210
1718   0C29 D8                  RET C
1719   0C2A 77                  LD (HL),A
1720   0C2B 23                  INC HL
1721   0C2C 10 F8               DJNZ L0211
1722   0C2E C9                  RET
1723   0C2F CD 93 0C    L0213:  CALL L0212
1724   0C32 D8                  RET C
1725   0C33 DB 53       L0210:  IN A,(53H)
1726   0C35 E6 01               AND 01H
1727   0C37 28 F6               JR Z,L0213
1728   0C39 3E 01               LD A,01H
1729   0C3B D3 53               OUT (53H),A
1730   0C3D DB 53               IN A,(53H)
1731   0C3F E6 10               AND 10H
1732   0C41 3E 02               LD A,02H
1733   0C43 37                  SCF
1734   0C44 C0                  RET NZ
1735   0C45 DB 52               IN A,(52H)
1736   0C47 A7                  AND A
1737   0C48 C9                  RET
1738   0C49 11 9C 0C    L0166:  LD DE,0C9CH
1739   0C4C CD D5 0F            CALL L0012
1740   0C4F CD 68 0C            CALL L0214
1741   0C52 CD 93 0C    L0215:  CALL L0212
1742   0C55 D8                  RET C
1743   0C56 3E 10               LD A,10H
1744   0C58 D3 53               OUT (53H),A
1745   0C5A DB 53               IN A,(53H)
1746   0C5C E6 10               AND 10H
1747   0C5E 20 F2               JR NZ,L0215
1748   0C60 11 AE 0C            LD DE,0CAEH
1749   0C63 CD D5 0F            CALL L0012
1750   0C66 AF                  XOR A
1751   0C67 C9                  RET
1752   0C68 3E 03       L0214:  LD A,03H
1753   0C6A D3 49               OUT (49H),A
1754   0C6C D3 4A               OUT (4AH),A
1755   0C6E 3E 07               LD A,07H
1756   0C70 D3 4A               OUT (4AH),A
1757   0C72 3E 2B               LD A,2BH
1758   0C74 D3 4A               OUT (4AH),A
1759   0C76 21 89 0C            LD HL,0C89H
1760   0C79 01 53 0A            LD BC,0A53H
1761   0C7C ED B3               OTIR
1762   0C7E 06 04               LD B,04H
1763   0C80 DB 52       L0216:  IN A,(52H)
1764   0C82 10 FC               DJNZ L0216
1765   0C84 3E 30               LD A,30H
1766   0C86 D3 53               OUT (53H),A
1767   0C88 C9                  RET
1768   0C89 04                  INC B
1769   0C8A 11 06 9D            LD DE,9D06H
1770   0C8D 07                  RLCA
1771   0C8E 65                  LD H,L
1772   0C8F 05                  DEC B
1773   0C90 E0                  RET PO
1774   0C91 03                  INC BC
1775   0C92 D1                  POP DE
1776   0C93 DB 58       L0212:  IN A,(58H)
1777   0C95 E6 20               AND 20H
1778   0C97 C0                  RET NZ
1779   0C98 3E 01               LD A,01H
1780   0C9A 37                  SCF
1781   0C9B C9                  RET
1782   0C9C 80                  ADD A,B
1783   0C9D 57                  LD D,A
1784   0C9E 61                  LD H,C
1785   0C9F 69                  LD L,C
1786   0CA0 74                  LD (HL),H
1787   0CA1 69                  LD L,C
1788   0CA2 6E                  LD L,(HL)
1789   0CA3 67                  LD H,A
1790   0CA4 20 66               JR NZ,L0217
1791   0CA6 6F                  LD L,A
1792   0CA7 72                  LD (HL),D
1793   0CA8 20 53               JR NZ,L0218
1794   0CAA 79                  LD A,C
1795   0CAB 6E                  LD L,(HL)
1796   0CAC 63                  LD H,E
1797   0CAD FE 80               CP 80H
1798   0CAF 52                  LD D,D
1799   0CB0 65                  LD H,L
1800   0CB1 61                  LD H,C
1801   0CB2 64                  LD H,H
1802   0CB3 69                  LD L,C
1803   0CB4 6E                  LD L,(HL)
1804   0CB5 67                  LD H,A
1805   0CB6 20 74               JR NZ,L0219
1806   0CB8 68                  LD L,B
1807   0CB9 65                  LD H,L
1808   0CBA 20 54               JR NZ,L0220
1809   0CBC 61                  LD H,C
1810   0CBD 70                  LD (HL),B
1811   0CBE 65                  LD H,L
1812   0CBF FE CD               CP 0CDH
1813   0CC1 CD 0C F5            CALL L0221
1814   0CC4 CD CD 0C            CALL L0222
1815   0CC7 FE F7               CP 0F7H
1816   0CC9 20 F9               JR NZ,L0223
1817   0CCB F1                  POP AF
1818   0CCC C9                  RET
1819   0CCD CD 48 0E    L0222:  CALL L0224
1820   0CD0 D8                  RET C
1821   0CD1 CD D6 0C            CALL L0225
1822   0CD4 18 F7               JR L0222
1823   0CD6 DB 58       L0225:  IN A,(58H)
1824   0CD8 E6 20               AND 20H
1825   0CDA C0                  RET NZ
1826   0CDB 3E 01               LD A,01H
1827   0CDD F5          L0230:  PUSH AF
1828   0CDE CD 20 0D            CALL L0167
1829   0CE1 F1                  POP AF
1830   0CE2 37                  SCF
1831   0CE3 DD F9               LD SP,IX
1832   0CE5 C9                  RET
1833   0CE6 3E 00       L0236:  LD A,00H
1834   0CE8 CD 22 0D            CALL L0226
1835   0CEB CD 01 0D            CALL L0227
1836   0CEE CD C3 0C            CALL L0228
1837   0CF1 4F                  LD C,A
1838   0CF2 E6 BC               AND 0BCH
1839   0CF4 20 1C               JR NZ,L0229
1840   0CF6 CB 71               BIT 6,C
1841   0CF8 28 18               JR Z,L0229
1842   0CFA CB 41               BIT 0,C
1843   0CFC 3E 09               LD A,09H
1844   0CFE 28 DD               JR Z,L0230
1845   0D00 C9                  RET
1846   0D01 01 00 30    L0227:  LD BC,3000H
1847   0D04 C5          L0231:  PUSH BC
1848   0D05 CD 48 0E            CALL L0224
1849   0D08 C1                  POP BC
1850   0D09 D8                  RET C
1851   0D0A CD D6 0C            CALL L0225
1852   0D0D 0B                  DEC BC
1853   0D0E 78                  LD A,B
1854   0D0F B1                  OR C
1855   0D10 20 F2       L0220:  JR NZ,L0231
1856   0D12 3E 08       L0229:  LD A,08H
1857   0D14 18 C7               JR L0230
1858   0D16 CD C0 0C    L0247:  CALL L0232
1859   0D19 FE 20               CP 20H
1860   0D1B C8                  RET Z
1861   0D1C 3E 02               LD A,02H
1862   0D1E 18 BD               JR L0230
1863   0D20 3E 01       L0167:  LD A,01H
1864   0D22 CD 26 0E    L0226:  CALL L0233
1865   0D25 CD 3B 0E            CALL L0234
1866   0D28 AF                  XOR A
1867   0D29 C9                  RET
1868   0D2A CD 09 0E    L0165:  CALL L0235
1869   0D2D CD E6 0C            CALL L0236
1870   0D30 11 B3 0D            LD DE,0DB3H
1871   0D33 CD D5 0F            CALL L0012
1872   0D36 AF                  XOR A
1873   0D37 C9                  RET
1874   0D38 CD 0F 0E    L0163:  CALL L0237
1875   0D3B EB                  EX DE,HL
1876   0D3C 22 EF 68            LD (68EFH),HL
1877   0D3F CB BC               RES 7,H
1878   0D41 37                  SCF
1879   0D42 ED 52               SBC HL,DE
1880   0D44 23                  INC HL
1881   0D45 D8                  RET C
1882   0D46 EB                  EX DE,HL
1883   0D47 CD AA 0D            CALL L0238
1884   0D4A EB                  EX DE,HL
1885   0D4B CD 74 0D            CALL L0239
1886   0D4E E5                  PUSH HL
1887   0D4F 3E 04               LD A,04H
1888   0D51 CD 8D 0D            CALL L0240
1889   0D54 CD D0 0D            CALL L0241
1890   0D57 CD A7 0D            CALL L0242
1891   0D5A CD 1A 0E            CALL L0243
1892   0D5D 20 0D               JR NZ,L0244
1893   0D5F E1                  POP HL
1894   0D60 7C                  LD A,H
1895   0D61 B5                  OR L
1896   0D62 C8                  RET Z
1897   0D63 CD 74 0D            CALL L0239
1898   0D66 E5                  PUSH HL
1899   0D67 3E 04               LD A,04H
1900   0D69 CD 8D 0D            CALL L0240
1901   0D6C 21 54 0D    L0244:  LD HL,0D54H
1902   0D6F E5                  PUSH HL
1903   0D70 2A ED 68            LD HL,(68EDH)
1904   0D73 E9                  JP (HL)
1905   0D74 11 18 00    L0239:  LD DE,0018H
1906   0D77 B7                  OR A
1907   0D78 ED 52               SBC HL,DE
1908   0D7A 30 05               JR NC,L0245
1909   0D7C 19                  ADD HL,DE
1910   0D7D EB                  EX DE,HL
1911   0D7E 21 00 00            LD HL,0000H
1912   0D81 3A F0 68    L0245:  LD A,(68F0H)
1913   0D84 E6 80               AND 80H
1914   0D86 B2                  OR D
1915   0D87 57                  LD D,A
1916   0D88 ED 53 EF 68         LD (68EFH),DE
1917   0D8C C9                  RET
1918   0D8D CD 26 0E    L0240:  CALL L0233
1919   0D90 3A F2 68            LD A,(68F2H)
1920   0D93 CD 3D 0E            CALL L0246
1921   0D96 3A F1 68            LD A,(68F1H)
1922   0D99 CD 3D 0E            CALL L0246
1923   0D9C 7B                  LD A,E
1924   0D9D CD 3D 0E            CALL L0246
1925   0DA0 CD 3B 0E            CALL L0234
1926   0DA3 CD 16 0D            CALL L0247
1927   0DA6 C9                  RET
1928   0DA7 21 01 00    L0242:  LD HL,0001H
1929   0DAA ED 4B F1 68 L0238:  LD BC,(68F1H)
1930   0DAE 09                  ADD HL,BC
1931   0DAF 22 F1 68            LD (68F1H),HL
1932   0DB2 C9                  RET
1933   0DB3 10 52               DJNZ L0248
1934   0DB5 65                  LD H,L
1935   0DB6 61                  LD H,C
1936   0DB7 64                  LD H,H
1937   0DB8 69                  LD L,C
1938   0DB9 6E                  LD L,(HL)
1939   0DBA 67                  LD H,A
1940   0DBB 20 74               JR NZ,L0249
1941   0DBD 68                  LD L,B
1942   0DBE 65                  LD H,L
1943   0DBF 20 44               JR NZ,L0250
1944   0DC1 69                  LD L,C
1945   0DC2 73                  LD (HL),E
1946   0DC3 6B                  LD L,E
1947   0DC4 93                  SUB E
1948   0DC5 4E                  LD C,(HL)
1949   0DC6 4F                  LD C,A
1950   0DC7 20 3D               JR NZ,L0251
1951   0DC9 20 41               JR NZ,L0252
1952   0DCB 62                  LD H,D
1953   0DCC 6F                  LD L,A
1954   0DCD 72                  LD (HL),D
1955   0DCE 74                  LD (HL),H
1956   0DCF FE 21               CP 21H
1957   0DD1 20 69               JR NZ,L0253
1958   0DD3 E5                  PUSH HL
1959   0DD4 3E 05               LD A,05H
1960   0DD6 CD 22 0D            CALL L0226
1961   0DD9 CD FF 0D            CALL L0254
1962   0DDC E1                  POP HL
1963   0DDD 0E 00               LD C,00H
1964   0DDF 06 01       L0257:  LD B,01H
1965   0DE1 CD FF 0D            CALL L0254
1966   0DE4 EB          L0256:  EX DE,HL
1967   0DE5 67                  LD H,A
1968   0DE6 CD FF 0D            CALL L0254
1969   0DE9 6F                  LD L,A
1970   0DEA CB 15               RL L
1971   0DEC C5                  PUSH BC
1972   0DED 29          L0255:  ADD HL,HL
1973   0DEE 10 FD               DJNZ L0255
1974   0DF0 C1                  POP BC
1975   0DF1 EB                  EX DE,HL
1976   0DF2 72                  LD (HL),D
1977   0DF3 23                  INC HL
1978   0DF4 0D                  DEC C
1979   0DF5 CA C3 0C            JP Z,L0228
1980   0DF8 04                  INC B
1981   0DF9 CB 58               BIT 3,B
1982   0DFB 28 E7               JR Z,L0256
1983   0DFD 18 E0               JR L0257
1984   0DFF C5          L0254:  PUSH BC
1985   0E00 D5                  PUSH DE
1986   0E01 E5                  PUSH HL
1987   0E02 CD CD 0C            CALL L0222
1988   0E05 E1          L0250:  POP HL
1989   0E06 D1          L0251:  POP DE
1990   0E07 C1          L0248:  POP BC
1991   0E08 C9                  RET
1992   0E09 21 00 00    L0235:  LD HL,0000H
1993   0E0C 22 F1 68    L0252:  LD (68F1H),HL
1994   0E0F DD 22 ED 68 L0237:  LD (68EDH),IX
1995   0E13 DD 21 02 00         LD IX,0002H
1996   0E17 DD 39               ADD IX,SP
1997   0E19 C9                  RET
1998   0E1A 2A EF 68    L0243:  LD HL,(68EFH)
1999   0E1D 2B                  DEC HL
2000   0E1E 7C                  LD A,H
2001   0E1F E6 7F               AND 7FH
2002   0E21 B5                  OR L
2003   0E22 22 EF 68            LD (68EFH),HL
2004   0E25 C9                  RET
2005   0E26 F5          L0233:  PUSH AF
2006   0E27 3E F0               LD A,0F0H
2007   0E29 CD 3D 0E            CALL L0246
2008   0E2C 3E 18               LD A,18H
2009   0E2E CD 3D 0E            CALL L0246
2010   0E31 3E 01       L0249:  LD A,01H
2011   0E33 CD 3D 0E            CALL L0246
2012   0E36 F1                  POP AF
2013   0E37 CD 3D 0E            CALL L0246
2014   0E3A C9                  RET
2015   0E3B 3E F7       L0234:  LD A,0F7H
2016   0E3D 4F                  LD C,A
2017   0E3E DB 51               IN A,(51H)
2018   0E40 CB 57               BIT 2,A
2019   0E42 28 FA               JR Z,L0258
2020   0E44 79                  LD A,C
2021   0E45 D3 50               OUT (50H),A
2022   0E47 C9                  RET
2023   0E48 DB 51       L0224:  IN A,(51H)
2024   0E4A E6 01               AND 01H
2025   0E4C C8                  RET Z
2026   0E4D DB 50               IN A,(50H)
2027   0E4F B7                  OR A
2028   0E50 FA 5F 0E            JP M,L0259
2029   0E53 47          L0261:  LD B,A
2030   0E54 3A 0E 69            LD A,(690EH)
2031   0E57 FE 03               CP 03H
2032   0E59 78                  LD A,B
2033   0E5A 37                  SCF
2034   0E5B C8                  RET Z
2035   0E5C B7                  OR A
2036   0E5D 37                  SCF
2037   0E5E F8                  RET M
2038   0E5F F5          L0259:  PUSH AF
2039   0E60 DD E5               PUSH IX
2040   0E62 FD E5               PUSH IY
2041   0E64 CD 72 0E            CALL L0260
2042   0E67 FD E1               POP IY
2043   0E69 DD E1               POP IX
2044   0E6B F1                  POP AF
2045   0E6C FE F7               CP 0F7H
2046   0E6E 28 E3               JR Z,L0261
2047   0E70 B7                  OR A
2048   0E71 C9                  RET
2049   0E72 B7          L0260:  OR A
2050   0E73 F2 82 0E            JP P,L0262
2051   0E76 FE F8               CP 0F8H
2052   0E78 C8                  RET Z
2053   0E79 D0                  RET NC
2054   0E7A 32 A9 68            LD (68A9H),A
2055   0E7D AF                  XOR A
2056   0E7E 32 0E 69            LD (690EH),A
2057   0E81 C9                  RET
2058   0E82 47          L0262:  LD B,A
2059   0E83 3A A9 68            LD A,(68A9H)
2060   0E86 4F                  LD C,A
2061   0E87 FE F0               CP 0F0H
2062   0E89 C0                  RET NZ
2063   0E8A 3A 0E 69            LD A,(690EH)
2064   0E8D FE 02               CP 02H
2065   0E8F D0                  RET NC
2066   0E90 CD 9F 0E            CALL L0263
2067   0E93 EB                  EX DE,HL
2068   0E94 36 02               LD (HL),02H
2069   0E96 FE 01               CP 01H
2070   0E98 C0                  RET NZ
2071   0E99 78                  LD A,B
2072   0E9A FE 18               CP 18H
2073   0E9C C0                  RET NZ
2074   0E9D 34                  INC (HL)
2075   0E9E C9                  RET
2076   0E9F 21 0F 69    L0263:  LD HL,690FH
2077   0EA2 11 0E 69            LD DE,690EH
2078   0EA5 1A                  LD A,(DE)
2079   0EA6 B7                  OR A
2080   0EA7 20 05               JR NZ,L0264
2081   0EA9 3C                  INC A
2082   0EAA 12                  LD (DE),A
2083   0EAB 70                  LD (HL),B
2084   0EAC E1                  POP HL
2085   0EAD C9                  RET
2086   0EAE AF          L0264:  XOR A
2087   0EAF 12                  LD (DE),A
2088   0EB0 78                  LD A,B
2089   0EB1 46                  LD B,(HL)
2090   0EB2 C9                  RET
2091   0EB3 06 C8       L0131:  LD B,0C8H
2092   0EB5 21 04 6F            LD HL,6F04H
2093   0EB8 36 00       L0265:  LD (HL),00H
2094   0EBA 23                  INC HL
2095   0EBB 10 FB               DJNZ L0265
2096   0EBD 06 C8               LD B,0C8H
2097   0EBF 21 CC 6F            LD HL,6FCCH
2098   0EC2 36 00       L0266:  LD (HL),00H
2099   0EC4 23                  INC HL
2100   0EC5 10 FB               DJNZ L0266
2101   0EC7 21 94 71            LD HL,7194H
2102   0ECA 22 00 6F            LD (6F00H),HL
2103   0ECD 21 FF FF            LD HL,0FFFFH
2104   0ED0 22 02 6F            LD (6F02H),HL
2105   0ED3 22 FE 6E            LD (6EFEH),HL
2106   0ED6 C9                  RET
2107   0ED7 21 F0 6B    L0128:  LD HL,6BF0H
2108   0EDA 11 7F 6C            LD DE,6C7FH
2109   0EDD 01 8C 00            LD BC,008CH
2110   0EE0 36 00               LD (HL),00H
2111   0EE2 ED B0               LDIR
2112   0EE4 3E FF               LD A,0FFH
2113   0EE6 32 7C 6C            LD (6C7CH),A
2114   0EE9 3E 1F               LD A,1FH
2115   0EEB 32 7D 6C            LD (6C7DH),A
2116   0EEE 21 4E 0F            LD HL,0F4EH
2117   0EF1 11 7E 6C            LD DE,6C7EH
2118   0EF4 01 0A 00            LD BC,000AH
2119   0EF7 ED B0               LDIR
2120   0EF9 21 7E 6C            LD HL,6C7EH
2121   0EFC 01 36 01            LD BC,0136H
2122   0EFF ED B0               LDIR
2123   0F01 06 04               LD B,04H
2124   0F03 21 0A 00    L0269:  LD HL,000AH
2125   0F06 78                  LD A,B
2126   0F07 3D                  DEC A
2127   0F08 CB 4F               BIT 1,A
2128   0F0A 28 02               JR Z,L0267
2129   0F0C CB D7               SET 2,A
2130   0F0E 32 D6 68    L0267:  LD (68D6H),A
2131   0F11 E5                  PUSH HL
2132   0F12 C5                  PUSH BC
2133   0F13 CD F3 0A            CALL L0180
2134   0F16 C1                  POP BC
2135   0F17 E1                  POP HL
2136   0F18 7D          L0268:  LD A,L
2137   0F19 D3 98               OUT (98H),A
2138   0F1B 7C                  LD A,H
2139   0F1C D3 9C               OUT (9CH),A
2140   0F1E 3E 80               LD A,80H
2141   0F20 D3 41               OUT (41H),A
2142   0F22 AF                  XOR A
2143   0F23 D3 40               OUT (40H),A
2144   0F25 2B                  DEC HL
2145   0F26 7C                  LD A,H
2146   0F27 B5                  OR L
2147   0F28 20 EE               JR NZ,L0268
2148   0F2A 10 D7               DJNZ L0269
2149   0F2C 21 30 6B            LD HL,6B30H
2150   0F2F 3E 20               LD A,20H
2151   0F31 06 04               LD B,04H
2152   0F33 16 C4               LD D,0C4H
2153   0F35 0E 08       L0271:  LD C,08H
2154   0F37 1E B1               LD E,0B1H
2155   0F39 72          L0270:  LD (HL),D
2156   0F3A 23                  INC HL
2157   0F3B 73                  LD (HL),E
2158   0F3C 23                  INC HL
2159   0F3D 36 A0               LD (HL),0A0H
2160   0F3F 23                  INC HL
2161   0F40 77                  LD (HL),A
2162   0F41 23                  INC HL
2163   0F42 77                  LD (HL),A
2164   0F43 23                  INC HL
2165   0F44 77                  LD (HL),A
2166   0F45 23                  INC HL
2167   0F46 1C                  INC E
2168   0F47 0D                  DEC C
2169   0F48 20 EF               JR NZ,L0270
2170   0F4A 15                  DEC D
2171   0F4B 10 E8               DJNZ L0271
2172   0F4D C9                  RET
2173   0F4E 17                  RLA
2174   0F4F 80                  ADD A,B
2175   0F50 00                  NOP
2176   0F51 00                  NOP
2177   0F52 FD                  .DB 0FDH ;FD NOP
2178   0F53 FF                  RST 38H
2179   0F54 00                  NOP
2180   0F55 00                  NOP
2181   0F56 FD                  .DB 0FDH ;FD NOP
2182   0F57 FF                  RST 38H
2183   0F58 21 B4 0F    L0132:  LD HL,0FB4H
2184   0F5B CD A8 0F            CALL L0272
2185   0F5E CD AE 01            CALL L0007
2186   0F61 C3 97 0F            JP L0273
2187   0F64 21 BF 0F    L0133:  LD HL,0FBFH
2188   0F67 CD A8 0F            CALL L0272
2189   0F6A CD AE 01            CALL L0007
2190   0F6D 20 28               JR NZ,L0273
2191   0F6F 21 CA 0F            LD HL,0FCAH
2192   0F72 CD A8 0F            CALL L0272
2193   0F75 06 04               LD B,04H
2194   0F77 C5          L0275:  PUSH BC
2195   0F78 CD AE 01            CALL L0007
2196   0F7B C1                  POP BC
2197   0F7C 20 19               JR NZ,L0273
2198   0F7E FD 7E 03            LD A,(IY+03H)
2199   0F81 3C                  INC A
2200   0F82 FE 82               CP 82H
2201   0F84 20 02               JR NZ,L0274
2202   0F86 3E 86               LD A,86H
2203   0F88 FD 77 03    L0274:  LD (IY+03H),A
2204   0F8B FD 7E 0A            LD A,(IY+0AH)
2205   0F8E C6 1C               ADD A,1CH
2206   0F90 FD 77 0A            LD (IY+0AH),A
2207   0F93 10 E2               DJNZ L0275
2208   0F95 3E 80               LD A,80H
2209   0F97 D6 80       L0273:  SUB 80H
2210   0F99 C8                  RET Z
2211   0F9A C6 C3               ADD A,0C3H
2212   0F9C FE 06               CP 06H
2213   0F9E C8                  RET Z
2214   0F9F C6 04               ADD A,04H
2215   0FA1 FE 09               CP 09H
2216   0FA3 C8                  RET Z
2217   0FA4 3E 07               LD A,07H
2218   0FA6 37                  SCF
2219   0FA7 C9                  RET
2220   0FA8 11 7B 61    L0272:  LD DE,617BH
2221   0FAB D5                  PUSH DE
2222   0FAC FD E1               POP IY
2223   0FAE 01 0B 00            LD BC,000BH
2224   0FB1 ED B0               LDIR
2225   0FB3 C9                  RET
2226   0FB4 0E 00               LD C,00H
2227   0FB6 6F                  LD L,A
2228   0FB7 00                  NOP
2229   0FB8 00                  NOP
2230   0FB9 9A                  SBC A,D
2231   0FBA 00                  NOP
2232   0FBB 00                  NOP
2233   0FBC 00                  NOP
2234   0FBD 00                  NOP
2235   0FBE 0C                  INC C
2236   0FBF 0E 30               LD C,30H
2237   0FC1 6B                  LD L,E
2238   0FC2 00                  NOP
2239   0FC3 00                  NOP
2240   0FC4 0E 00               LD C,00H
2241   0FC6 00                  NOP
2242   0FC7 00                  NOP
2243   0FC8 00                  NOP
2244   0FC9 17                  RLA
2245   0FCA 0E 00               LD C,00H
2246   0FCC 00                  NOP
2247   0FCD 80                  ADD A,B
2248   0FCE 00                  NOP
2249   0FCF 00                  NOP
2250   0FD0 01 00 00            LD BC,0000H
2251   0FD3 00                  NOP
2252   0FD4 18 1A               JR L0276
2253   0FD6 13                  INC DE
2254   0FD7 FE FE               CP 0FEH
2255   0FD9 C8                  RET Z
2256   0FDA 47                  LD B,A
2257   0FDB E6 60               AND 60H
2258   0FDD 78                  LD A,B
2259   0FDE 20 05               JR NZ,L0277
2260   0FE0 CD EA 0F            CALL L0278
2261   0FE3 18 F0               JR L0012
2262   0FE5 CD 71 10    L0277:  CALL L0279
2263   0FE8 18 EB               JR L0012
2264   0FEA FE 10       L0278:  CP 10H
2265   0FEC 28 75               JR Z,L0280
2266   0FEE FE 17               CP 17H
2267   0FF0 28 16       L0276:  JR Z,L0281
2268   0FF2 FE 18               CP 18H
2269   0FF4 28 17               JR Z,L0282
2270   0FF6 FE 19               CP 19H
2271   0FF8 28 23               JR Z,L0283
2272   0FFA FE 15               CP 15H
2273   0FFC 28 4A               JR Z,L0284
2274   0FFE FE 90               CP 90H
2275   1000 38 63               JR C,L0285
2276   1002 E6 0F               AND 0FH
2277   1004 F6 C0               OR 0C0H
2278   1006 18 5D               JR L0285
2279   1008 CD 40 10    L0281:  CALL L0286
2280   100B 18 62               JR L0287
2281   100D CD 40 10    L0282:  CALL L0286
2282   1010 2E 0A               LD L,0AH
2283   1012 CD 38 10            CALL L0288
2284   1015 F5                  PUSH AF
2285   1016 78                  LD A,B
2286   1017 CD 6F 10            CALL L0287
2287   101A F1                  POP AF
2288   101B 18 52               JR L0287
2289   101D CD 40 10    L0283:  CALL L0286
2290   1020 2E 64               LD L,64H
2291   1022 CD 38 10            CALL L0288
2292   1025 F5                  PUSH AF
2293   1026 78                  LD A,B
2294   1027 CD 6F 10            CALL L0287
2295   102A F1                  POP AF
2296   102B 2E 0A               LD L,0AH
2297   102D CD 38 10            CALL L0288
2298   1030 F5                  PUSH AF
2299   1031 78                  LD A,B
2300   1032 CD 6F 10            CALL L0287
2301   1035 F1                  POP AF
2302   1036 18 37               JR L0287
2303   1038 06 FF       L0288:  LD B,0FFH
2304   103A 04          L0289:  INC B
2305   103B 95                  SUB L
2306   103C 30 FC               JR NC,L0289
2307   103E 85                  ADD A,L
2308   103F C9                  RET
2309   1040 EB          L0286:  EX DE,HL
2310   1041 5E                  LD E,(HL)
2311   1042 23                  INC HL
2312   1043 56                  LD D,(HL)
2313   1044 23                  INC HL
2314   1045 EB                  EX DE,HL
2315   1046 7E                  LD A,(HL)
2316   1047 C9                  RET
2317   1048 FD E5       L0284:  PUSH IY
2318   104A E1                  POP HL
2319   104B 7C                  LD A,H
2320   104C CD 50 10            CALL L0290
2321   104F 7D                  LD A,L
2322   1050 F5          L0290:  PUSH AF
2323   1051 0F                  RRCA
2324   1052 0F                  RRCA
2325   1053 0F                  RRCA
2326   1054 0F                  RRCA
2327   1055 CD 59 10            CALL L0291
2328   1058 F1                  POP AF
2329   1059 E6 0F       L0291:  AND 0FH
2330   105B FE 0A               CP 0AH
2331   105D 38 02               JR C,L0292
2332   105F C6 07               ADD A,07H
2333   1061 18 0C       L0292:  JR L0287
2334   1063 3E 01       L0280:  LD A,01H
2335   1065 0E A2       L0285:  LD C,0A2H
2336   1067 ED 70       L0293:  IN (C)
2337   1069 FA 67 10            JP M,L0293
2338   106C D3 A0               OUT (0A0H),A
2339   106E C9                  RET
2340   106F C6 30       L0287:  ADD A,30H
2341   1071 0E A2       L0279:  LD C,0A2H
2342   1073 ED 70       L0294:  IN (C)
2343   1075 FA 73 10            JP M,L0294
2344   1078 D3 A1               OUT (0A1H),A
2345   107A C9                  RET
2346   107B CD A1 10    L0009:  CALL L0295
2347   107E CD 36 11            CALL L0296
2348   1081 CD 8E 11            CALL L0297
2349   1084 CD 06 13    L0307:  CALL L0298
2350   1087 CD 4A 15            CALL L0299
2351   108A CD 9C 15            CALL L0300
2352   108D CD E0 15            CALL L0301
2353   1090 CD 4B 16            CALL L0302
2354   1093 CD AB 16            CALL L0303
2355   1096 CD 47 17            CALL L0304
2356   1099 CD 93 18            CALL L0305
2357   109C CD 20 19    L0328:  CALL L0306
2358   109F 18 E3               JR L0307
2359   10A1 11 F1 10    L0295:  LD DE,10F1H
2360   10A4 CD D5 0F            CALL L0012
2361   10A7 DD E1               POP IX
2362   10A9 06 01               LD B,01H
2363   10AB 21 00 20    L0311:  LD HL,2000H
2364   10AE 48                  LD C,B
2365   10AF 71          L0308:  LD (HL),C
2366   10B0 23                  INC HL
2367   10B1 CB 11               RL C
2368   10B3 7C                  LD A,H
2369   10B4 B5                  OR L
2370   10B5 20 F8               JR NZ,L0308
2371   10B7 21 00 20            LD HL,2000H
2372   10BA 48                  LD C,B
2373   10BB 7E          L0310:  LD A,(HL)
2374   10BC A9                  XOR C
2375   10BD 20 14               JR NZ,L0309
2376   10BF 23                  INC HL
2377   10C0 CB 11               RL C
2378   10C2 7C                  LD A,H
2379   10C3 B5                  OR L
2380   10C4 20 F5               JR NZ,L0310
2381   10C6 3E 2E               LD A,2EH
2382   10C8 D3 A1               OUT (0A1H),A
2383   10CA CB 10               RL B
2384   10CC 30 DD               JR NC,L0311
2385   10CE 11 22 11            LD DE,1122H
2386   10D1 18 10               JR L0312
2387   10D3 E6 0F       L0309:  AND 0FH
2388   10D5 3E 20               LD A,20H
2389   10D7 28 04               JR Z,L0313
2390   10D9 3C                  INC A
2391   10DA E5                  PUSH HL
2392   10DB FD E1               POP IY
2393   10DD 32 61 68    L0313:  LD (6861H),A
2394   10E0 11 07 11            LD DE,1107H
2395   10E3 CD D5 0F    L0312:  CALL L0012
2396   10E6 3E 7D               LD A,7DH
2397   10E8 D3 88               OUT (88H),A
2398   10EA CD 56 15    L0315:  CALL L0314
2399   10ED 28 FB               JR Z,L0315
2400   10EF DD E9               JP (IX)
2401   10F1 10 52               DJNZ L0316
2402   10F3 41                  LD B,C
2403   10F4 4D                  LD C,L
2404   10F5 20 74               JR NZ,L0317
2405   10F7 65                  LD H,L
2406   10F8 73                  LD (HL),E
2407   10F9 74                  LD (HL),H
2408   10FA 20 69               JR NZ,L0318
2409   10FC 6E                  LD L,(HL)
2410   10FD 90                  SUB B
2411   10FE 70                  LD (HL),B
2412   10FF 72                  LD (HL),D
2413   1100 6F                  LD L,A
2414   1101 67                  LD H,A
2415   1102 72                  LD (HL),D
2416   1103 65                  LD H,L
2417   1104 73                  LD (HL),E
2418   1105 73                  LD (HL),E
2419   1106 FE 10               CP 10H
2420   1108 52                  LD D,D
2421   1109 41                  LD B,C
2422   110A 4D                  LD C,L
2423   110B 20 65               JR NZ,L0319
2424   110D 72                  LD (HL),D
2425   110E 72                  LD (HL),D
2426   110F 6F                  LD L,A
2427   1110 72                  LD (HL),D
2428   1111 20 40               JR NZ,L0320
2429   1113 90                  SUB B
2430   1114 15                  DEC D
2431   1115 20 49               JR NZ,L0321
2432   1117 43                  LD B,E
2433   1118 31 18 61            LD SP,6118H
2434   111B 68                  LD L,B
2435   111C 20 42               JR NZ,L0321
2436   111E 61                  LD H,C
2437   111F 64                  LD H,H
2438   1120 3F                  CCF
2439   1121 FE 10               CP 10H
2440   1123 52                  LD D,D
2441   1124 41                  LD B,C
2442   1125 4D                  LD C,L
2443   1126 20 4F               JR NZ,L0322
2444   1128 4B                  LD C,E
2445   1129 90                  SUB B
2446   112A 50                  LD D,B
2447   112B 72                  LD (HL),D
2448   112C 65                  LD H,L
2449   112D 73                  LD (HL),E
2450   112E 73                  LD (HL),E
2451   112F 20 45               JR NZ,L0323
2452   1131 4E                  LD C,(HL)
2453   1132 54                  LD D,H
2454   1133 45                  LD B,L
2455   1134 52                  LD D,D
2456   1135 FE FD               CP 0FDH
2457   1137 21 00 00            LD HL,0000H
2458   113A 21 00 00            LD HL,0000H
2459   113D 16 00               LD D,00H
2460   113F 5E          L0324:  LD E,(HL)
2461   1140 23                  INC HL
2462   1141 FD 19               ADD IY,DE
2463   1143 7C                  LD A,H
2464   1144 FE 20               CP 20H
2465   1146 20 F7               JR NZ,L0324
2466   1148 11 6E 11            LD DE,116EH
2467   114B 3E 7F               LD A,7FH
2468   114D D3 88               OUT (88H),A
2469   114F 32 79 61            LD (6179H),A
2470   1152 CD D5 0F            CALL L0012
2471   1155 DB 58               IN A,(58H)
2472   1157 CB 77               BIT 6,A
2473   1159 C8                  RET Z
2474   115A CB 6F               BIT 5,A
2475   115C 20 F7               JR NZ,L0325
2476   115E CD 70 15            CALL L0326
2477   1161 DB 58               IN A,(58H)
2478   1163 CB 6F               BIT 5,A
2479   1165 28 FA       L0318:  JR Z,L0327
2480   1167 CD 70 15            CALL L0326
2481   116A F1                  POP AF
2482   116B C3 9C 10    L0317:  JP L0328
2483   116E 10 52               DJNZ L0329
2484   1170 4F                  LD C,A
2485   1171 4D                  LD C,L
2486   1172 20 43       L0319:  JR NZ,L0330
2487   1174 6B                  LD L,E
2488   1175 73                  LD (HL),E
2489   1176 75          L0323:  LD (HL),L
2490   1177 6D          L0322:  LD L,L
2491   1178 20 3D               JR NZ,L0330
2492   117A 20 15               JR NZ,L0331
2493   117C 90                  SUB B
2494   117D 31 3D 53            LD SP,533DH
2495   1180 6E                  LD L,(HL)
2496   1181 64                  LD H,H
2497   1182 20 52               JR NZ,L0332
2498   1184 41                  LD B,C
2499   1185 4D                  LD C,L
2500   1186 20 32               JR NZ,L0333
2501   1188 3D                  DEC A
2502   1189 44                  LD B,H
2503   118A 69                  LD L,C
2504   118B 73                  LD (HL),E
2505   118C 6B                  LD L,E
2506   118D FE 11               CP 11H
2507   118F AC                  XOR H
2508   1190 12                  LD (DE),A
2509   1191 CD D5 0F    L0331:  CALL L0012
2510   1194 AF                  XOR A
2511   1195 CD BF 11            CALL L0334
2512   1198 38 18               JR C,L0335
2513   119A 3E 01               LD A,01H
2514   119C CD BF 11            CALL L0334
2515   119F 38 11               JR C,L0335
2516   11A1 3E 06               LD A,06H
2517   11A3 CD BF 11            CALL L0334
2518   11A6 38 0A               JR C,L0335
2519   11A8 3E 07               LD A,07H
2520   11AA CD BF 11            CALL L0334
2521   11AD 38 03               JR C,L0335
2522   11AF 11 C6 12            LD DE,12C6H
2523   11B2 CD D5 0F    L0335:  CALL L0012
2524   11B5 3E 7D               LD A,7DH
2525   11B7 D3 88       L0330:  OUT (88H),A
2526   11B9 CD 56 15    L0336:  CALL L0314
2527   11BC 28 FB               JR Z,L0336
2528   11BE C9                  RET
2529   11BF 32 62 68    L0334:  LD (6862H),A
2530   11C2 CD 64 01    L0329:  CALL L0004
2531   11C5 21 00 00            LD HL,0000H
2532   11C8 2B          L0337:  DEC HL
2533   11C9 3E 07               LD A,07H
2534   11CB D3 94               OUT (94H),A
2535   11CD 7D                  LD A,L
2536   11CE D3 98               OUT (98H),A
2537   11D0 7C                  LD A,H
2538   11D1 D3 9C               OUT (9CH),A
2539   11D3 7D                  LD A,L
2540   11D4 0F                  RRCA
2541   11D5 9F                  SBC A,A
2542   11D6 D3 41       L0332:  OUT (41H),A
2543   11D8 7D                  LD A,L
2544   11D9 0F                  RRCA
2545   11DA 0F                  RRCA
2546   11DB 9F                  SBC A,A
2547   11DC D3 40               OUT (40H),A
2548   11DE 7C                  LD A,H
2549   11DF B5                  OR L
2550   11E0 C2 C8 11            JP NZ,L0337
2551   11E3 3E 2E               LD A,2EH
2552   11E5 D3 A1               OUT (0A1H),A
2553   11E7 11 00 01            LD DE,0100H
2554   11EA 21 00 00    L0344:  LD HL,0000H
2555   11ED 2B          L0343:  DEC HL
2556   11EE 3E 07               LD A,07H
2557   11F0 D3 94               OUT (94H),A
2558   11F2 7D                  LD A,L
2559   11F3 D3 98               OUT (98H),A
2560   11F5 7C                  LD A,H
2561   11F6 D3 9C               OUT (9CH),A
2562   11F8 CB 45               BIT 0,L
2563   11FA DB 41               IN A,(41H)
2564   11FC 28 01               JR Z,L0338
2565   11FE 2F                  CPL
2566   11FF AB          L0338:  XOR E
2567   1200 20 72               JR NZ,L0339
2568   1202 7D                  LD A,L
2569   1203 0F                  RRCA
2570   1204 9F                  SBC A,A
2571   1205 AA                  XOR D
2572   1206 D3 41               OUT (41H),A
2573   1208 CB 45               BIT 0,L
2574   120A 28 11               JR Z,L0340
2575   120C DB 40               IN A,(40H)
2576   120E CB 4D               BIT 1,L
2577   1210 28 01               JR Z,L0341
2578   1212 2F                  CPL
2579   1213 AB          L0341:  XOR E
2580   1214 20 63               JR NZ,L0342
2581   1216 7D                  LD A,L
2582   1217 0F                  RRCA
2583   1218 0F                  RRCA
2584   1219 9F                  SBC A,A
2585   121A AA                  XOR D
2586   121B D3 40               OUT (40H),A
2587   121D 7C          L0340:  LD A,H
2588   121E B5                  OR L
2589   121F C2 ED 11            JP NZ,L0343
2590   1222 5A                  LD E,D
2591   1223 CB 22               SLA D
2592   1225 7A                  LD A,D
2593   1226 B7                  OR A
2594   1227 20 C1               JR NZ,L0344
2595   1229 21 00 00            LD HL,0000H
2596   122C 01 00 00            LD BC,0000H
2597   122F 3E 07       L0345:  LD A,07H
2598   1231 D3 94               OUT (94H),A
2599   1233 7D                  LD A,L
2600   1234 D3 98               OUT (98H),A
2601   1236 7C                  LD A,H
2602   1237 D3 9C               OUT (9CH),A
2603   1239 AF                  XOR A
2604   123A D3 41               OUT (41H),A
2605   123C D3 40               OUT (40H),A
2606   123E ED A1               CPI
2607   1240 EA 2F 12            JP PE,L0345
2608   1243 3E 2E               LD A,2EH
2609   1245 D3 A1               OUT (0A1H),A
2610   1247 21 00 00            LD HL,0000H
2611   124A 01 00 00            LD BC,0000H
2612   124D 11 00 FF            LD DE,0FF00H
2613   1250 3E 07       L0347:  LD A,07H
2614   1252 D3 94               OUT (94H),A
2615   1254 7D                  LD A,L
2616   1255 D3 98               OUT (98H),A
2617   1257 0F                  RRCA
2618   1258 7C                  LD A,H
2619   1259 D3 9C               OUT (9CH),A
2620   125B 38 08               JR C,L0346
2621   125D DB 40               IN A,(40H)
2622   125F AB                  XOR E
2623   1260 20 17               JR NZ,L0342
2624   1262 7A                  LD A,D
2625   1263 D3 40               OUT (40H),A
2626   1265 DB 41       L0346:  IN A,(41H)
2627   1267 AB                  XOR E
2628   1268 20 0A       L0356:  JR NZ,L0339
2629   126A 7A                  LD A,D
2630   126B D3 41               OUT (41H),A
2631   126D ED A1               CPI
2632   126F EA 50 12            JP PE,L0347
2633   1272 AF                  XOR A
2634   1273 C9                  RET
2635   1274 01 A4 12    L0339:  LD BC,12A4H
2636   1277 18 03               JR L0348
2637   1279 01 9C 12    L0342:  LD BC,129CH
2638   127C E6 0F       L0348:  AND 0FH
2639   127E 20 01               JR NZ,L0349
2640   1280 03                  INC BC
2641   1281 E5          L0349:  PUSH HL
2642   1282 FD E1               POP IY
2643   1284 7D                  LD A,L
2644   1285 E6 01               AND 01H
2645   1287 07                  RLCA
2646   1288 6F                  LD L,A
2647   1289 3A 62 68            LD A,(6862H)
2648   128C E6 04               AND 04H
2649   128E B5                  OR L
2650   128F 6F                  LD L,A
2651   1290 26 00               LD H,00H
2652   1292 09                  ADD HL,BC
2653   1293 7E                  LD A,(HL)
2654   1294 32 63 68            LD (6863H),A
2655   1297 11 E4 12            LD DE,12E4H
2656   129A 37                  SCF
2657   129B C9                  RET
2658   129C 26 24               LD H,24H
2659   129E 26 24               LD H,24H
2660   12A0 27                  DAA
2661   12A1 25                  DEC H
2662   12A2 27                  DAA
2663   12A3 25                  DEC H
2664   12A4 2E 2F               LD L,2FH
2665   12A6 2C                  INC L
2666   12A7 2D                  DEC L
2667   12A8 2A 2B 28            LD HL,(282BH)
2668   12AB 29                  ADD HL,HL
2669   12AC 10 53               DJNZ L0350
2670   12AE 6E                  LD L,(HL)
2671   12AF 64                  LD H,H
2672   12B0 20 52               JR NZ,L0351
2673   12B2 41                  LD B,C
2674   12B3 4D                  LD C,L
2675   12B4 20 54               JR NZ,L0352
2676   12B6 65                  LD H,L
2677   12B7 73                  LD (HL),E
2678   12B8 74                  LD (HL),H
2679   12B9 20 69               JR NZ,L0353
2680   12BB 6E                  LD L,(HL)
2681   12BC 90                  SUB B
2682   12BD 50                  LD D,B
2683   12BE 72                  LD (HL),D
2684   12BF 6F                  LD L,A
2685   12C0 67                  LD H,A
2686   12C1 72                  LD (HL),D
2687   12C2 65                  LD H,L
2688   12C3 73                  LD (HL),E
2689   12C4 73                  LD (HL),E
2690   12C5 FE 10               CP 10H
2691   12C7 53                  LD D,E
2692   12C8 6F                  LD L,A
2693   12C9 75                  LD (HL),L
2694   12CA 6E                  LD L,(HL)
2695   12CB 64                  LD H,H
2696   12CC 20 4D               JR NZ,L0354
2697   12CE 65                  LD H,L
2698   12CF 6D                  LD L,L
2699   12D0 3A 20 4F            LD A,(4F20H)
2700   12D3 4B                  LD C,E
2701   12D4 20 20               JR NZ,L0355
2702   12D6 20 90               JR NZ,L0356
2703   12D8 50                  LD D,B
2704   12D9 72                  LD (HL),D
2705   12DA 65                  LD H,L
2706   12DB 73                  LD (HL),E
2707   12DC 73                  LD (HL),E
2708   12DD 20 45               JR NZ,L0353
2709   12DF 4E                  LD C,(HL)
2710   12E0 54                  LD D,H
2711   12E1 45                  LD B,L
2712   12E2 52                  LD D,D
2713   12E3 FE 10               CP 10H
2714   12E5 53                  LD D,E
2715   12E6 6E                  LD L,(HL)
2716   12E7 64                  LD H,H
2717   12E8 20 4D               JR NZ,L0357
2718   12EA 65                  LD H,L
2719   12EB 6D                  LD L,L
2720   12EC 20 45               JR NZ,L0358
2721   12EE 72                  LD (HL),D
2722   12EF 72                  LD (HL),D
2723   12F0 6F                  LD L,A
2724   12F1 72                  LD (HL),D
2725   12F2 20 40               JR NZ,L0359
2726   12F4 90                  SUB B
2727   12F5 17                  RLA
2728   12F6 62          L0355:  LD H,D
2729   12F7 68                  LD L,B
2730   12F8 15                  DEC D
2731   12F9 20 49               JR NZ,L0360
2732   12FB 43                  LD B,E
2733   12FC 31 18 63            LD SP,6318H
2734   12FF 68                  LD L,B
2735   1300 20 42               JR NZ,L0360
2736   1302 61                  LD H,C
2737   1303 64                  LD H,H
2738   1304 3F          L0351:  CCF
2739   1305 FE 11               CP 11H
2740   1307 74                  LD (HL),H
2741   1308 13                  INC DE
2742   1309 CD D5 0F            CALL L0012
2743   130C 0E 08               LD C,08H
2744   130E 3E 78               LD A,78H
2745   1310 0D                  DEC C
2746   1311 B1                  OR C
2747   1312 D3 88               OUT (88H),A
2748   1314 06 05               LD B,05H
2749   1316 DB 58               IN A,(58H)
2750   1318 17          L0362:  RLA
2751   1319 30 13               JR NC,L0361
2752   131B 10 FB       L0354:  DJNZ L0362
2753   131D 79                  LD A,C
2754   131E A7                  AND A
2755   131F 20 ED               JR NZ,L0363
2756   1321 DB 58               IN A,(58H)
2757   1323 1F                  RRA
2758   1324 30 08       L0353:  JR NC,L0361
2759   1326 05                  DEC B
2760   1327 1F                  RRA
2761   1328 30 04               JR NC,L0361
2762   132A 05                  DEC B
2763   132B 1F                  RRA
2764   132C 38 DE               JR C,L0364
2765   132E 78          L0361:  LD A,B
2766   132F A7                  AND A
2767   1330 21 E9 13            LD HL,13E9H
2768   1333 28 0C       L0358:  JR Z,L0365
2769   1335 CB 78               BIT 7,B
2770   1337 28 0C       L0357:  JR Z,L0366
2771   1339 CB 40               BIT 0,B
2772   133B 23                  INC HL
2773   133C 23                  INC HL
2774   133D 20 02               JR NZ,L0365
2775   133F 23                  INC HL
2776   1340 23                  INC HL
2777   1341 AF          L0365:  XOR A
2778   1342 F5                  PUSH AF
2779   1343 18 0E               JR L0367
2780   1345 3D                  DEC A
2781   1346 07                  RLCA
2782   1347 07                  RLCA
2783   1348 07                  RLCA
2784   1349 B1                  OR C
2785   134A F5                  PUSH AF
2786   134B 87                  ADD A,A
2787   134C 21 99 13            LD HL,1399H
2788   134F 4F                  LD C,A
2789   1350 06 00               LD B,00H
2790   1352 09                  ADD HL,BC
2791   1353 5E          L0367:  LD E,(HL)
2792   1354 23                  INC HL
2793   1355 56                  LD D,(HL)
2794   1356 D5                  PUSH DE
2795   1357 11 97 13            LD DE,1397H
2796   135A CD D5 0F            CALL L0012
2797   135D D1                  POP DE
2798   135E CD D5 0F            CALL L0012
2799   1361 21 00 32    L0369:  LD HL,3200H
2800   1364 2B          L0368:  DEC HL
2801   1365 7C                  LD A,H
2802   1366 B5                  OR L
2803   1367 20 FB               JR NZ,L0368
2804   1369 DB 58               IN A,(58H)
2805   136B 3C                  INC A
2806   136C 20 F3               JR NZ,L0369
2807   136E F1                  POP AF
2808   136F FE 25               CP 25H
2809   1371 20 93               JR NZ,L0298
2810   1373 C9                  RET
2811   1374 10 42               DJNZ L0370
2812   1376 75                  LD (HL),L
2813   1377 74                  LD (HL),H
2814   1378 74                  LD (HL),H
2815   1379 6F                  LD L,A
2816   137A 6E                  LD L,(HL)
2817   137B 73                  LD (HL),E
2818   137C 20 52               JR NZ,L0371
2819   137E 65                  LD H,L
2820   137F 6C                  LD L,H
2821   1380 65                  LD H,L
2822   1381 61                  LD H,C
2823   1382 73                  LD (HL),E
2824   1383 65                  LD H,L
2825   1384 64                  LD H,H
2826   1385 90                  SUB B
2827   1386 45                  LD B,L
2828   1387 4E                  LD C,(HL)
2829   1388 54                  LD D,H
2830   1389 45                  LD B,L
2831   138A 52                  LD D,D
2832   138B 20 65               JR NZ,L0372
2833   138D 78                  LD A,B
2834   138E 69                  LD L,C
2835   138F 74                  LD (HL),H
2836   1390 73                  LD (HL),E
2837   1391 20 74               JR NZ,L0373
2838   1393 65                  LD H,L
2839   1394 73                  LD (HL),E
2840   1395 74                  LD (HL),H
2841   1396 FE 10               CP 10H
2842   1398 FE 3F               CP 3FH
2843   139A 14                  INC D
2844   139B 16 14               LD D,14H
2845   139D 62                  LD H,D
2846   139E 14                  INC D
2847   139F A0                  AND B
2848   13A0 14                  INC D
2849   13A1 D8                  RET C
2850   13A2 14                  INC D
2851   13A3 FC 14 45            CALL M,L0374
2852   13A6 15                  DEC D
2853   13A7 2B                  DEC HL
2854   13A8 15                  DEC D
2855   13A9 46                  LD B,(HL)
2856   13AA 14                  INC D
2857   13AB 1F                  RRA
2858   13AC 14                  INC D
2859   13AD 6E                  LD L,(HL)
2860   13AE 14                  INC D
2861   13AF A9                  XOR C
2862   13B0 14                  INC D
2863   13B1 F3                  DI
2864   13B2 14                  INC D
2865   13B3 08                  EX AF,AF'
2866   13B4 15                  DEC D
2867   13B5 3F                  CCF
2868   13B6 15                  DEC D
2869   13B7 25                  DEC H
2870   13B8 15          L0370:  DEC D
2871   13B9 4D                  LD C,L
2872   13BA 14                  INC D
2873   13BB 2A 14 77            LD HL,(7714H)
2874   13BE 14                  INC D
2875   13BF B6                  OR (HL)
2876   13C0 14                  INC D
2877   13C1 EC 14 10            CALL PE,L0375
2878   13C4 15                  DEC D
2879   13C5 39                  ADD HL,SP
2880   13C6 15                  DEC D
2881   13C7 21 15 54            LD HL,5415H
2882   13CA 14                  INC D
2883   13CB 31 14 88            LD SP,8814H
2884   13CE 14                  INC D
2885   13CF C3 14 E7            JP L0376
2886   13D2 14                  INC D
2887   13D3 0E 15               LD C,15H
2888   13D5 35                  DEC (HL)
2889   13D6 15                  DEC D
2890   13D7 1D                  DEC E
2891   13D8 15                  DEC D
2892   13D9 5B                  LD E,E
2893   13DA 14                  INC D
2894   13DB 38 14               JR C,L0377
2895   13DD 92                  SUB D
2896   13DE 14                  INC D
2897   13DF CC 14 03            CALL Z,L0050
2898   13E2 15                  DEC D
2899   13E3 12                  LD (DE),A
2900   13E4 15                  DEC D
2901   13E5 30 15               JR NC,L0378
2902   13E7 18 15               JR L0379
2903   13E9 EF                  RST 28H
2904   13EA 13                  INC DE
2905   13EB FC 13 09            CALL M,L0380
2906   13EE 14                  INC D
2907   13EF 66                  LD H,(HL)
2908   13F0 6F                  LD L,A
2909   13F1 6F          L0377:  LD L,A
2910   13F2 74          L0372:  LD (HL),H
2911   13F3 73                  LD (HL),E
2912   13F4 77                  LD (HL),A
2913   13F5 69                  LD L,C
2914   13F6 74                  LD (HL),H
2915   13F7 63                  LD H,E
2916   13F8 68                  LD L,B
2917   13F9 20 31               JR NZ,L0381
2918   13FB FE 66               CP 66H
2919   13FD 6F                  LD L,A
2920   13FE 6F          L0379:  LD L,A
2921   13FF 74                  LD (HL),H
2922   1400 73                  LD (HL),E
2923   1401 77                  LD (HL),A
2924   1402 69                  LD L,C
2925   1403 74                  LD (HL),H
2926   1404 63                  LD H,E
2927   1405 68                  LD L,B
2928   1406 20 32               JR NZ,L0382
2929   1408 FE 66               CP 66H
2930   140A 6F                  LD L,A
2931   140B 6F                  LD L,A
2932   140C 74                  LD (HL),H
2933   140D 73                  LD (HL),E
2934   140E 77                  LD (HL),A
2935   140F 69                  LD L,C
2936   1410 74                  LD (HL),H
2937   1411 63                  LD H,E
2938   1412 68                  LD L,B
2939   1413 20 33               JR NZ,L0383
2940   1415 FE 72               CP 72H
2941   1417 75                  LD (HL),L
2942   1418 6E                  LD L,(HL)
2943   1419 2F                  CPL
2944   141A 73                  LD (HL),E
2945   141B 74                  LD (HL),H
2946   141C 6F                  LD L,A
2947   141D 70                  LD (HL),B
2948   141E FE 74               CP 74H
2949   1420 61                  LD H,C
2950   1421 70                  LD (HL),B
2951   1422 2F                  CPL
2952   1423 72                  LD (HL),D
2953   1424 65                  LD H,L
2954   1425 70                  LD (HL),B
2955   1426 65                  LD H,L
2956   1427 61                  LD H,C
2957   1428 74                  LD (HL),H
2958   1429 FE 70               CP 70H
2959   142B 6C                  LD L,H
2960   142C 61          L0381:  LD H,C
2961   142D 79                  LD A,C
2962   142E 20 31               JR NZ,L0384
2963   1430 FE 70               CP 70H
2964   1432 6C                  LD L,H
2965   1433 61                  LD H,C
2966   1434 79                  LD A,C
2967   1435 20 32               JR NZ,L0385
2968   1437 FE 70               CP 70H
2969   1439 6C                  LD L,H
2970   143A 61          L0382:  LD H,C
2971   143B 79                  LD A,C
2972   143C 20 33               JR NZ,L0386
2973   143E FE 70               CP 70H
2974   1440 6C                  LD L,H
2975   1441 61                  LD H,C
2976   1442 79                  LD A,C
2977   1443 20 34               JR NZ,L0387
2978   1445 FE 70               CP 70H
2979   1447 6C                  LD L,H
2980   1448 61          L0383:  LD H,C
2981   1449 79                  LD A,C
2982   144A 20 35               JR NZ,L0388
2983   144C FE 70               CP 70H
2984   144E 6C                  LD L,H
2985   144F 61                  LD H,C
2986   1450 79                  LD A,C
2987   1451 20 36               JR NZ,L0389
2988   1453 FE 70               CP 70H
2989   1455 6C                  LD L,H
2990   1456 61                  LD H,C
2991   1457 79                  LD A,C
2992   1458 20 37               JR NZ,L0390
2993   145A FE 70               CP 70H
2994   145C 6C                  LD L,H
2995   145D 61                  LD H,C
2996   145E 79                  LD A,C
2997   145F 20 38               JR NZ,L0391
2998   1461 FE 72       L0384:  CP 72H
2999   1463 65                  LD H,L
3000   1464 63                  LD H,E
3001   1465 6F                  LD L,A
3002   1466 72                  LD (HL),D
3003   1467 64                  LD H,H
3004   1468 2F                  CPL
3005   1469 65          L0385:  LD H,L
3006   146A 64                  LD H,H
3007   146B 69                  LD L,C
3008   146C 74                  LD (HL),H
3009   146D FE 6D               CP 6DH
3010   146F 69                  LD L,C
3011   1470 78                  LD A,B
3012   1471 2F          L0386:  CPL
3013   1472 73                  LD (HL),E
3014   1473 74                  LD (HL),H
3015   1474 65                  LD H,L
3016   1475 70                  LD (HL),B
3017   1476 FE 74               CP 74H
3018   1478 65                  LD H,L
3019   1479 6D          L0387:  LD L,L
3020   147A 70                  LD (HL),B
3021   147B 6F                  LD L,A
3022   147C 43                  LD B,E
3023   147D 68                  LD L,B
3024   147E 2F                  CPL
3025   147F 61                  LD H,C
3026   1480 75                  LD (HL),L
3027   1481 74          L0388:  LD (HL),H
3028   1482 6F                  LD L,A
3029   1483 43                  LD B,E
3030   1484 6F                  LD L,A
3031   1485 72                  LD (HL),D
3032   1486 72                  LD (HL),D
3033   1487 FE 64               CP 64H
3034   1489 65          L0389:  LD H,L
3035   148A 6C                  LD L,H
3036   148B 2F                  CPL
3037   148C 65                  LD H,L
3038   148D 72                  LD (HL),D
3039   148E 61                  LD H,C
3040   148F 73                  LD (HL),E
3041   1490 65                  LD H,L
3042   1491 FE 69       L0390:  CP 69H
3043   1493 6E                  LD L,(HL)
3044   1494 73                  LD (HL),E
3045   1495 2F                  CPL
3046   1496 73                  LD (HL),E
3047   1497 65                  LD H,L
3048   1498 67                  LD H,A
3049   1499 6C          L0391:  LD L,H
3050   149A 65                  LD H,L
3051   149B 6E                  LD L,(HL)
3052   149C 67                  LD H,A
3053   149D 74                  LD (HL),H
3054   149E 68                  LD L,B
3055   149F FE 65               CP 65H
3056   14A1 6E                  LD L,(HL)
3057   14A2 64                  LD H,H
3058   14A3 2F                  CPL
3059   14A4 74                  LD (HL),H
3060   14A5 73                  LD (HL),E
3061   14A6 69                  LD L,C
3062   14A7 67                  LD H,A
3063   14A8 FE 73               CP 73H
3064   14AA 75                  LD (HL),L
3065   14AB 62                  LD H,D
3066   14AC 73                  LD (HL),E
3067   14AD 6F                  LD L,A
3068   14AE 6E                  LD L,(HL)
3069   14AF 67                  LD H,A
3070   14B0 2F                  CPL
3071   14B1 63                  LD H,E
3072   14B2 6F                  LD L,A
3073   14B3 70                  LD (HL),B
3074   14B4 79                  LD A,C
3075   14B5 FE 72               CP 72H
3076   14B7 65                  LD H,L
3077   14B8 70                  LD (HL),B
3078   14B9 65                  LD H,L
3079   14BA 61                  LD H,C
3080   14BB 74                  LD (HL),H
3081   14BC 2F                  CPL
3082   14BD 73                  LD (HL),E
3083   14BE 77                  LD (HL),A
3084   14BF 69                  LD L,C
3085   14C0 6E                  LD L,(HL)
3086   14C1 67                  LD H,A
3087   14C2 FE 74               CP 74H
3088   14C4 72                  LD (HL),D
3089   14C5 69                  LD L,C
3090   14C6 67                  LD H,A
3091   14C7 2F                  CPL
3092   14C8 6D                  LD L,L
3093   14C9 65                  LD H,L
3094   14CA 74                  LD (HL),H
3095   14CB FE 62               CP 62H
3096   14CD 61                  LD H,C
3097   14CE 6E                  LD L,(HL)
3098   14CF 6B                  LD L,E
3099   14D0 20 73               JR NZ,L0392
3100   14D2 65                  LD H,L
3101   14D3 6C                  LD L,H
3102   14D4 65                  LD H,L
3103   14D5 63                  LD H,E
3104   14D6 74                  LD (HL),H
3105   14D7 FE 74               CP 74H
3106   14D9 75                  LD (HL),L
3107   14DA 6E                  LD L,(HL)
3108   14DB 65                  LD H,L
3109   14DC 2F                  CPL
3110   14DD 6D                  LD L,L
3111   14DE 69                  LD L,C
3112   14DF 78                  LD A,B
3113   14E0 2F                  CPL
3114   14E1 6D                  LD L,L
3115   14E2 75                  LD (HL),L
3116   14E3 6C                  LD L,H
3117   14E4 74                  LD (HL),H
3118   14E5 69                  LD L,C
3119   14E6 FE 44               CP 44H
3120   14E8 69                  LD L,C
3121   14E9 73                  LD (HL),E
3122   14EA 6B                  LD L,E
3123   14EB FE 53               CP 53H
3124   14ED 65                  LD H,L
3125   14EE 74                  LD (HL),H
3126   14EF 2D                  DEC L
3127   14F0 75                  LD (HL),L
3128   14F1 70                  LD (HL),B
3129   14F2 FE 73               CP 73H
3130   14F4 6F                  LD L,A
3131   14F5 6E                  LD L,(HL)
3132   14F6 67                  LD H,A
3133   14F7 2F                  CPL
3134   14F8 73                  LD (HL),E
3135   14F9 65                  LD H,L
3136   14FA 67                  LD H,A
3137   14FB FE 53               CP 53H
3138   14FD 61                  LD H,C
3139   14FE 6D                  LD L,L
3140   14FF 70                  LD (HL),B
3141   1500 6C                  LD L,H
3142   1501 65                  LD H,L
3143   1502 FE 53               CP 53H
3144   1504 79                  LD A,C
3145   1505 6E                  LD L,(HL)
3146   1506 63                  LD H,E
3147   1507 FE 74               CP 74H
3148   1509 65                  LD H,L
3149   150A 6D                  LD L,L
3150   150B 70                  LD (HL),B
3151   150C 6F                  LD L,A
3152   150D FE 7E               CP 7EH
3153   150F FE 7F               CP 7FH
3154   1511 FE 65               CP 65H
3155   1513 6E                  LD L,(HL)
3156   1514 74                  LD (HL),H
3157   1515 65                  LD H,L
3158   1516 72                  LD (HL),D
3159   1517 FE 7A               CP 7AH
3160   1519 65                  LD H,L
3161   151A 72                  LD (HL),D
3162   151B 6F                  LD L,A
3163   151C FE 6F               CP 6FH
3164   151E 6E                  LD L,(HL)
3165   151F 65                  LD H,L
3166   1520 FE 74               CP 74H
3167   1522 77                  LD (HL),A
3168   1523 6F                  LD L,A
3169   1524 FE 74               CP 74H
3170   1526 68                  LD L,B
3171   1527 72                  LD (HL),D
3172   1528 65                  LD H,L
3173   1529 65                  LD H,L
3174   152A FE 66               CP 66H
3175   152C 6F                  LD L,A
3176   152D 75                  LD (HL),L
3177   152E 72                  LD (HL),D
3178   152F FE 66               CP 66H
3179   1531 69                  LD L,C
3180   1532 76                  HALT
3181   1533 65                  LD H,L
3182   1534 FE 73               CP 73H
3183   1536 69                  LD L,C
3184   1537 78                  LD A,B
3185   1538 FE 73               CP 73H
3186   153A 65                  LD H,L
3187   153B 76                  HALT
3188   153C 65                  LD H,L
3189   153D 6E                  LD L,(HL)
3190   153E FE 65               CP 65H
3191   1540 69                  LD L,C
3192   1541 67                  LD H,A
3193   1542 68                  LD L,B
3194   1543 74                  LD (HL),H
3195   1544 FE 6E               CP 6EH
3196   1546 69                  LD L,C
3197   1547 6E                  LD L,(HL)
3198   1548 65                  LD H,L
3199   1549 FE 11               CP 11H
3200   154B 79                  LD A,C
3201   154C 15                  DEC D
3202   154D CD D5 0F            CALL L0012
3203   1550 CD 56 15    L0393:  CALL L0314
3204   1553 C0                  RET NZ
3205   1554 18 FA               JR L0393
3206   1556 DB 58       L0314:  IN A,(58H)
3207   1558 3C                  INC A
3208   1559 C8                  RET Z
3209   155A 3D                  DEC A
3210   155B F5                  PUSH AF
3211   155C DB 58       L0394:  IN A,(58H)
3212   155E 3C                  INC A
3213   155F 20 FB               JR NZ,L0394
3214   1561 CD 70 15            CALL L0326
3215   1564 DB 58               IN A,(58H)
3216   1566 3C                  INC A
3217   1567 20 F3               JR NZ,L0394
3218   1569 F1                  POP AF
3219   156A C9                  RET
3220   156B 21 80 00    L0403:  LD HL,0080H
3221   156E 18 03               JR L0395
3222   1570 21 00 64    L0326:  LD HL,6400H
3223   1573 2B          L0395:  DEC HL
3224   1574 7C                  LD A,H
3225   1575 B5                  OR L
3226   1576 20 FB               JR NZ,L0395
3227   1578 C9                  RET
3228   1579 80                  ADD A,B
3229   157A FF                  RST 38H
3230   157B FF                  RST 38H
3231   157C FF                  RST 38H
3232   157D FF                  RST 38H
3233   157E FF                  RST 38H
3234   157F FF                  RST 38H
3235   1580 FF                  RST 38H
3236   1581 FF                  RST 38H
3237   1582 FF                  RST 38H
3238   1583 FF                  RST 38H
3239   1584 FF                  RST 38H
3240   1585 FF                  RST 38H
3241   1586 FF                  RST 38H
3242   1587 FF                  RST 38H
3243   1588 FF                  RST 38H
3244   1589 FF                  RST 38H
3245   158A 90                  SUB B
3246   158B FF                  RST 38H
3247   158C FF                  RST 38H
3248   158D FF                  RST 38H
3249   158E FF                  RST 38H
3250   158F FF                  RST 38H
3251   1590 FF                  RST 38H
3252   1591 FF                  RST 38H
3253   1592 FF                  RST 38H
3254   1593 FF                  RST 38H
3255   1594 FF                  RST 38H
3256   1595 FF                  RST 38H
3257   1596 FF                  RST 38H
3258   1597 FF                  RST 38H
3259   1598 FF                  RST 38H
3260   1599 FF                  RST 38H
3261   159A FF                  RST 38H
3262   159B FE 11               CP 11H
3263   159D C0                  RET NZ
3264   159E 15                  DEC D
3265   159F CD D5 0F            CALL L0012
3266   15A2 11 01 00            LD DE,0001H
3267   15A5 EB          L0398:  EX DE,HL
3268   15A6 29          L0396:  ADD HL,HL
3269   15A7 CB 5D               BIT 3,L
3270   15A9 20 FB               JR NZ,L0396
3271   15AB 30 01               JR NC,L0397
3272   15AD 2C                  INC L
3273   15AE 7D          L0397:  LD A,L
3274   15AF 2F                  CPL
3275   15B0 D3 8C               OUT (8CH),A
3276   15B2 7C                  LD A,H
3277   15B3 2F                  CPL
3278   15B4 D3 90               OUT (90H),A
3279   15B6 EB                  EX DE,HL
3280   15B7 CD 70 15            CALL L0326
3281   15BA CD 56 15            CALL L0314
3282   15BD C0                  RET NZ
3283   15BE 18 E5               JR L0398
3284   15C0 10 4C               DJNZ L0399
3285   15C2 61                  LD H,C
3286   15C3 6D                  LD L,L
3287   15C4 70                  LD (HL),B
3288   15C5 20 54               JR NZ,L0400
3289   15C7 65                  LD H,L
3290   15C8 73                  LD (HL),E
3291   15C9 74                  LD (HL),H
3292   15CA 3A 20 50    L0408:  LD A,(5020H)
3293   15CD 72                  LD (HL),D
3294   15CE 65                  LD H,L
3295   15CF 73                  LD (HL),E
3296   15D0 73                  LD (HL),E
3297   15D1 90                  SUB B
3298   15D2 45                  LD B,L
3299   15D3 4E                  LD C,(HL)
3300   15D4 54                  LD D,H
3301   15D5 45                  LD B,L
3302   15D6 52                  LD D,D
3303   15D7 20 74               JR NZ,L0401
3304   15D9 6F                  LD L,A
3305   15DA 20 65               JR NZ,L0402
3306   15DC 78                  LD A,B
3307   15DD 69                  LD L,C
3308   15DE 74                  LD (HL),H
3309   15DF FE 3E               CP 3EH
3310   15E1 FF                  RST 38H
3311   15E2 D3 8C               OUT (8CH),A
3312   15E4 D3 90               OUT (90H),A
3313   15E6 21 1A 68            LD HL,681AH
3314   15E9 11 1B 68            LD DE,681BH
3315   15EC 01 0F 00            LD BC,000FH
3316   15EF 36 00               LD (HL),00H
3317   15F1 ED B0               LDIR
3318   15F3 11 28 16    L0406:  LD DE,1628H
3319   15F6 CD D5 0F            CALL L0012
3320   15F9 CD 56 15            CALL L0314
3321   15FC C0                  RET NZ
3322   15FD 06 08               LD B,08H
3323   15FF 78          L0405:  LD A,B
3324   1600 3D                  DEC A
3325   1601 D3 C0               OUT (0C0H),A
3326   1603 CD 6B 15            CALL L0403
3327   1606 DB C0               IN A,(0C0H)
3328   1608 58                  LD E,B
3329   1609 1D                  DEC E
3330   160A 37                  SCF
3331   160B CB 13               RL E
3332   160D 16 00               LD D,00H
3333   160F 21 1A 68            LD HL,681AH
3334   1612 19                  ADD HL,DE
3335   1613 5F                  LD E,A
3336   1614 96                  SUB (HL)
3337   1615 28 0D               JR Z,L0404
3338   1617 3D                  DEC A
3339   1618 28 0A               JR Z,L0404
3340   161A 3C                  INC A
3341   161B 3C          L0400:  INC A
3342   161C 28 06               JR Z,L0404
3343   161E 73                  LD (HL),E
3344   161F 2B                  DEC HL
3345   1620 A7                  AND A
3346   1621 CB 1B               RR E
3347   1623 73                  LD (HL),E
3348   1624 10 D9       L0404:  DJNZ L0405
3349   1626 18 CB               JR L0406
3350   1628 80                  ADD A,B
3351   1629 19                  ADD HL,DE
3352   162A 1A          L0422:  LD A,(DE)
3353   162B 68                  LD L,B
3354   162C 20 19               JR NZ,L0407
3355   162E 1E 68               LD E,68H
3356   1630 20 19               JR NZ,L0302
3357   1632 22 68 20            LD (2068H),HL
3358   1635 19                  ADD HL,DE
3359   1636 26 68               LD H,68H
3360   1638 20 90               JR NZ,L0408
3361   163A 20 19               JR NZ,L0409
3362   163C 1C                  INC E
3363   163D 68                  LD L,B
3364   163E 20 19               JR NZ,L0410
3365   1640 20 68               JR NZ,L0411
3366   1642 20 19               JR NZ,L0412
3367   1644 24                  INC H
3368   1645 68                  LD L,B
3369   1646 20 19               JR NZ,L0413
3370   1648 28 68               JR Z,L0414
3371   164A FE 11               CP 11H
3372   164C 88                  ADC A,B
3373   164D 16 CD       L0401:  LD D,0CDH
3374   164F D5                  PUSH DE
3375   1650 0F                  RRCA
3376   1651 11 A1 16    L0417:  LD DE,16A1H
3377   1654 CD D5 0F            CALL L0012
3378   1657 3E 1D               LD A,1DH
3379   1659 D3 88       L0410:  OUT (88H),A
3380   165B 06 10               LD B,10H
3381   165D 11 00 00    L0412:  LD DE,0000H
3382   1660 DB 41       L0415:  IN A,(41H)
3383   1662 6F                  LD L,A
3384   1663 DB 40               IN A,(40H)
3385   1665 26 00               LD H,00H
3386   1667 29                  ADD HL,HL
3387   1668 29                  ADD HL,HL
3388   1669 29                  ADD HL,HL
3389   166A 29                  ADD HL,HL
3390   166B E6 0F               AND 0FH
3391   166D B5                  OR L
3392   166E 6F                  LD L,A
3393   166F 19                  ADD HL,DE
3394   1670 EB                  EX DE,HL
3395   1671 10 ED               DJNZ L0415
3396   1673 06 04               LD B,04H
3397   1675 CB 3A       L0416:  SRL D
3398   1677 CB 1B               RR E
3399   1679 10 FA               DJNZ L0416
3400   167B D5                  PUSH DE
3401   167C FD E1               POP IY
3402   167E CD 56 15            CALL L0314
3403   1681 28 CE               JR Z,L0417
3404   1683 3E 7D               LD A,7DH
3405   1685 D3 88               OUT (88H),A
3406   1687 C9                  RET
3407   1688 10 54               DJNZ L0418
3408   168A 72                  LD (HL),D
3409   168B 69                  LD L,C
3410   168C 6D                  LD L,L
3411   168D 20 52               JR NZ,L0419
3412   168F 54                  LD D,H
3413   1690 31 20 54            LD SP,5420H
3414   1693 6F                  LD L,A
3415   1694 20 30               JR NZ,L0420
3416   1696 38 30               JR C,L0421
3417   1698 30 90               JR NC,L0422
3418   169A 52                  LD D,D
3419   169B 54                  LD D,H
3420   169C 31 20 3D            LD SP,3D20H
3421   169F 20 FE       L0423:  JR NZ,L0423
3422   16A1 96                  SUB (HL)
3423   16A2 15                  DEC D
3424   16A3 FE 18               CP 18H
3425   16A5 04                  INC B
3426   16A6 CC 05 68            CALL Z,L0125
3427   16A9 03                  INC BC
3428   16AA C1          L0411:  POP BC
3429   16AB 11 EC 16    L0303:  LD DE,16ECH
3430   16AE CD D5 0F            CALL L0012
3431   16B1 CD 56 15    L0424:  CALL L0314
3432   16B4 28 FB               JR Z,L0424
3433   16B6 21 A4 16            LD HL,16A4H
3434   16B9 01 51 07            LD BC,0751H
3435   16BC ED B3               OTIR
3436   16BE 06 00               LD B,00H
3437   16C0 78          L0427:  LD A,B
3438   16C1 D3 50               OUT (50H),A
3439   16C3 0E 00               LD C,00H
3440   16C5 0D          L0426:  DEC C
3441   16C6 28 14       L0420:  JR Z,L0425
3442   16C8 DB 51       L0421:  IN A,(51H)
3443   16CA 0F                  RRCA
3444   16CB 30 F8               JR NC,L0426
3445   16CD DB 50               IN A,(50H)
3446   16CF B8                  CP B
3447   16D0 20 0A               JR NZ,L0425
3448   16D2 10 EC               DJNZ L0427
3449   16D4 11 0F 17            LD DE,170FH
3450   16D7 CD D5 0F            CALL L0012
3451   16DA 18 06               JR L0428
3452   16DC 11 25 17    L0425:  LD DE,1725H
3453   16DF CD D5 0F            CALL L0012
3454   16E2 CD 56 15            CALL L0314
3455   16E5 28 FB               JR Z,L0428
3456   16E7 CB 7F               BIT 7,A
3457   16E9 C8                  RET Z
3458   16EA 18 BF               JR L0303
3459   16EC 10 43               DJNZ L0429
3460   16EE 6F                  LD L,A
3461   16EF 6E                  LD L,(HL)
3462   16F0 6E                  LD L,(HL)
3463   16F1 65                  LD H,L
3464   16F2 63                  LD H,E
3465   16F3 74                  LD (HL),H
3466   16F4 20 4D               JR NZ,L0430
3467   16F6 49                  LD C,C
3468   16F7 44                  LD B,H
3469   16F8 49                  LD C,C
3470   16F9 20 49               JR NZ,L0431
3471   16FB 4E                  LD C,(HL)
3472   16FC 26 90               LD H,90H
3473   16FE 4F                  LD C,A
3474   16FF 55                  LD D,L
3475   1700 54                  LD D,H
3476   1701 3B                  DEC SP
3477   1702 20 50               JR NZ,L0432
3478   1704 72                  LD (HL),D
3479   1705 65                  LD H,L
3480   1706 73                  LD (HL),E
3481   1707 73                  LD (HL),E
3482   1708 20 45               JR NZ,L0433
3483   170A 4E                  LD C,(HL)
3484   170B 54                  LD D,H
3485   170C 45                  LD B,L
3486   170D 52                  LD D,D
3487   170E FE 10               CP 10H
3488   1710 4D                  LD C,L
3489   1711 49                  LD C,C
3490   1712 44                  LD B,H
3491   1713 49                  LD C,C
3492   1714 3A 20 4F            LD A,(4F20H)
3493   1717 4B                  LD C,E
3494   1718 90          L0438:  SUB B
3495   1719 50                  LD D,B
3496   171A 72                  LD (HL),D
3497   171B 65                  LD H,L
3498   171C 73                  LD (HL),E
3499   171D 73                  LD (HL),E
3500   171E 20 45               JR NZ,L0434
3501   1720 4E                  LD C,(HL)
3502   1721 54                  LD D,H
3503   1722 45                  LD B,L
3504   1723 52                  LD D,D
3505   1724 FE 10               CP 10H
3506   1726 4D                  LD C,L
3507   1727 49                  LD C,C
3508   1728 44                  LD B,H
3509   1729 49                  LD C,C
3510   172A 20 46               JR NZ,L0435
3511   172C 41                  LD B,C
3512   172D 49                  LD C,C
3513   172E 4C                  LD C,H
3514   172F 2E 20               LD L,20H
3515   1731 49          L0429:  LD C,C
3516   1732 6E                  LD L,(HL)
3517   1733 20 26               JR NZ,L0436
3518   1735 90                  SUB B
3519   1736 4F                  LD C,A
3520   1737 75                  LD (HL),L
3521   1738 74                  LD (HL),H
3522   1739 20 55               JR NZ,L0437
3523   173B 6E                  LD L,(HL)
3524   173C 63                  LD H,E
3525   173D 6F                  LD L,A
3526   173E 6E                  LD L,(HL)
3527   173F 6E                  LD L,(HL)
3528   1740 65                  LD H,L
3529   1741 63                  LD H,E
3530   1742 74                  LD (HL),H
3531   1743 65          L0430:  LD H,L
3532   1744 64          L0431:  LD H,H
3533   1745 3F                  CCF
3534   1746 FE 11               CP 11H
3535   1748 1D                  DEC E
3536   1749 18 CD               JR L0438
3537   174B D5                  PUSH DE
3538   174C 0F                  RRCA
3539   174D CD 56 15    L0439:  CALL L0314
3540   1750 28 FB               JR Z,L0439
3541   1752 11 40 18            LD DE,1840H
3542   1755 CD D5 0F            CALL L0012
3543   1758 06 2B               LD B,2BH
3544   175A CD 94 17            CALL L0440
3545   175D 21 0A 18            LD HL,180AH
3546   1760 01 53 0F            LD BC,0F53H
3547   1763 ED B3               OTIR
3548   1765 CD A0 17    L0434:  CALL L0441
3549   1768 38 1A               JR C,L0442
3550   176A 06 36               LD B,36H
3551   176C CD 94 17            CALL L0440
3552   176F 21 19 18            LD HL,1819H
3553   1772 01 53 04    L0435:  LD BC,0453H
3554   1775 ED B3               OTIR
3555   1777 CD A0 17            CALL L0441
3556   177A 38 08               JR C,L0442
3557   177C 11 52 18            LD DE,1852H
3558   177F CD D5 0F            CALL L0012
3559   1782 18 06               JR L0443
3560   1784 11 70 18    L0442:  LD DE,1870H
3561   1787 CD D5 0F            CALL L0012
3562   178A CD 56 15    L0443:  CALL L0314
3563   178D 28 FB               JR Z,L0443
3564   178F CB 7F               BIT 7,A
3565   1791 C8                  RET Z
3566   1792 18 B3               JR L0304
3567   1794 3E 03       L0440:  LD A,03H
3568   1796 D3 4A               OUT (4AH),A
3569   1798 3E 07               LD A,07H
3570   179A D3 4A               OUT (4AH),A
3571   179C 78                  LD A,B
3572   179D D3 4A               OUT (4AH),A
3573   179F C9                  RET
3574   17A0 06 10       L0441:  LD B,10H
3575   17A2 DB 52       L0444:  IN A,(52H)
3576   17A4 10 FC               DJNZ L0444
3577   17A6 11 14 00            LD DE,0014H
3578   17A9 CD F7 17    L0447:  CALL L0445
3579   17AC FE 5A               CP 5AH
3580   17AE 28 08               JR Z,L0446
3581   17B0 1B                  DEC DE
3582   17B1 7A                  LD A,D
3583   17B2 B3                  OR E
3584   17B3 20 F4               JR NZ,L0447
3585   17B5 37                  SCF
3586   17B6 18 1B               JR L0448
3587   17B8 11 00 00    L0446:  LD DE,0000H
3588   17BB 62                  LD H,D
3589   17BC CD E2 17            CALL L0449
3590   17BF 38 12               JR C,L0448
3591   17C1 62          L0451:  LD H,D
3592   17C2 25                  DEC H
3593   17C3 CD E2 17            CALL L0449
3594   17C6 38 0B               JR C,L0448
3595   17C8 CD F7 17    L0453:  CALL L0445
3596   17CB 38 06               JR C,L0448
3597   17CD BA                  CP D
3598   17CE 20 08               JR NZ,L0450
3599   17D0 15                  DEC D
3600   17D1 20 EE               JR NZ,L0451
3601   17D3 3E 03       L0448:  LD A,03H
3602   17D5 D3 4A               OUT (4AH),A
3603   17D7 C9                  RET
3604   17D8 FE 5A       L0450:  CP 5AH
3605   17DA 20 03               JR NZ,L0452
3606   17DC 1D                  DEC E
3607   17DD 20 E9               JR NZ,L0453
3608   17DF 37          L0452:  SCF
3609   17E0 18 F1               JR L0448
3610   17E2 01 40 00    L0449:  LD BC,0040H
3611   17E5 DB 53       L0455:  IN A,(53H)
3612   17E7 CB 57               BIT 2,A
3613   17E9 20 07               JR NZ,L0454
3614   17EB 10 F8               DJNZ L0455
3615   17ED 0D                  DEC C
3616   17EE 20 F5               JR NZ,L0455
3617   17F0 37                  SCF
3618   17F1 C9                  RET
3619   17F2 7C          L0454:  LD A,H
3620   17F3 D3 52               OUT (52H),A
3621   17F5 B7                  OR A
3622   17F6 C9                  RET
3623   17F7 01 40 00    L0445:  LD BC,0040H
3624   17FA DB 53       L0457:  IN A,(53H)
3625   17FC 0F                  RRCA
3626   17FD 38 07               JR C,L0456
3627   17FF 10 F9               DJNZ L0457
3628   1801 0D                  DEC C
3629   1802 20 F6               JR NZ,L0457
3630   1804 37                  SCF
3631   1805 C9                  RET
3632   1806 DB 52       L0456:  IN A,(52H)
3633   1808 B7                  OR A
3634   1809 C9                  RET
3635   180A 18 18               JR L0458
3636   180C 18 01               JR L0459
3637   180E 04                  INC B
3638   180F 04          L0459:  INC B
3639   1810 00                  NOP
3640   1811 06 5A               LD B,5AH
3641   1813 07                  RLCA
3642   1814 5A                  LD E,D
3643   1815 05                  DEC B
3644   1816 E8                  RET PE
3645   1817 03                  INC BC
3646   1818 D1                  POP DE
3647   1819 05                  DEC B
3648   181A 68                  LD L,B
3649   181B 03                  INC BC
3650   181C D1                  POP DE
3651   181D 10 43               DJNZ L0460
3652   181F 6F                  LD L,A
3653   1820 6E                  LD L,(HL)
3654   1821 6E                  LD L,(HL)
3655   1822 65                  LD H,L
3656   1823 63                  LD H,E
3657   1824 74          L0458:  LD (HL),H
3658   1825 20 53               JR NZ,L0461
3659   1827 4D                  LD C,L
3660   1828 50                  LD D,B
3661   1829 54                  LD D,H
3662   182A 45                  LD B,L
3663   182B 20 49               JR NZ,L0462
3664   182D 4E                  LD C,(HL)
3665   182E 90                  SUB B
3666   182F 26 20               LD H,20H
3667   1831 4F                  LD C,A
3668   1832 55                  LD D,L
3669   1833 54                  LD D,H
3670   1834 3B                  DEC SP
3671   1835 20 68               JR NZ,L0463
3672   1837 69                  LD L,C
3673   1838 74                  LD (HL),H
3674   1839 20 45               JR NZ,L0464
3675   183B 4E                  LD C,(HL)
3676   183C 54                  LD D,H
3677   183D 45                  LD B,L
3678   183E 52                  LD D,D
3679   183F FE 10               CP 10H
3680   1841 54                  LD D,H
3681   1842 65                  LD H,L
3682   1843 73                  LD (HL),E
3683   1844 74                  LD (HL),H
3684   1845 69                  LD L,C
3685   1846 6E                  LD L,(HL)
3686   1847 67                  LD H,A
3687   1848 20 53               JR NZ,L0465
3688   184A 4D                  LD C,L
3689   184B 50                  LD D,B
3690   184C 54                  LD D,H
3691   184D 45                  LD B,L
3692   184E 2E 2E               LD L,2EH
3693   1850 2E FE               LD L,0FEH
3694   1852 10 53               DJNZ L0466
3695   1854 4D                  LD C,L
3696   1855 50                  LD D,B
3697   1856 54                  LD D,H
3698   1857 45                  LD B,L
3699   1858 20 4F               JR NZ,L0467
3700   185A 4B                  LD C,E
3701   185B 20 40               JR NZ,L0465
3702   185D 20 32               JR NZ,L0468
3703   185F 34                  INC (HL)
3704   1860 26 33               LD H,33H
3705   1862 30 90       L0460:  JR NC,L0469
3706   1864 50                  LD D,B
3707   1865 72                  LD (HL),D
3708   1866 65                  LD H,L
3709   1867 73                  LD (HL),E
3710   1868 73                  LD (HL),E
3711   1869 20 45               JR NZ,L0470
3712   186B 4E                  LD C,(HL)
3713   186C 54                  LD D,H
3714   186D 45                  LD B,L
3715   186E 52                  LD D,D
3716   186F FE 10               CP 10H
3717   1871 53                  LD D,E
3718   1872 4D                  LD C,L
3719   1873 50                  LD D,B
3720   1874 54                  LD D,H
3721   1875 45                  LD B,L
3722   1876 20 46       L0462:  JR NZ,L0471
3723   1878 41                  LD B,C
3724   1879 49                  LD C,C
3725   187A 4C          L0461:  LD C,H
3726   187B 2E 20               LD L,20H
3727   187D 49                  LD C,C
3728   187E 6E                  LD L,(HL)
3729   187F 20 26               JR NZ,L0466
3730   1881 90                  SUB B
3731   1882 4F                  LD C,A
3732   1883 75                  LD (HL),L
3733   1884 74                  LD (HL),H
3734   1885 20 55               JR NZ,L0472
3735   1887 6E                  LD L,(HL)
3736   1888 63                  LD H,E
3737   1889 6F                  LD L,A
3738   188A 6E                  LD L,(HL)
3739   188B 6E                  LD L,(HL)
3740   188C 65                  LD H,L
3741   188D 63                  LD H,E
3742   188E 74                  LD (HL),H
3743   188F 65                  LD H,L
3744   1890 64                  LD H,H
3745   1891 3F          L0468:  CCF
3746   1892 FE 11               CP 11H
3747   1894 02                  LD (BC),A
3748   1895 19                  ADD HL,DE
3749   1896 CD D5 0F            CALL L0012
3750   1899 3E 78       L0475:  LD A,78H
3751   189B CD B2 18            CALL L0473
3752   189E 20 1B               JR NZ,L0474
3753   18A0 EB                  EX DE,HL
3754   18A1 3E 79               LD A,79H
3755   18A3 CD B2 18            CALL L0473
3756   18A6 20 13               JR NZ,L0474
3757   18A8 3E 7D               LD A,7DH
3758   18AA CD B2 18            CALL L0473
3759   18AD C2 56 15            JP NZ,L0314
3760   18B0 18 E7       L0470:  JR L0475
3761   18B2 D3 88       L0473:  OUT (88H),A
3762   18B4 CD F9 18            CALL L0476
3763   18B7 DB 58               IN A,(58H)
3764   18B9 3C                  INC A
3765   18BA C9                  RET
3766   18BB 06 08       L0474:  LD B,08H
3767   18BD 3E F7               LD A,0F7H
3768   18BF D3 8C               OUT (8CH),A
3769   18C1 11 81 68            LD DE,6881H
3770   18C4 3E 07       L0477:  LD A,07H
3771   18C6 D3 C0               OUT (0C0H),A
3772   18C8 CD F9 18            CALL L0476
3773   18CB DB C0               IN A,(0C0H)
3774   18CD 12                  LD (DE),A
3775   18CE 13                  INC DE
3776   18CF 10 F3               DJNZ L0477
3777   18D1 01 00 08            LD BC,0800H
3778   18D4 59                  LD E,C
3779   18D5 21 81 68    L0479:  LD HL,6881H
3780   18D8 7E                  LD A,(HL)
3781   18D9 B9                  CP C
3782   18DA 38 01               JR C,L0478
3783   18DC 4F          L0472:  LD C,A
3784   18DD 23          L0478:  INC HL
3785   18DE 10 F5               DJNZ L0479
3786   18E0 79                  LD A,C
3787   18E1 32 61 68            LD (6861H),A
3788   18E4 11 1B 19            LD DE,191BH
3789   18E7 CD D5 0F            CALL L0012
3790   18EA DB 58       L0480:  IN A,(58H)
3791   18EC 3C                  INC A
3792   18ED 20 FB               JR NZ,L0480
3793   18EF CD F9 18            CALL L0476
3794   18F2 DB 58               IN A,(58H)
3795   18F4 3C                  INC A
3796   18F5 28 A2               JR Z,L0475
3797   18F7 18 F1               JR L0480
3798   18F9 21 39 01    L0476:  LD HL,0139H
3799   18FC 2B          L0481:  DEC HL
3800   18FD 7C                  LD A,H
3801   18FE B5                  OR L
3802   18FF 20 FB               JR NZ,L0481
3803   1901 C9                  RET
3804   1902 10 44               DJNZ L0482
3805   1904 79                  LD A,C
3806   1905 6E                  LD L,(HL)
3807   1906 61                  LD H,C
3808   1907 6D                  LD L,L
3809   1908 69                  LD L,C
3810   1909 63                  LD H,E
3811   190A 20 42               JR NZ,L0483
3812   190C 75                  LD (HL),L
3813   190D 74                  LD (HL),H
3814   190E 74                  LD (HL),H
3815   190F 6F                  LD L,A
3816   1910 6E                  LD L,(HL)
3817   1911 73                  LD (HL),E
3818   1912 90                  SUB B
3819   1913 56                  LD D,(HL)
3820   1914 61                  LD H,C
3821   1915 6C                  LD L,H
3822   1916 75                  LD (HL),L
3823   1917 65                  LD H,L
3824   1918 3A 20 FE            LD A,(0FE20H)
3825   191B 97                  SUB A
3826   191C 19                  ADD HL,DE
3827   191D 61                  LD H,C
3828   191E 68                  LD L,B
3829   191F FE 3E               CP 3EH
3830   1921 7F                  LD A,A
3831   1922 D3 88               OUT (88H),A
3832   1924 32 79 61            LD (6179H),A
3833   1927 11 55 1A            LD DE,1A55H
3834   192A CD D5 0F    L0492:  CALL L0012
3835   192D 21 00 00            LD HL,0000H
3836   1930 22 61 68            LD (6861H),HL
3837   1933 22 63 68            LD (6863H),HL
3838   1936 22 6D 61            LD (616DH),HL
3839   1939 22 6F 61            LD (616FH),HL
3840   193C 22 71 61            LD (6171H),HL
3841   193F 22 73 61            LD (6173H),HL
3842   1942 21 0A 1B            LD HL,1B0AH
3843   1945 CD CD 19            CALL L0484
3844   1948 DB 58       L0482:  IN A,(58H)
3845   194A 3C                  INC A
3846   194B 20 FB               JR NZ,L0482
3847   194D CD 70 15            CALL L0326
3848   1950 DB 58               IN A,(58H)
3849   1952 CB 67               BIT 4,A
3850   1954 C8                  RET Z
3851   1955 CB 77               BIT 6,A
3852   1957 28 31               JR Z,L0485
3853   1959 CB 6F               BIT 5,A
3854   195B 20 F3               JR NZ,L0486
3855   195D CD E2 19    L0494:  CALL L0487
3856   1960 C0                  RET NZ
3857   1961 CD 2C 1A            CALL L0488
3858   1964 21 20 1B            LD HL,1B20H
3859   1967 CD D6 19            CALL L0489
3860   196A CD D0 19    L0493:  CALL L0490
3861   196D C4 9B 19            CALL NZ,L0491
3862   1970 38 B8               JR C,L0492
3863   1972 FD 7E 0A            LD A,(IY+0AH)
3864   1975 3C                  INC A
3865   1976 FD 77 0A            LD (IY+0AH),A
3866   1979 FE 88               CP 88H
3867   197B 20 ED               JR NZ,L0493
3868   197D 21 15 1B            LD HL,1B15H
3869   1980 CD CD 19            CALL L0484
3870   1983 C4 9B 19            CALL NZ,L0491
3871   1986 38 A2               JR C,L0492
3872   1988 18 D3               JR L0494
3873   198A CD E2 19    L0485:  CALL L0487
3874   198D C0                  RET NZ
3875   198E 21 15 1B            LD HL,1B15H
3876   1991 CD CD 19            CALL L0484
3877   1994 C4 9B 19            CALL NZ,L0491
3878   1997 38 91               JR C,L0492
3879   1999 18 EF               JR L0485
3880   199B 4F          L0491:  LD C,A
3881   199C 2A 61 68            LD HL,(6861H)
3882   199F 25                  DEC H
3883   19A0 7C                  LD A,H
3884   19A1 B5                  OR L
3885   19A2 20 1C               JR NZ,L0495
3886   19A4 79                  LD A,C
3887   19A5 FE C3               CP 0C3H
3888   19A7 20 05               JR NZ,L0496
3889   19A9 11 9B 1A            LD DE,1A9BH
3890   19AC 18 10               JR L0497
3891   19AE FE C2       L0496:  CP 0C2H
3892   19B0 20 05               JR NZ,L0498
3893   19B2 11 78 1A            LD DE,1A78H
3894   19B5 18 07               JR L0497
3895   19B7 FE C4       L0498:  CP 0C4H
3896   19B9 20 05               JR NZ,L0495
3897   19BB 11 BE 1A            LD DE,1ABEH
3898   19BE 37          L0497:  SCF
3899   19BF C9                  RET
3900   19C0 3A 63 68    L0495:  LD A,(6863H)
3901   19C3 FE 63               CP 63H
3902   19C5 28 04               JR Z,L0499
3903   19C7 3C                  INC A
3904   19C8 32 63 68            LD (6863H),A
3905   19CB A7          L0499:  AND A
3906   19CC C9                  RET
3907   19CD CD D6 19    L0484:  CALL L0489
3908   19D0 CD AE 01    L0490:  CALL L0007
3909   19D3 FE 80               CP 80H
3910   19D5 C9                  RET
3911   19D6 11 7B 61    L0489:  LD DE,617BH
3912   19D9 D5                  PUSH DE
3913   19DA FD E1               POP IY
3914   19DC 01 0B 00            LD BC,000BH
3915   19DF ED B0               LDIR
3916   19E1 C9                  RET
3917   19E2 3A 62 68    L0487:  LD A,(6862H)
3918   19E5 3C                  INC A
3919   19E6 FE 64               CP 64H
3920   19E8 20 08               JR NZ,L0500
3921   19EA 3A 61 68            LD A,(6861H)
3922   19ED 3C                  INC A
3923   19EE 32 61 68            LD (6861H),A
3924   19F1 AF                  XOR A
3925   19F2 32 62 68    L0500:  LD (6862H),A
3926   19F5 2A 6D 61            LD HL,(616DH)
3927   19F8 CD 21 1A            CALL L0501
3928   19FB 32 64 68            LD (6864H),A
3929   19FE 2A 71 61            LD HL,(6171H)
3930   1A01 CD 21 1A            CALL L0501
3931   1A04 32 65 68            LD (6865H),A
3932   1A07 2A 73 61            LD HL,(6173H)
3933   1A0A ED 5B 6F 61         LD DE,(616FH)
3934   1A0E 19                  ADD HL,DE
3935   1A0F CD 21 1A            CALL L0501
3936   1A12 32 66 68            LD (6866H),A
3937   1A15 11 E1 1A            LD DE,1AE1H
3938   1A18 CD D5 0F            CALL L0012
3939   1A1B DB 58               IN A,(58H)
3940   1A1D 2F                  CPL
3941   1A1E E6 17               AND 17H
3942   1A20 C9                  RET
3943   1A21 11 64 00    L0501:  LD DE,0064H
3944   1A24 7D                  LD A,L
3945   1A25 A7                  AND A
3946   1A26 ED 52               SBC HL,DE
3947   1A28 D8                  RET C
3948   1A29 3E 63               LD A,63H
3949   1A2B C9                  RET
3950   1A2C ED 5F       L0488:  LD A,R
3951   1A2E 67                  LD H,A
3952   1A2F 6F                  LD L,A
3953   1A30 37                  SCF
3954   1A31 11 94 71            LD DE,7194H
3955   1A34 0E AB               LD C,0ABH
3956   1A36 3E 05               LD A,05H
3957   1A38 08          L0505:  EX AF,AF'
3958   1A39 06 18       L0504:  LD B,18H
3959   1A3B ED 6A       L0503:  ADC HL,HL
3960   1A3D 8F                  ADC A,A
3961   1A3E CB 6F               BIT 5,A
3962   1A40 28 01               JR Z,L0502
3963   1A42 3F                  CCF
3964   1A43 10 F6       L0502:  DJNZ L0503
3965   1A45 EB                  EX DE,HL
3966   1A46 73                  LD (HL),E
3967   1A47 23                  INC HL
3968   1A48 72                  LD (HL),D
3969   1A49 23                  INC HL
3970   1A4A 77                  LD (HL),A
3971   1A4B 23                  INC HL
3972   1A4C EB                  EX DE,HL
3973   1A4D 0D                  DEC C
3974   1A4E 20 E9               JR NZ,L0504
3975   1A50 08                  EX AF,AF'
3976   1A51 3D                  DEC A
3977   1A52 20 E4               JR NZ,L0505
3978   1A54 C9                  RET
3979   1A55 10 44               DJNZ L0506
3980   1A57 69                  LD L,C
3981   1A58 73                  LD (HL),E
3982   1A59 6B                  LD L,E
3983   1A5A 20 54               JR NZ,L0507
3984   1A5C 65                  LD H,L
3985   1A5D 73                  LD (HL),E
3986   1A5E 74                  LD (HL),H
3987   1A5F 3A 20 31            LD A,(3120H)
3988   1A62 3D                  DEC A
3989   1A63 56                  LD D,(HL)
3990   1A64 45                  LD B,L
3991   1A65 52                  LD D,D
3992   1A66 90                  SUB B
3993   1A67 32 3D 57            LD (573DH),A
3994   1A6A 52                  LD D,D
3995   1A6B 2F                  CPL
3996   1A6C 56                  LD D,(HL)
3997   1A6D 45                  LD B,L
3998   1A6E 52                  LD D,D
3999   1A6F 20 20               JR NZ,L0508
4000   1A71 33                  INC SP
4001   1A72 3D                  DEC A
4002   1A73 45                  LD B,L
4003   1A74 58                  LD E,B
4004   1A75 49                  LD C,C
4005   1A76 54                  LD D,H
4006   1A77 FE 10               CP 10H
4007   1A79 4E                  LD C,(HL)
4008   1A7A 6F                  LD L,A
4009   1A7B 74                  LD (HL),H
4010   1A7C 20 52               JR NZ,L0509
4011   1A7E 65                  LD H,L
4012   1A7F 61                  LD H,C
4013   1A80 64                  LD H,H
4014   1A81 79                  LD A,C
4015   1A82 3A 20 31            LD A,(3120H)
4016   1A85 3D                  DEC A
4017   1A86 56                  LD D,(HL)
4018   1A87 45                  LD B,L
4019   1A88 52                  LD D,D
4020   1A89 90                  SUB B
4021   1A8A 32 3D 57            LD (573DH),A
4022   1A8D 52                  LD D,D
4023   1A8E 2F                  CPL
4024   1A8F 56                  LD D,(HL)
4025   1A90 45                  LD B,L
4026   1A91 52          L0508:  LD D,D
4027   1A92 20 20               JR NZ,L0510
4028   1A94 33                  INC SP
4029   1A95 3D                  DEC A
4030   1A96 45                  LD B,L
4031   1A97 58                  LD E,B
4032   1A98 49                  LD C,C
4033   1A99 54                  LD D,H
4034   1A9A FE 10               CP 10H
4035   1A9C 57                  LD D,A
4036   1A9D 72                  LD (HL),D
4037   1A9E 69                  LD L,C
4038   1A9F 74                  LD (HL),H
4039   1AA0 65                  LD H,L
4040   1AA1 50                  LD D,B
4041   1AA2 72                  LD (HL),D
4042   1AA3 6F                  LD L,A
4043   1AA4 74                  LD (HL),H
4044   1AA5 3A 20 31            LD A,(3120H)
4045   1AA8 3D                  DEC A
4046   1AA9 56                  LD D,(HL)
4047   1AAA 45                  LD B,L
4048   1AAB 52                  LD D,D
4049   1AAC 90                  SUB B
4050   1AAD 32 3D 57            LD (573DH),A
4051   1AB0 52          L0507:  LD D,D
4052   1AB1 2F                  CPL
4053   1AB2 56                  LD D,(HL)
4054   1AB3 45                  LD B,L
4055   1AB4 52          L0510:  LD D,D
4056   1AB5 20 20               JR NZ,L0511
4057   1AB7 33                  INC SP
4058   1AB8 3D                  DEC A
4059   1AB9 45                  LD B,L
4060   1ABA 58                  LD E,B
4061   1ABB 49                  LD C,C
4062   1ABC 54                  LD D,H
4063   1ABD FE 10               CP 10H
4064   1ABF 4E                  LD C,(HL)
4065   1AC0 6F                  LD L,A
4066   1AC1 74                  LD (HL),H
4067   1AC2 46                  LD B,(HL)
4068   1AC3 6D                  LD L,L
4069   1AC4 74                  LD (HL),H
4070   1AC5 74                  LD (HL),H
4071   1AC6 65                  LD H,L
4072   1AC7 64                  LD H,H
4073   1AC8 3A 20 31            LD A,(3120H)
4074   1ACB 3D                  DEC A
4075   1ACC 56                  LD D,(HL)
4076   1ACD 45                  LD B,L
4077   1ACE 52                  LD D,D
4078   1ACF 90                  SUB B
4079   1AD0 32 3D 57    L0509:  LD (573DH),A
4080   1AD3 52                  LD D,D
4081   1AD4 2F                  CPL
4082   1AD5 56                  LD D,(HL)
4083   1AD6 45                  LD B,L
4084   1AD7 52          L0511:  LD D,D
4085   1AD8 20 20               JR NZ,L0512
4086   1ADA 33                  INC SP
4087   1ADB 3D                  DEC A
4088   1ADC 45                  LD B,L
4089   1ADD 58                  LD E,B
4090   1ADE 49                  LD C,C
4091   1ADF 54                  LD D,H
4092   1AE0 FE 10               CP 10H
4093   1AE2 50                  LD D,B
4094   1AE3 61                  LD H,C
4095   1AE4 73                  LD (HL),E
4096   1AE5 73                  LD (HL),E
4097   1AE6 20 48               JR NZ,L0513
4098   1AE8 45                  LD B,L
4099   1AE9 20 44               JR NZ,L0514
4100   1AEB 45                  LD B,L
4101   1AEC 20 53               JR NZ,L0515
4102   1AEE 45                  LD B,L
4103   1AEF 20 50               JR NZ,L0515
4104   1AF1 31 90 18            LD SP,1890H
4105   1AF4 61                  LD H,C
4106   1AF5 68                  LD L,B
4107   1AF6 18 62               JR L0516
4108   1AF8 68                  LD L,B
4109   1AF9 20 18               JR NZ,L0517
4110   1AFB 63                  LD H,E
4111   1AFC 68                  LD L,B
4112   1AFD 20 18               JR NZ,L0518
4113   1AFF 64                  LD H,H
4114   1B00 68                  LD L,B
4115   1B01 20 18               JR NZ,L0519
4116   1B03 65                  LD H,L
4117   1B04 68                  LD L,B
4118   1B05 20 18               JR NZ,L0520
4119   1B07 66                  LD H,(HL)
4120   1B08 68                  LD L,B
4121   1B09 FE 00               CP 00H
4122   1B0B 00                  NOP
4123   1B0C 00                  NOP
4124   1B0D 00                  NOP
4125   1B0E 00                  NOP
4126   1B0F 00                  NOP
4127   1B10 00                  NOP
4128   1B11 00                  NOP
4129   1B12 00                  NOP
4130   1B13 00          L0517:  NOP
4131   1B14 00                  NOP
4132   1B15 0A                  LD A,(BC)
4133   1B16 00                  NOP
4134   1B17 00          L0518:  NOP
4135   1B18 80                  ADD A,B
4136   1B19 00                  NOP
4137   1B1A EA 04 00            JP PE,L0521
4138   1B1D 00                  NOP
4139   1B1E 00                  NOP
4140   1B1F 00          L0520:  NOP
4141   1B20 0E 94               LD C,94H
4142   1B22 71                  LD (HL),C
4143   1B23 00                  NOP
4144   1B24 00                  NOP
4145   1B25 0E 00               LD C,00H
4146   1B27 00                  NOP
4147   1B28 00                  NOP
4148   1B29 00                  NOP
4149   1B2A 00                  NOP
4150   1B2B 00                  NOP
4151   1B2C 00                  NOP
4152   1B2D 00                  NOP
4153   1B2E 00                  NOP
4154   1B2F 00          L0514:  NOP
4155   1B30 00          L0513:  NOP
4156   1B31 00                  NOP
4157   1B32 00                  NOP
4158   1B33 00                  NOP
4159   1B34 00                  NOP
4160   1B35 00                  NOP
4161   1B36 00                  NOP
4162   1B37 00                  NOP
4163   1B38 00                  NOP
4164   1B39 00                  NOP
4165   1B3A 00                  NOP
4166   1B3B 00                  NOP
4167   1B3C 00                  NOP
4168   1B3D 00                  NOP
4169   1B3E 00                  NOP
4170   1B3F 00                  NOP
4171   1B40 00                  NOP
4172   1B41 00          L0515:  NOP
4173   1B42 00                  NOP
4174   1B43 00                  NOP
4175   1B44 00                  NOP
4176   1B45 00                  NOP
4177   1B46 00                  NOP
4178   1B47 00                  NOP
4179   1B48 00                  NOP
4180   1B49 00                  NOP
4181   1B4A 00                  NOP
4182   1B4B 00                  NOP
4183   1B4C 00                  NOP
4184   1B4D 00                  NOP
4185   1B4E 00                  NOP
4186   1B4F 00                  NOP
4187   1B50 00                  NOP
4188   1B51 00                  NOP
4189   1B52 00                  NOP
4190   1B53 00                  NOP
4191   1B54 00                  NOP
4192   1B55 00                  NOP
4193   1B56 00                  NOP
4194   1B57 00                  NOP
4195   1B58 00                  NOP
4196   1B59 00                  NOP
4197   1B5A 00          L0516:  NOP
4198   1B5B 00                  NOP
4199   1B5C 00                  NOP
4200   1B5D 00                  NOP
4201   1B5E 00                  NOP
4202   1B5F 00                  NOP
4203   1B60 00                  NOP
4204   1B61 00                  NOP
4205   1B62 00                  NOP
4206   1B63 00                  NOP
4207   1B64 00                  NOP
4208   1B65 00                  NOP
4209   1B66 00                  NOP
4210   1B67 00                  NOP
4211   1B68 00                  NOP
4212   1B69 00                  NOP
4213   1B6A 00                  NOP
4214   1B6B 00                  NOP
4215   1B6C 00                  NOP
4216   1B6D 00                  NOP
4217   1B6E 00                  NOP
4218   1B6F 00                  NOP
4219   1B70 00                  NOP
4220   1B71 00                  NOP
4221   1B72 00                  NOP
4222   1B73 00                  NOP
4223   1B74 00                  NOP
4224   1B75 00                  NOP
4225   1B76 00                  NOP
4226   1B77 00                  NOP
4227   1B78 00                  NOP
4228   1B79 00                  NOP
4229   1B7A 00                  NOP
4230   1B7B 00                  NOP
4231   1B7C 00                  NOP
4232   1B7D 00                  NOP
4233   1B7E 00                  NOP
4234   1B7F 00                  NOP
4235   1B80 00                  NOP
4236   1B81 00                  NOP
4237   1B82 00                  NOP
4238   1B83 00                  NOP
4239   1B84 00                  NOP
4240   1B85 00                  NOP
4241   1B86 00                  NOP
4242   1B87 00                  NOP
4243   1B88 00                  NOP
4244   1B89 00                  NOP
4245   1B8A 00                  NOP
4246   1B8B 00                  NOP
4247   1B8C 00                  NOP
4248   1B8D 00                  NOP
4249   1B8E 00                  NOP
4250   1B8F 00                  NOP
4251   1B90 00                  NOP
4252   1B91 00                  NOP
4253   1B92 00                  NOP
4254   1B93 00                  NOP
4255   1B94 00                  NOP
4256   1B95 00                  NOP
4257   1B96 00                  NOP
4258   1B97 00                  NOP
4259   1B98 00                  NOP
4260   1B99 00                  NOP
4261   1B9A 00                  NOP
4262   1B9B 00                  NOP
4263   1B9C 00                  NOP
4264   1B9D 00                  NOP
4265   1B9E 00                  NOP
4266   1B9F 00                  NOP
4267   1BA0 00                  NOP
4268   1BA1 00                  NOP
4269   1BA2 00                  NOP
4270   1BA3 00                  NOP
4271   1BA4 00                  NOP
4272   1BA5 00                  NOP
4273   1BA6 00                  NOP
4274   1BA7 00                  NOP
4275   1BA8 00                  NOP
4276   1BA9 00                  NOP
4277   1BAA 00                  NOP
4278   1BAB 00                  NOP
4279   1BAC 00                  NOP
4280   1BAD 00                  NOP
4281   1BAE 00                  NOP
4282   1BAF 00                  NOP
4283   1BB0 00                  NOP
4284   1BB1 00                  NOP
4285   1BB2 00                  NOP
4286   1BB3 00                  NOP
4287   1BB4 00                  NOP
4288   1BB5 00                  NOP
4289   1BB6 00                  NOP
4290   1BB7 00                  NOP
4291   1BB8 00                  NOP
4292   1BB9 00                  NOP
4293   1BBA 00                  NOP
4294   1BBB 00                  NOP
4295   1BBC 00                  NOP
4296   1BBD 00                  NOP
4297   1BBE 00                  NOP
4298   1BBF 00                  NOP
4299   1BC0 00                  NOP
4300   1BC1 00                  NOP
4301   1BC2 00                  NOP
4302   1BC3 00                  NOP
4303   1BC4 00                  NOP
4304   1BC5 00                  NOP
4305   1BC6 00                  NOP
4306   1BC7 00                  NOP
4307   1BC8 00                  NOP
4308   1BC9 00                  NOP
4309   1BCA 00                  NOP
4310   1BCB 00                  NOP
4311   1BCC 00                  NOP
4312   1BCD 00                  NOP
4313   1BCE 00                  NOP
4314   1BCF 00                  NOP
4315   1BD0 00                  NOP
4316   1BD1 00                  NOP
4317   1BD2 00                  NOP
4318   1BD3 00                  NOP
4319   1BD4 00                  NOP
4320   1BD5 00                  NOP
4321   1BD6 00                  NOP
4322   1BD7 00                  NOP
4323   1BD8 00                  NOP
4324   1BD9 00                  NOP
4325   1BDA 00                  NOP
4326   1BDB 00                  NOP
4327   1BDC 00                  NOP
4328   1BDD 00                  NOP
4329   1BDE 00                  NOP
4330   1BDF 00                  NOP
4331   1BE0 00                  NOP
4332   1BE1 00                  NOP
4333   1BE2 00                  NOP
4334   1BE3 00                  NOP
4335   1BE4 00                  NOP
4336   1BE5 00                  NOP
4337   1BE6 00                  NOP
4338   1BE7 00                  NOP
4339   1BE8 00                  NOP
4340   1BE9 00                  NOP
4341   1BEA 00                  NOP
4342   1BEB 00                  NOP
4343   1BEC 00                  NOP
4344   1BED 00                  NOP
4345   1BEE 00                  NOP
4346   1BEF 00                  NOP
4347   1BF0 00                  NOP
4348   1BF1 00                  NOP
4349   1BF2 00                  NOP
4350   1BF3 00                  NOP
4351   1BF4 00                  NOP
4352   1BF5 00                  NOP
4353   1BF6 00                  NOP
4354   1BF7 00                  NOP
4355   1BF8 00                  NOP
4356   1BF9 00                  NOP
4357   1BFA 00                  NOP
4358   1BFB 00                  NOP
4359   1BFC 00                  NOP
4360   1BFD 00                  NOP
4361   1BFE 00                  NOP
4362   1BFF 00                  NOP
4363   1C00 00                  NOP
4364   1C01 00                  NOP
4365   1C02 00                  NOP
4366   1C03 00                  NOP
4367   1C04 00                  NOP
4368   1C05 00                  NOP
4369   1C06 00                  NOP
4370   1C07 00                  NOP
4371   1C08 00                  NOP
4372   1C09 00                  NOP
4373   1C0A 00                  NOP
4374   1C0B 00                  NOP
4375   1C0C 00                  NOP
4376   1C0D 00                  NOP
4377   1C0E 00                  NOP
4378   1C0F 00                  NOP
4379   1C10 00                  NOP
4380   1C11 00                  NOP
4381   1C12 00                  NOP
4382   1C13 00                  NOP
4383   1C14 00                  NOP
4384   1C15 00                  NOP
4385   1C16 00                  NOP
4386   1C17 00                  NOP
4387   1C18 00                  NOP
4388   1C19 00                  NOP
4389   1C1A 00                  NOP
4390   1C1B 00                  NOP
4391   1C1C 00                  NOP
4392   1C1D 00                  NOP
4393   1C1E 00                  NOP
4394   1C1F 00                  NOP
4395   1C20 00                  NOP
4396   1C21 00                  NOP
4397   1C22 00                  NOP
4398   1C23 00                  NOP
4399   1C24 00                  NOP
4400   1C25 00                  NOP
4401   1C26 00                  NOP
4402   1C27 00                  NOP
4403   1C28 00                  NOP
4404   1C29 00                  NOP
4405   1C2A 00                  NOP
4406   1C2B 00                  NOP
4407   1C2C 00                  NOP
4408   1C2D 00                  NOP
4409   1C2E 00                  NOP
4410   1C2F 00                  NOP
4411   1C30 00                  NOP
4412   1C31 00                  NOP
4413   1C32 00                  NOP
4414   1C33 00                  NOP
4415   1C34 00                  NOP
4416   1C35 00                  NOP
4417   1C36 00                  NOP
4418   1C37 00                  NOP
4419   1C38 00                  NOP
4420   1C39 00                  NOP
4421   1C3A 00                  NOP
4422   1C3B 00                  NOP
4423   1C3C 00                  NOP
4424   1C3D 00                  NOP
4425   1C3E 00                  NOP
4426   1C3F 00                  NOP
4427   1C40 00                  NOP
4428   1C41 00                  NOP
4429   1C42 00                  NOP
4430   1C43 00                  NOP
4431   1C44 00                  NOP
4432   1C45 00                  NOP
4433   1C46 00                  NOP
4434   1C47 00                  NOP
4435   1C48 00                  NOP
4436   1C49 00                  NOP
4437   1C4A 00                  NOP
4438   1C4B 00                  NOP
4439   1C4C 00                  NOP
4440   1C4D 00                  NOP
4441   1C4E 00                  NOP
4442   1C4F 00                  NOP
4443   1C50 00                  NOP
4444   1C51 00                  NOP
4445   1C52 00                  NOP
4446   1C53 00                  NOP
4447   1C54 00                  NOP
4448   1C55 00                  NOP
4449   1C56 00                  NOP
4450   1C57 00                  NOP
4451   1C58 00                  NOP
4452   1C59 00                  NOP
4453   1C5A 00                  NOP
4454   1C5B 00                  NOP
4455   1C5C 00                  NOP
4456   1C5D 00                  NOP
4457   1C5E 00                  NOP
4458   1C5F 00                  NOP
4459   1C60 00                  NOP
4460   1C61 00                  NOP
4461   1C62 00                  NOP
4462   1C63 00                  NOP
4463   1C64 00                  NOP
4464   1C65 00                  NOP
4465   1C66 00                  NOP
4466   1C67 00                  NOP
4467   1C68 00                  NOP
4468   1C69 00                  NOP
4469   1C6A 00                  NOP
4470   1C6B 00                  NOP
4471   1C6C 00                  NOP
4472   1C6D 00                  NOP
4473   1C6E 00                  NOP
4474   1C6F 00                  NOP
4475   1C70 00                  NOP
4476   1C71 00                  NOP
4477   1C72 00                  NOP
4478   1C73 00                  NOP
4479   1C74 00                  NOP
4480   1C75 00                  NOP
4481   1C76 00                  NOP
4482   1C77 00                  NOP
4483   1C78 00                  NOP
4484   1C79 00                  NOP
4485   1C7A 00                  NOP
4486   1C7B 00                  NOP
4487   1C7C 00                  NOP
4488   1C7D 00                  NOP
4489   1C7E 00                  NOP
4490   1C7F 00                  NOP
4491   1C80 00                  NOP
4492   1C81 00                  NOP
4493   1C82 00                  NOP
4494   1C83 00                  NOP
4495   1C84 00                  NOP
4496   1C85 00                  NOP
4497   1C86 00                  NOP
4498   1C87 00                  NOP
4499   1C88 00                  NOP
4500   1C89 00                  NOP
4501   1C8A 00                  NOP
4502   1C8B 00                  NOP
4503   1C8C 00                  NOP
4504   1C8D 00                  NOP
4505   1C8E 00                  NOP
4506   1C8F 00                  NOP
4507   1C90 00                  NOP
4508   1C91 00                  NOP
4509   1C92 00                  NOP
4510   1C93 00                  NOP
4511   1C94 00                  NOP
4512   1C95 00                  NOP
4513   1C96 00                  NOP
4514   1C97 00                  NOP
4515   1C98 00                  NOP
4516   1C99 00                  NOP
4517   1C9A 00                  NOP
4518   1C9B 00                  NOP
4519   1C9C 00                  NOP
4520   1C9D 00                  NOP
4521   1C9E 00                  NOP
4522   1C9F 00                  NOP
4523   1CA0 00                  NOP
4524   1CA1 00                  NOP
4525   1CA2 00                  NOP
4526   1CA3 00                  NOP
4527   1CA4 00                  NOP
4528   1CA5 00                  NOP
4529   1CA6 00                  NOP
4530   1CA7 00                  NOP
4531   1CA8 00                  NOP
4532   1CA9 00                  NOP
4533   1CAA 00                  NOP
4534   1CAB 00                  NOP
4535   1CAC 00                  NOP
4536   1CAD 00                  NOP
4537   1CAE 00                  NOP
4538   1CAF 00                  NOP
4539   1CB0 00                  NOP
4540   1CB1 00                  NOP
4541   1CB2 00                  NOP
4542   1CB3 00                  NOP
4543   1CB4 00                  NOP
4544   1CB5 00                  NOP
4545   1CB6 00                  NOP
4546   1CB7 00                  NOP
4547   1CB8 00                  NOP
4548   1CB9 00                  NOP
4549   1CBA 00                  NOP
4550   1CBB 00                  NOP
4551   1CBC 00                  NOP
4552   1CBD 00                  NOP
4553   1CBE 00                  NOP
4554   1CBF 00                  NOP
4555   1CC0 00                  NOP
4556   1CC1 00                  NOP
4557   1CC2 00                  NOP
4558   1CC3 00                  NOP
4559   1CC4 00                  NOP
4560   1CC5 00                  NOP
4561   1CC6 00                  NOP
4562   1CC7 00                  NOP
4563   1CC8 00                  NOP
4564   1CC9 00                  NOP
4565   1CCA 00                  NOP
4566   1CCB 00                  NOP
4567   1CCC 00                  NOP
4568   1CCD 00                  NOP
4569   1CCE 00                  NOP
4570   1CCF 00                  NOP
4571   1CD0 00                  NOP
4572   1CD1 00                  NOP
4573   1CD2 00                  NOP
4574   1CD3 00                  NOP
4575   1CD4 00                  NOP
4576   1CD5 00                  NOP
4577   1CD6 00                  NOP
4578   1CD7 00                  NOP
4579   1CD8 00                  NOP
4580   1CD9 00                  NOP
4581   1CDA 00                  NOP
4582   1CDB 00                  NOP
4583   1CDC 00                  NOP
4584   1CDD 00                  NOP
4585   1CDE 00                  NOP
4586   1CDF 00                  NOP
4587   1CE0 00                  NOP
4588   1CE1 00                  NOP
4589   1CE2 00                  NOP
4590   1CE3 00                  NOP
4591   1CE4 00                  NOP
4592   1CE5 00                  NOP
4593   1CE6 00                  NOP
4594   1CE7 00                  NOP
4595   1CE8 00                  NOP
4596   1CE9 00                  NOP
4597   1CEA 00                  NOP
4598   1CEB 00                  NOP
4599   1CEC 00                  NOP
4600   1CED 00                  NOP
4601   1CEE 00                  NOP
4602   1CEF 00                  NOP
4603   1CF0 00                  NOP
4604   1CF1 00                  NOP
4605   1CF2 00                  NOP
4606   1CF3 00                  NOP
4607   1CF4 00                  NOP
4608   1CF5 00                  NOP
4609   1CF6 00                  NOP
4610   1CF7 00                  NOP
4611   1CF8 00                  NOP
4612   1CF9 00                  NOP
4613   1CFA 00                  NOP
4614   1CFB 00                  NOP
4615   1CFC 00                  NOP
4616   1CFD 00                  NOP
4617   1CFE 00                  NOP
4618   1CFF 00                  NOP
4619   1D00 00                  NOP
4620   1D01 00                  NOP
4621   1D02 00                  NOP
4622   1D03 00                  NOP
4623   1D04 00                  NOP
4624   1D05 00                  NOP
4625   1D06 00                  NOP
4626   1D07 00                  NOP
4627   1D08 00                  NOP
4628   1D09 00                  NOP
4629   1D0A 00                  NOP
4630   1D0B 00                  NOP
4631   1D0C 00                  NOP
4632   1D0D 00                  NOP
4633   1D0E 00                  NOP
4634   1D0F 00                  NOP
4635   1D10 00                  NOP
4636   1D11 00                  NOP
4637   1D12 00                  NOP
4638   1D13 00                  NOP
4639   1D14 00                  NOP
4640   1D15 00                  NOP
4641   1D16 00                  NOP
4642   1D17 00                  NOP
4643   1D18 00                  NOP
4644   1D19 00                  NOP
4645   1D1A 00                  NOP
4646   1D1B 00                  NOP
4647   1D1C 00                  NOP
4648   1D1D 00                  NOP
4649   1D1E 00                  NOP
4650   1D1F 00                  NOP
4651   1D20 00                  NOP
4652   1D21 00                  NOP
4653   1D22 00                  NOP
4654   1D23 00                  NOP
4655   1D24 00                  NOP
4656   1D25 00                  NOP
4657   1D26 00                  NOP
4658   1D27 00                  NOP
4659   1D28 00                  NOP
4660   1D29 00                  NOP
4661   1D2A 00                  NOP
4662   1D2B 00                  NOP
4663   1D2C 00                  NOP
4664   1D2D 00                  NOP
4665   1D2E 00                  NOP
4666   1D2F 00                  NOP
4667   1D30 00                  NOP
4668   1D31 00                  NOP
4669   1D32 00                  NOP
4670   1D33 00                  NOP
4671   1D34 00                  NOP
4672   1D35 00                  NOP
4673   1D36 00                  NOP
4674   1D37 00                  NOP
4675   1D38 00                  NOP
4676   1D39 00                  NOP
4677   1D3A 00                  NOP
4678   1D3B 00                  NOP
4679   1D3C 00                  NOP
4680   1D3D 00                  NOP
4681   1D3E 00                  NOP
4682   1D3F 00                  NOP
4683   1D40 00                  NOP
4684   1D41 00                  NOP
4685   1D42 00                  NOP
4686   1D43 00                  NOP
4687   1D44 00                  NOP
4688   1D45 00                  NOP
4689   1D46 00                  NOP
4690   1D47 00                  NOP
4691   1D48 00                  NOP
4692   1D49 00                  NOP
4693   1D4A 00                  NOP
4694   1D4B 00                  NOP
4695   1D4C 00                  NOP
4696   1D4D 00                  NOP
4697   1D4E 00                  NOP
4698   1D4F 00                  NOP
4699   1D50 00                  NOP
4700   1D51 00                  NOP
4701   1D52 00                  NOP
4702   1D53 00                  NOP
4703   1D54 00                  NOP
4704   1D55 00                  NOP
4705   1D56 00                  NOP
4706   1D57 00                  NOP
4707   1D58 00                  NOP
4708   1D59 00                  NOP
4709   1D5A 00                  NOP
4710   1D5B 00                  NOP
4711   1D5C 00                  NOP
4712   1D5D 00                  NOP
4713   1D5E 00                  NOP
4714   1D5F 00                  NOP
4715   1D60 00                  NOP
4716   1D61 00                  NOP
4717   1D62 00                  NOP
4718   1D63 00                  NOP
4719   1D64 00                  NOP
4720   1D65 00                  NOP
4721   1D66 00                  NOP
4722   1D67 00                  NOP
4723   1D68 00                  NOP
4724   1D69 00                  NOP
4725   1D6A 00                  NOP
4726   1D6B 00                  NOP
4727   1D6C 00                  NOP
4728   1D6D 00                  NOP
4729   1D6E 00                  NOP
4730   1D6F 00                  NOP
4731   1D70 00                  NOP
4732   1D71 00                  NOP
4733   1D72 00                  NOP
4734   1D73 00                  NOP
4735   1D74 00                  NOP
4736   1D75 00                  NOP
4737   1D76 00                  NOP
4738   1D77 00                  NOP
4739   1D78 00                  NOP
4740   1D79 00                  NOP
4741   1D7A 00                  NOP
4742   1D7B 00                  NOP
4743   1D7C 00                  NOP
4744   1D7D 00                  NOP
4745   1D7E 00                  NOP
4746   1D7F 00                  NOP
4747   1D80 00                  NOP
4748   1D81 00                  NOP
4749   1D82 00                  NOP
4750   1D83 00                  NOP
4751   1D84 00                  NOP
4752   1D85 00                  NOP
4753   1D86 00                  NOP
4754   1D87 00                  NOP
4755   1D88 00                  NOP
4756   1D89 00                  NOP
4757   1D8A 00                  NOP
4758   1D8B 00                  NOP
4759   1D8C 00                  NOP
4760   1D8D 00                  NOP
4761   1D8E 00                  NOP
4762   1D8F 00                  NOP
4763   1D90 00                  NOP
4764   1D91 00                  NOP
4765   1D92 00                  NOP
4766   1D93 00                  NOP
4767   1D94 00                  NOP
4768   1D95 00                  NOP
4769   1D96 00                  NOP
4770   1D97 00                  NOP
4771   1D98 00                  NOP
4772   1D99 00                  NOP
4773   1D9A 00                  NOP
4774   1D9B 00                  NOP
4775   1D9C 00                  NOP
4776   1D9D 00                  NOP
4777   1D9E 00                  NOP
4778   1D9F 00                  NOP
4779   1DA0 00                  NOP
4780   1DA1 00                  NOP
4781   1DA2 00                  NOP
4782   1DA3 00                  NOP
4783   1DA4 00                  NOP
4784   1DA5 00                  NOP
4785   1DA6 00                  NOP
4786   1DA7 00                  NOP
4787   1DA8 00                  NOP
4788   1DA9 00                  NOP
4789   1DAA 00                  NOP
4790   1DAB 00                  NOP
4791   1DAC 00                  NOP
4792   1DAD 00                  NOP
4793   1DAE 00                  NOP
4794   1DAF 00                  NOP
4795   1DB0 00                  NOP
4796   1DB1 00                  NOP
4797   1DB2 00                  NOP
4798   1DB3 00                  NOP
4799   1DB4 00                  NOP
4800   1DB5 00                  NOP
4801   1DB6 00                  NOP
4802   1DB7 00                  NOP
4803   1DB8 00                  NOP
4804   1DB9 00                  NOP
4805   1DBA 00                  NOP
4806   1DBB 00                  NOP
4807   1DBC 00                  NOP
4808   1DBD 00                  NOP
4809   1DBE 00                  NOP
4810   1DBF 00                  NOP
4811   1DC0 00                  NOP
4812   1DC1 00                  NOP
4813   1DC2 00                  NOP
4814   1DC3 00                  NOP
4815   1DC4 00                  NOP
4816   1DC5 00                  NOP
4817   1DC6 00                  NOP
4818   1DC7 00                  NOP
4819   1DC8 00                  NOP
4820   1DC9 00                  NOP
4821   1DCA 00                  NOP
4822   1DCB 00                  NOP
4823   1DCC 00                  NOP
4824   1DCD 00                  NOP
4825   1DCE 00                  NOP
4826   1DCF 00                  NOP
4827   1DD0 00                  NOP
4828   1DD1 00                  NOP
4829   1DD2 00                  NOP
4830   1DD3 00                  NOP
4831   1DD4 00                  NOP
4832   1DD5 00                  NOP
4833   1DD6 00                  NOP
4834   1DD7 00                  NOP
4835   1DD8 00                  NOP
4836   1DD9 00                  NOP
4837   1DDA 00                  NOP
4838   1DDB 00                  NOP
4839   1DDC 00                  NOP
4840   1DDD 00                  NOP
4841   1DDE 00                  NOP
4842   1DDF 00                  NOP
4843   1DE0 00                  NOP
4844   1DE1 00                  NOP
4845   1DE2 00                  NOP
4846   1DE3 00                  NOP
4847   1DE4 00                  NOP
4848   1DE5 00                  NOP
4849   1DE6 00                  NOP
4850   1DE7 00                  NOP
4851   1DE8 00                  NOP
4852   1DE9 00                  NOP
4853   1DEA 00                  NOP
4854   1DEB 00                  NOP
4855   1DEC 00                  NOP
4856   1DED 00                  NOP
4857   1DEE 00                  NOP
4858   1DEF 00                  NOP
4859   1DF0 00                  NOP
4860   1DF1 00                  NOP
4861   1DF2 00                  NOP
4862   1DF3 00                  NOP
4863   1DF4 00                  NOP
4864   1DF5 00                  NOP
4865   1DF6 00                  NOP
4866   1DF7 00                  NOP
4867   1DF8 00                  NOP
4868   1DF9 00                  NOP
4869   1DFA 00                  NOP
4870   1DFB 00                  NOP
4871   1DFC 00                  NOP
4872   1DFD 00                  NOP
4873   1DFE 00                  NOP
4874   1DFF 00                  NOP
4875   1E00 00                  NOP
4876   1E01 00                  NOP
4877   1E02 00                  NOP
4878   1E03 00                  NOP
4879   1E04 00                  NOP
4880   1E05 00                  NOP
4881   1E06 00                  NOP
4882   1E07 00                  NOP
4883   1E08 00                  NOP
4884   1E09 00                  NOP
4885   1E0A 00                  NOP
4886   1E0B 00                  NOP
4887   1E0C 00                  NOP
4888   1E0D 00                  NOP
4889   1E0E 00                  NOP
4890   1E0F 00                  NOP
4891   1E10 00                  NOP
4892   1E11 00                  NOP
4893   1E12 00                  NOP
4894   1E13 00                  NOP
4895   1E14 00                  NOP
4896   1E15 00                  NOP
4897   1E16 00                  NOP
4898   1E17 00                  NOP
4899   1E18 00                  NOP
4900   1E19 00                  NOP
4901   1E1A 00                  NOP
4902   1E1B 00                  NOP
4903   1E1C 00                  NOP
4904   1E1D 00                  NOP
4905   1E1E 00                  NOP
4906   1E1F 00                  NOP
4907   1E20 00                  NOP
4908   1E21 00                  NOP
4909   1E22 00                  NOP
4910   1E23 00                  NOP
4911   1E24 00                  NOP
4912   1E25 00                  NOP
4913   1E26 00                  NOP
4914   1E27 00                  NOP
4915   1E28 00                  NOP
4916   1E29 00                  NOP
4917   1E2A 00                  NOP
4918   1E2B 00                  NOP
4919   1E2C 00                  NOP
4920   1E2D 00                  NOP
4921   1E2E 00                  NOP
4922   1E2F 00                  NOP
4923   1E30 00                  NOP
4924   1E31 00                  NOP
4925   1E32 00                  NOP
4926   1E33 00                  NOP
4927   1E34 00                  NOP
4928   1E35 00                  NOP
4929   1E36 00                  NOP
4930   1E37 00                  NOP
4931   1E38 00                  NOP
4932   1E39 00                  NOP
4933   1E3A 00                  NOP
4934   1E3B 00                  NOP
4935   1E3C 00                  NOP
4936   1E3D 00                  NOP
4937   1E3E 00                  NOP
4938   1E3F 00                  NOP
4939   1E40 00                  NOP
4940   1E41 00                  NOP
4941   1E42 00                  NOP
4942   1E43 00                  NOP
4943   1E44 00                  NOP
4944   1E45 00                  NOP
4945   1E46 00                  NOP
4946   1E47 00                  NOP
4947   1E48 00                  NOP
4948   1E49 00                  NOP
4949   1E4A 00                  NOP
4950   1E4B 00                  NOP
4951   1E4C 00                  NOP
4952   1E4D 00                  NOP
4953   1E4E 00                  NOP
4954   1E4F 00                  NOP
4955   1E50 00                  NOP
4956   1E51 00                  NOP
4957   1E52 00                  NOP
4958   1E53 00                  NOP
4959   1E54 00                  NOP
4960   1E55 00                  NOP
4961   1E56 00                  NOP
4962   1E57 00                  NOP
4963   1E58 00                  NOP
4964   1E59 00                  NOP
4965   1E5A 00                  NOP
4966   1E5B 00                  NOP
4967   1E5C 00                  NOP
4968   1E5D 00                  NOP
4969   1E5E 00                  NOP
4970   1E5F 00                  NOP
4971   1E60 00                  NOP
4972   1E61 00                  NOP
4973   1E62 00                  NOP
4974   1E63 00                  NOP
4975   1E64 00                  NOP
4976   1E65 00                  NOP
4977   1E66 00                  NOP
4978   1E67 00                  NOP
4979   1E68 00                  NOP
4980   1E69 00                  NOP
4981   1E6A 00                  NOP
4982   1E6B 00                  NOP
4983   1E6C 00                  NOP
4984   1E6D 00                  NOP
4985   1E6E 00                  NOP
4986   1E6F 00                  NOP
4987   1E70 00                  NOP
4988   1E71 00                  NOP
4989   1E72 00                  NOP
4990   1E73 00                  NOP
4991   1E74 00                  NOP
4992   1E75 00                  NOP
4993   1E76 00                  NOP
4994   1E77 00                  NOP
4995   1E78 00                  NOP
4996   1E79 00                  NOP
4997   1E7A 00                  NOP
4998   1E7B 00                  NOP
4999   1E7C 00                  NOP
5000   1E7D 00                  NOP
5001   1E7E 00                  NOP
5002   1E7F 00                  NOP
5003   1E80 00                  NOP
5004   1E81 00                  NOP
5005   1E82 00                  NOP
5006   1E83 00                  NOP
5007   1E84 00                  NOP
5008   1E85 00                  NOP
5009   1E86 00                  NOP
5010   1E87 00                  NOP
5011   1E88 00                  NOP
5012   1E89 00                  NOP
5013   1E8A 00                  NOP
5014   1E8B 00                  NOP
5015   1E8C 00                  NOP
5016   1E8D 00                  NOP
5017   1E8E 00                  NOP
5018   1E8F 00                  NOP
5019   1E90 00                  NOP
5020   1E91 00                  NOP
5021   1E92 00                  NOP
5022   1E93 00                  NOP
5023   1E94 00                  NOP
5024   1E95 00                  NOP
5025   1E96 00                  NOP
5026   1E97 00                  NOP
5027   1E98 00                  NOP
5028   1E99 00                  NOP
5029   1E9A 00                  NOP
5030   1E9B 00                  NOP
5031   1E9C 00                  NOP
5032   1E9D 00                  NOP
5033   1E9E 00                  NOP
5034   1E9F 00                  NOP
5035   1EA0 00                  NOP
5036   1EA1 00                  NOP
5037   1EA2 00                  NOP
5038   1EA3 00                  NOP
5039   1EA4 00                  NOP
5040   1EA5 00                  NOP
5041   1EA6 00                  NOP
5042   1EA7 00                  NOP
5043   1EA8 00                  NOP
5044   1EA9 00                  NOP
5045   1EAA 00                  NOP
5046   1EAB 00                  NOP
5047   1EAC 00                  NOP
5048   1EAD 00                  NOP
5049   1EAE 00                  NOP
5050   1EAF 00                  NOP
5051   1EB0 00                  NOP
5052   1EB1 00                  NOP
5053   1EB2 00                  NOP
5054   1EB3 00                  NOP
5055   1EB4 00                  NOP
5056   1EB5 00                  NOP
5057   1EB6 00                  NOP
5058   1EB7 00                  NOP
5059   1EB8 00                  NOP
5060   1EB9 00                  NOP
5061   1EBA 00                  NOP
5062   1EBB 00                  NOP
5063   1EBC 00                  NOP
5064   1EBD 00                  NOP
5065   1EBE 00                  NOP
5066   1EBF 00                  NOP
5067   1EC0 00                  NOP
5068   1EC1 00                  NOP
5069   1EC2 00                  NOP
5070   1EC3 00                  NOP
5071   1EC4 00                  NOP
5072   1EC5 00                  NOP
5073   1EC6 00                  NOP
5074   1EC7 00                  NOP
5075   1EC8 00                  NOP
5076   1EC9 00                  NOP
5077   1ECA 00                  NOP
5078   1ECB 00                  NOP
5079   1ECC 00                  NOP
5080   1ECD 00                  NOP
5081   1ECE 00                  NOP
5082   1ECF 00                  NOP
5083   1ED0 00                  NOP
5084   1ED1 00                  NOP
5085   1ED2 00                  NOP
5086   1ED3 00                  NOP
5087   1ED4 00                  NOP
5088   1ED5 00                  NOP
5089   1ED6 00                  NOP
5090   1ED7 00                  NOP
5091   1ED8 00                  NOP
5092   1ED9 00                  NOP
5093   1EDA 00                  NOP
5094   1EDB 00                  NOP
5095   1EDC 00                  NOP
5096   1EDD 00                  NOP
5097   1EDE 00                  NOP
5098   1EDF 00                  NOP
5099   1EE0 00                  NOP
5100   1EE1 00                  NOP
5101   1EE2 00                  NOP
5102   1EE3 00                  NOP
5103   1EE4 00                  NOP
5104   1EE5 00                  NOP
5105   1EE6 00                  NOP
5106   1EE7 00                  NOP
5107   1EE8 00                  NOP
5108   1EE9 00                  NOP
5109   1EEA 00                  NOP
5110   1EEB 00                  NOP
5111   1EEC 00                  NOP
5112   1EED 00                  NOP
5113   1EEE 00                  NOP
5114   1EEF 00                  NOP
5115   1EF0 00                  NOP
5116   1EF1 00                  NOP
5117   1EF2 00                  NOP
5118   1EF3 00                  NOP
5119   1EF4 00                  NOP
5120   1EF5 00                  NOP
5121   1EF6 00                  NOP
5122   1EF7 00                  NOP
5123   1EF8 00                  NOP
5124   1EF9 00                  NOP
5125   1EFA 00                  NOP
5126   1EFB 00                  NOP
5127   1EFC 00                  NOP
5128   1EFD 00                  NOP
5129   1EFE 00                  NOP
5130   1EFF 00                  NOP
5131   1F00 00                  NOP
5132   1F01 00                  NOP
5133   1F02 00                  NOP
5134   1F03 00                  NOP
5135   1F04 00                  NOP
5136   1F05 00                  NOP
5137   1F06 00                  NOP
5138   1F07 00                  NOP
5139   1F08 00                  NOP
5140   1F09 00                  NOP
5141   1F0A 00                  NOP
5142   1F0B 00                  NOP
5143   1F0C 00                  NOP
5144   1F0D 00                  NOP
5145   1F0E 00                  NOP
5146   1F0F 00                  NOP
5147   1F10 00                  NOP
5148   1F11 00                  NOP
5149   1F12 00                  NOP
5150   1F13 00                  NOP
5151   1F14 00                  NOP
5152   1F15 00                  NOP
5153   1F16 00                  NOP
5154   1F17 00                  NOP
5155   1F18 00                  NOP
5156   1F19 00                  NOP
5157   1F1A 00                  NOP
5158   1F1B 00                  NOP
5159   1F1C 00                  NOP
5160   1F1D 00                  NOP
5161   1F1E 00                  NOP
5162   1F1F 00                  NOP
5163   1F20 00                  NOP
5164   1F21 00                  NOP
5165   1F22 00                  NOP
5166   1F23 00                  NOP
5167   1F24 00                  NOP
5168   1F25 00                  NOP
5169   1F26 00                  NOP
5170   1F27 00                  NOP
5171   1F28 00                  NOP
5172   1F29 00                  NOP
5173   1F2A 00                  NOP
5174   1F2B 00                  NOP
5175   1F2C 00                  NOP
5176   1F2D 00                  NOP
5177   1F2E 00                  NOP
5178   1F2F 00                  NOP
5179   1F30 00                  NOP
5180   1F31 00                  NOP
5181   1F32 00                  NOP
5182   1F33 00                  NOP
5183   1F34 00                  NOP
5184   1F35 00                  NOP
5185   1F36 00                  NOP
5186   1F37 00                  NOP
5187   1F38 00                  NOP
5188   1F39 00                  NOP
5189   1F3A 00                  NOP
5190   1F3B 00                  NOP
5191   1F3C 00                  NOP
5192   1F3D 00                  NOP
5193   1F3E 00                  NOP
5194   1F3F 00                  NOP
5195   1F40 00                  NOP
5196   1F41 00                  NOP
5197   1F42 00                  NOP
5198   1F43 00                  NOP
5199   1F44 00                  NOP
5200   1F45 00                  NOP
5201   1F46 00                  NOP
5202   1F47 00                  NOP
5203   1F48 00                  NOP
5204   1F49 00                  NOP
5205   1F4A 00                  NOP
5206   1F4B 00                  NOP
5207   1F4C 00                  NOP
5208   1F4D 00                  NOP
5209   1F4E 00                  NOP
5210   1F4F 00                  NOP
5211   1F50 00                  NOP
5212   1F51 00                  NOP
5213   1F52 00                  NOP
5214   1F53 00                  NOP
5215   1F54 00                  NOP
5216   1F55 00                  NOP
5217   1F56 00                  NOP
5218   1F57 00                  NOP
5219   1F58 00                  NOP
5220   1F59 00                  NOP
5221   1F5A 00                  NOP
5222   1F5B 00                  NOP
5223   1F5C 00                  NOP
5224   1F5D 00                  NOP
5225   1F5E 00                  NOP
5226   1F5F 00                  NOP
5227   1F60 00                  NOP
5228   1F61 00                  NOP
5229   1F62 00                  NOP
5230   1F63 00                  NOP
5231   1F64 00                  NOP
5232   1F65 00                  NOP
5233   1F66 00                  NOP
5234   1F67 00                  NOP
5235   1F68 00                  NOP
5236   1F69 00                  NOP
5237   1F6A 00                  NOP
5238   1F6B 00                  NOP
5239   1F6C 00                  NOP
5240   1F6D 00                  NOP
5241   1F6E 00                  NOP
5242   1F6F 00                  NOP
5243   1F70 00                  NOP
5244   1F71 00                  NOP
5245   1F72 00                  NOP
5246   1F73 00                  NOP
5247   1F74 00                  NOP
5248   1F75 00                  NOP
5249   1F76 00                  NOP
5250   1F77 00                  NOP
5251   1F78 00                  NOP
5252   1F79 00                  NOP
5253   1F7A 00                  NOP
5254   1F7B 00                  NOP
5255   1F7C 00                  NOP
5256   1F7D 00                  NOP
5257   1F7E 00                  NOP
5258   1F7F 00                  NOP
5259   1F80 00                  NOP
5260   1F81 00                  NOP
5261   1F82 00                  NOP
5262   1F83 00                  NOP
5263   1F84 00                  NOP
5264   1F85 00                  NOP
5265   1F86 00                  NOP
5266   1F87 00                  NOP
5267   1F88 00                  NOP
5268   1F89 00                  NOP
5269   1F8A 00                  NOP
5270   1F8B 00                  NOP
5271   1F8C 00                  NOP
5272   1F8D 00                  NOP
5273   1F8E 00                  NOP
5274   1F8F 00                  NOP
5275   1F90 00                  NOP
5276   1F91 00                  NOP
5277   1F92 00                  NOP
5278   1F93 00                  NOP
5279   1F94 00                  NOP
5280   1F95 00                  NOP
5281   1F96 00                  NOP
5282   1F97 00                  NOP
5283   1F98 00                  NOP
5284   1F99 00                  NOP
5285   1F9A 00                  NOP
5286   1F9B 00                  NOP
5287   1F9C 00                  NOP
5288   1F9D 00                  NOP
5289   1F9E 00                  NOP
5290   1F9F 00                  NOP
5291   1FA0 00                  NOP
5292   1FA1 00                  NOP
5293   1FA2 00                  NOP
5294   1FA3 00                  NOP
5295   1FA4 00                  NOP
5296   1FA5 00                  NOP
5297   1FA6 00                  NOP
5298   1FA7 00                  NOP
5299   1FA8 00                  NOP
5300   1FA9 00                  NOP
5301   1FAA 00                  NOP
5302   1FAB 00                  NOP
5303   1FAC 00                  NOP
5304   1FAD 00                  NOP
5305   1FAE 00                  NOP
5306   1FAF 00                  NOP
5307   1FB0 00                  NOP
5308   1FB1 00                  NOP
5309   1FB2 00                  NOP
5310   1FB3 00                  NOP
5311   1FB4 00                  NOP
5312   1FB5 00                  NOP
5313   1FB6 00                  NOP
5314   1FB7 00                  NOP
5315   1FB8 00                  NOP
5316   1FB9 00                  NOP
5317   1FBA 00                  NOP
5318   1FBB 00                  NOP
5319   1FBC 00                  NOP
5320   1FBD 00                  NOP
5321   1FBE 00                  NOP
5322   1FBF 00                  NOP
5323   1FC0 00                  NOP
5324   1FC1 00                  NOP
5325   1FC2 00                  NOP
5326   1FC3 00                  NOP
5327   1FC4 00                  NOP
5328   1FC5 00                  NOP
5329   1FC6 00                  NOP
5330   1FC7 00                  NOP
5331   1FC8 00                  NOP
5332   1FC9 00                  NOP
5333   1FCA 00                  NOP
5334   1FCB 00                  NOP
5335   1FCC 00                  NOP
5336   1FCD 00                  NOP
5337   1FCE 00                  NOP
5338   1FCF 00                  NOP
5339   1FD0 00                  NOP
5340   1FD1 00                  NOP
5341   1FD2 00                  NOP
5342   1FD3 00                  NOP
5343   1FD4 00                  NOP
5344   1FD5 00                  NOP
5345   1FD6 00                  NOP
5346   1FD7 00                  NOP
5347   1FD8 00                  NOP
5348   1FD9 00                  NOP
5349   1FDA 00                  NOP
5350   1FDB 00                  NOP
5351   1FDC 00                  NOP
5352   1FDD 00                  NOP
5353   1FDE 00                  NOP
5354   1FDF 00                  NOP
5355   1FE0 00                  NOP
5356   1FE1 00                  NOP
5357   1FE2 00                  NOP
5358   1FE3 00                  NOP
5359   1FE4 00                  NOP
5360   1FE5 00                  NOP
5361   1FE6 00                  NOP
5362   1FE7 00                  NOP
5363   1FE8 00                  NOP
5364   1FE9 00                  NOP
5365   1FEA 00                  NOP
5366   1FEB 00                  NOP
5367   1FEC 00                  NOP
5368   1FED 00                  NOP
5369   1FEE 00                  NOP
5370   1FEF 00                  NOP
5371   1FF0 00                  NOP
5372   1FF1 00                  NOP
5373   1FF2 00                  NOP
5374   1FF3 00                  NOP
5375   1FF4 00                  NOP
5376   1FF5 00                  NOP
5377   1FF6 00                  NOP
5378   1FF7 00                  NOP
5379   1FF8 00                  NOP
5380   1FF9 00                  NOP
5381   1FFA 00                  NOP
5382   1FFB 00                  NOP
5383   1FFC 00                  NOP
5384   1FFD 00                  NOP
5385   1FFE 00                  NOP
5386   1FFF 00                  NOP
5387   2000 00                  NOP
5388   2001 00                  NOP
5389   2002 00                  NOP
5390   2003 00                  NOP
5391   2004 00                  NOP
5392   2005 00                  NOP
5393   2006 00                  NOP
5394   2007 00                  NOP
5395   2008 00                  NOP
5396   2009 00                  NOP
5397   200A 00                  NOP
5398   200B 00                  NOP
5399   200C 00                  NOP
5400   200D 00                  NOP
5401   200E 00                  NOP
5402   200F 00                  NOP
5403   2010 00                  NOP
5404   2011 00                  NOP
5405   2012 00                  NOP
5406   2013 00                  NOP
5407   2014 00                  NOP
5408   2015 00                  NOP
5409   2016 00                  NOP
5410   2017 00                  NOP
5411   2018 00                  NOP
5412   2019 00                  NOP
5413   201A 00                  NOP
5414   201B 00                  NOP
5415   201C 00                  NOP
5416   201D 00                  NOP
5417   201E 00                  NOP
5418   201F 00                  NOP
5419   2020 00                  NOP
5420   2021 00                  NOP
5421   2022 00                  NOP
5422   2023 00                  NOP
5423   2024 00                  NOP
5424   2025 00                  NOP
5425   2026 00                  NOP
5426   2027 00                  NOP
5427   2028 00                  NOP
5428   2029 00                  NOP
5429   202A 00                  NOP
5430   202B 00                  NOP
5431   202C 00                  NOP
5432   202D 00                  NOP
5433   202E 00                  NOP
5434   202F 00                  NOP
5435   2030 00                  NOP
5436   2031 00                  NOP
5437   2032 00                  NOP
5438   2033 00                  NOP
5439   2034 00                  NOP
5440   2035 00                  NOP
5441   2036 00                  NOP
5442   2037 00                  NOP
5443   2038 00                  NOP
5444   2039 00                  NOP
5445   203A 00                  NOP
5446   203B 00                  NOP
5447   203C 00                  NOP
5448   203D 00                  NOP
5449   203E 00                  NOP
5450   203F 00                  NOP
5451   2040 00                  NOP
5452   2041 00                  NOP
5453   2042 00                  NOP
5454   2043 00                  NOP
5455   2044 00                  NOP
5456   2045 00                  NOP
5457   2046 00                  NOP
5458   2047 00                  NOP
5459   2048 00                  NOP
5460   2049 00                  NOP
5461   204A 00                  NOP
5462   204B 00                  NOP
5463   204C 00                  NOP
5464   204D 00                  NOP
5465   204E 00                  NOP
5466   204F 00                  NOP
5467   2050 00                  NOP
5468   2051 00                  NOP
5469   2052 00                  NOP
5470   2053 00                  NOP
5471   2054 00                  NOP
5472   2055 00                  NOP
5473   2056 00                  NOP
5474   2057 00                  NOP
5475   2058 00                  NOP
5476   2059 00                  NOP
5477   205A 00                  NOP
5478   205B 00                  NOP
5479   205C 00                  NOP
5480   205D 00                  NOP
5481   205E 00                  NOP
5482   205F 00                  NOP
5483   2060 00                  NOP
5484   2061 00                  NOP
5485   2062 00                  NOP
5486   2063 00                  NOP
5487   2064 00                  NOP
5488   2065 00                  NOP
5489   2066 00                  NOP
5490   2067 00                  NOP
5491   2068 00                  NOP
5492   2069 00                  NOP
5493   206A 00                  NOP
5494   206B 00                  NOP
5495   206C 00                  NOP
5496   206D 00                  NOP
5497   206E 00                  NOP
5498   206F 00                  NOP
5499   2070 00                  NOP
5500   2071 00                  NOP
5501   2072 00                  NOP
5502   2073 00                  NOP
5503   2074 00                  NOP
5504   2075 00                  NOP
5505   2076 00                  NOP
5506   2077 00                  NOP
5507   2078 00                  NOP
5508   2079 00                  NOP
5509   207A 00                  NOP
5510   207B 00                  NOP
5511   207C 00                  NOP
5512   207D 00                  NOP
5513   207E 00                  NOP
5514   207F 00                  NOP
5515   2080 00                  NOP
5516   2081 00                  NOP
5517   2082 00                  NOP
5518   2083 00                  NOP
5519   2084 00                  NOP
5520   2085 00                  NOP
5521   2086 00                  NOP
5522   2087 00                  NOP
5523   2088 00                  NOP
5524   2089 00                  NOP
5525   208A 00                  NOP
5526   208B 00                  NOP
5527   208C 00                  NOP
5528   208D 00                  NOP
5529   208E 00                  NOP
5530   208F 00                  NOP
5531   2090 00                  NOP
5532   2091 00                  NOP
5533   2092 00                  NOP
5534   2093 00                  NOP
5535   2094 00                  NOP
5536   2095 00                  NOP
5537   2096 00                  NOP
5538   2097 00                  NOP
5539   2098 00                  NOP
5540   2099 00                  NOP
5541   209A 00                  NOP
5542   209B 00                  NOP
5543   209C 00                  NOP
5544   209D 00                  NOP
5545   209E 00                  NOP
5546   209F 00                  NOP
5547   20A0 00                  NOP
5548   20A1 00                  NOP
5549   20A2 00                  NOP
5550   20A3 00                  NOP
5551   20A4 00                  NOP
5552   20A5 00                  NOP
5553   20A6 00                  NOP
5554   20A7 00                  NOP
5555   20A8 00                  NOP
5556   20A9 00                  NOP
5557   20AA 00                  NOP
5558   20AB 00                  NOP
5559   20AC 00                  NOP
5560   20AD 00                  NOP
5561   20AE 00                  NOP
5562   20AF 00                  NOP
5563   20B0 00                  NOP
5564   20B1 00                  NOP
5565   20B2 00                  NOP
5566   20B3 00                  NOP
5567   20B4 00                  NOP
5568   20B5 00                  NOP
5569   20B6 00                  NOP
5570   20B7 00                  NOP
5571   20B8 00                  NOP
5572   20B9 00                  NOP
5573   20BA 00                  NOP
5574   20BB 00                  NOP
5575   20BC 00                  NOP
5576   20BD 00                  NOP
5577   20BE 00                  NOP
5578   20BF 00                  NOP
5579   20C0 00                  NOP
5580   20C1 00                  NOP
5581   20C2 00                  NOP
5582   20C3 00                  NOP
5583   20C4 00                  NOP
5584   20C5 00                  NOP
5585   20C6 00                  NOP
5586   20C7 00                  NOP
5587   20C8 00                  NOP
5588   20C9 00                  NOP
5589   20CA 00                  NOP
5590   20CB 00                  NOP
5591   20CC 00                  NOP
5592   20CD 00                  NOP
5593   20CE 00                  NOP
5594   20CF 00                  NOP
5595   20D0 00                  NOP
5596   20D1 00                  NOP
5597   20D2 00                  NOP
5598   20D3 00                  NOP
5599   20D4 00                  NOP
5600   20D5 00                  NOP
5601   20D6 00                  NOP
5602   20D7 00                  NOP
5603   20D8 00                  NOP
5604   20D9 00                  NOP
5605   20DA 00                  NOP
5606   20DB 00                  NOP
5607   20DC 00                  NOP
5608   20DD 00                  NOP
5609   20DE 00                  NOP
5610   20DF 00                  NOP
5611   20E0 00                  NOP
5612   20E1 00                  NOP
5613   20E2 00                  NOP
5614   20E3 00                  NOP
5615   20E4 00                  NOP
5616   20E5 00                  NOP
5617   20E6 00                  NOP
5618   20E7 00                  NOP
5619   20E8 00                  NOP
5620   20E9 00                  NOP
5621   20EA 00                  NOP
5622   20EB 00                  NOP
5623   20EC 00                  NOP
5624   20ED 00                  NOP
5625   20EE 00                  NOP
5626   20EF 00                  NOP
5627   20F0 00                  NOP
5628   20F1 00                  NOP
5629   20F2 00                  NOP
5630   20F3 00                  NOP
5631   20F4 00                  NOP
5632   20F5 00                  NOP
5633   20F6 00                  NOP
5634   20F7 00                  NOP
5635   20F8 00                  NOP
5636   20F9 00                  NOP
5637   20FA 00                  NOP
5638   20FB 00                  NOP
5639   20FC 00                  NOP
5640   20FD 00                  NOP
5641   20FE 00                  NOP
5642   20FF 00                  NOP
5643   2100 00                  NOP
5644   2101 00                  NOP
5645   2102 00                  NOP
5646   2103 00                  NOP
5647   2104 00                  NOP
5648   2105 00                  NOP
5649   2106 00                  NOP
5650   2107 00                  NOP
5651   2108 00                  NOP
5652   2109 00                  NOP
5653   210A 00                  NOP
5654   210B 00                  NOP
5655   210C 00                  NOP
5656   210D 00                  NOP
5657   210E 00                  NOP
5658   210F 00                  NOP
5659   2110 00                  NOP
5660   2111 00                  NOP
5661   2112 00                  NOP
5662   2113 00                  NOP
5663   2114 00                  NOP
5664   2115 00                  NOP
5665   2116 00                  NOP
5666   2117 00                  NOP
5667   2118 00                  NOP
5668   2119 00                  NOP
5669   211A 00                  NOP
5670   211B 00                  NOP
5671   211C 00                  NOP
5672   211D 00                  NOP
5673   211E 00                  NOP
5674   211F 00                  NOP
5675   2120 00                  NOP
5676   2121 00                  NOP
5677   2122 00                  NOP
5678   2123 00                  NOP
5679   2124 00                  NOP
5680   2125 00                  NOP
5681   2126 00                  NOP
5682   2127 00                  NOP
5683   2128 00                  NOP
5684   2129 00                  NOP
5685   212A 00                  NOP
5686   212B 00                  NOP
5687   212C 00                  NOP
5688   212D 00                  NOP
5689   212E 00                  NOP
5690   212F 00                  NOP
5691   2130 00                  NOP
5692   2131 00                  NOP
5693   2132 00                  NOP
5694   2133 00                  NOP
5695   2134 00                  NOP
5696   2135 00                  NOP
5697   2136 00                  NOP
5698   2137 00                  NOP
5699   2138 00                  NOP
5700   2139 00                  NOP
5701   213A 00                  NOP
5702   213B 00                  NOP
5703   213C 00                  NOP
5704   213D 00                  NOP
5705   213E 00                  NOP
5706   213F 00                  NOP
5707   2140 00                  NOP
5708   2141 00                  NOP
5709   2142 00                  NOP
5710   2143 00                  NOP
5711   2144 00                  NOP
5712   2145 00                  NOP
5713   2146 00                  NOP
5714   2147 00                  NOP
5715   2148 00                  NOP
5716   2149 00                  NOP
5717   214A 00                  NOP
5718   214B 00                  NOP
5719   214C 00                  NOP
5720   214D 00                  NOP
5721   214E 00                  NOP
5722   214F 00                  NOP
5723   2150 00                  NOP
5724   2151 00                  NOP
5725   2152 00                  NOP
5726   2153 00                  NOP
5727   2154 00                  NOP
5728   2155 00                  NOP
5729   2156 00                  NOP
5730   2157 00                  NOP
5731   2158 00                  NOP
5732   2159 00                  NOP
5733   215A 00                  NOP
5734   215B 00                  NOP
5735   215C 00                  NOP
5736   215D 00                  NOP
5737   215E 00                  NOP
5738   215F 00                  NOP
5739   2160 00                  NOP
5740   2161 00                  NOP
5741   2162 00                  NOP
5742   2163 00                  NOP
5743   2164 00                  NOP
5744   2165 00                  NOP
5745   2166 00                  NOP
5746   2167 00                  NOP
5747   2168 00                  NOP
5748   2169 00                  NOP
5749   216A 00                  NOP
5750   216B 00                  NOP
5751   216C 00                  NOP
5752   216D 00                  NOP
5753   216E 00                  NOP
5754   216F 00                  NOP
5755   2170 00                  NOP
5756   2171 00                  NOP
5757   2172 00                  NOP
5758   2173 00                  NOP
5759   2174 00                  NOP
5760   2175 00                  NOP
5761   2176 00                  NOP
5762   2177 00                  NOP
5763   2178 00                  NOP
5764   2179 00                  NOP
5765   217A 00                  NOP
5766   217B 00                  NOP
5767   217C 00                  NOP
5768   217D 00                  NOP
5769   217E 00                  NOP
5770   217F 00                  NOP
5771   2180 00                  NOP
5772   2181 00                  NOP
5773   2182 00                  NOP
5774   2183 00                  NOP
5775   2184 00                  NOP
5776   2185 00                  NOP
5777   2186 00                  NOP
5778   2187 00                  NOP
5779   2188 00                  NOP
5780   2189 00                  NOP
5781   218A 00                  NOP
5782   218B 00                  NOP
5783   218C 00                  NOP
5784   218D 00                  NOP
5785   218E 00                  NOP
5786   218F 00                  NOP
5787   2190 00                  NOP
5788   2191 00                  NOP
5789   2192 00                  NOP
5790   2193 00                  NOP
5791   2194 00                  NOP
5792   2195 00                  NOP
5793   2196 00                  NOP
5794   2197 00                  NOP
5795   2198 00                  NOP
5796   2199 00                  NOP
5797   219A 00                  NOP
5798   219B 00                  NOP
5799   219C 00                  NOP
5800   219D 00                  NOP
5801   219E 00                  NOP
5802   219F 00                  NOP
5803   21A0 00                  NOP
5804   21A1 00                  NOP
5805   21A2 00                  NOP
5806   21A3 00                  NOP
5807   21A4 00                  NOP
5808   21A5 00                  NOP
5809   21A6 00                  NOP
5810   21A7 00                  NOP
5811   21A8 00                  NOP
5812   21A9 00                  NOP
5813   21AA 00                  NOP
5814   21AB 00                  NOP
5815   21AC 00                  NOP
5816   21AD 00                  NOP
5817   21AE 00                  NOP
5818   21AF 00                  NOP
5819   21B0 00                  NOP
5820   21B1 00                  NOP
5821   21B2 00                  NOP
5822   21B3 00                  NOP
5823   21B4 00                  NOP
5824   21B5 00                  NOP
5825   21B6 00                  NOP
5826   21B7 00                  NOP
5827   21B8 00                  NOP
5828   21B9 00                  NOP
5829   21BA 00                  NOP
5830   21BB 00                  NOP
5831   21BC 00                  NOP
5832   21BD 00                  NOP
5833   21BE 00                  NOP
5834   21BF 00                  NOP
5835   21C0 00                  NOP
5836   21C1 00                  NOP
5837   21C2 00                  NOP
5838   21C3 00                  NOP
5839   21C4 00                  NOP
5840   21C5 00                  NOP
5841   21C6 00                  NOP
5842   21C7 00                  NOP
5843   21C8 00                  NOP
5844   21C9 00                  NOP
5845   21CA 00                  NOP
5846   21CB 00                  NOP
5847   21CC 00                  NOP
5848   21CD 00                  NOP
5849   21CE 00                  NOP
5850   21CF 00                  NOP
5851   21D0 00                  NOP
5852   21D1 00                  NOP
5853   21D2 00                  NOP
5854   21D3 00                  NOP
5855   21D4 00                  NOP
5856   21D5 00                  NOP
5857   21D6 00                  NOP
5858   21D7 00                  NOP
5859   21D8 00                  NOP
5860   21D9 00                  NOP
5861   21DA 00                  NOP
5862   21DB 00                  NOP
5863   21DC 00                  NOP
5864   21DD 00                  NOP
5865   21DE 00                  NOP
5866   21DF 00                  NOP
5867   21E0 00                  NOP
5868   21E1 00                  NOP
5869   21E2 00                  NOP
5870   21E3 00                  NOP
5871   21E4 00                  NOP
5872   21E5 00                  NOP
5873   21E6 00                  NOP
5874   21E7 00                  NOP
5875   21E8 00                  NOP
5876   21E9 00                  NOP
5877   21EA 00                  NOP
5878   21EB 00                  NOP
5879   21EC 00                  NOP
5880   21ED 00                  NOP
5881   21EE 00                  NOP
5882   21EF 00                  NOP
5883   21F0 00                  NOP
5884   21F1 00                  NOP
5885   21F2 00                  NOP
5886   21F3 00                  NOP
5887   21F4 00                  NOP
5888   21F5 00                  NOP
5889   21F6 00                  NOP
5890   21F7 00                  NOP
5891   21F8 00                  NOP
5892   21F9 00                  NOP
5893   21FA 00                  NOP
5894   21FB 00                  NOP
5895   21FC 00                  NOP
5896   21FD 00                  NOP
5897   21FE 00                  NOP
5898   21FF 00                  NOP
5899   2200 00                  NOP
5900   2201 00                  NOP
5901   2202 00                  NOP
5902   2203 00                  NOP
5903   2204 00                  NOP
5904   2205 00                  NOP
5905   2206 00                  NOP
5906   2207 00                  NOP
5907   2208 00                  NOP
5908   2209 00                  NOP
5909   220A 00                  NOP
5910   220B 00                  NOP
5911   220C 00                  NOP
5912   220D 00                  NOP
5913   220E 00                  NOP
5914   220F 00                  NOP
5915   2210 00                  NOP
5916   2211 00                  NOP
5917   2212 00                  NOP
5918   2213 00                  NOP
5919   2214 00                  NOP
5920   2215 00                  NOP
5921   2216 00                  NOP
5922   2217 00                  NOP
5923   2218 00                  NOP
5924   2219 00                  NOP
5925   221A 00                  NOP
5926   221B 00                  NOP
5927   221C 00                  NOP
5928   221D 00                  NOP
5929   221E 00                  NOP
5930   221F 00                  NOP
5931   2220 00                  NOP
5932   2221 00                  NOP
5933   2222 00                  NOP
5934   2223 00                  NOP
5935   2224 00                  NOP
5936   2225 00                  NOP
5937   2226 00                  NOP
5938   2227 00                  NOP
5939   2228 00                  NOP
5940   2229 00                  NOP
5941   222A 00                  NOP
5942   222B 00                  NOP
5943   222C 00                  NOP
5944   222D 00                  NOP
5945   222E 00                  NOP
5946   222F 00                  NOP
5947   2230 00                  NOP
5948   2231 00                  NOP
5949   2232 00                  NOP
5950   2233 00                  NOP
5951   2234 00                  NOP
5952   2235 00                  NOP
5953   2236 00                  NOP
5954   2237 00                  NOP
5955   2238 00                  NOP
5956   2239 00                  NOP
5957   223A 00                  NOP
5958   223B 00                  NOP
5959   223C 00                  NOP
5960   223D 00                  NOP
5961   223E 00                  NOP
5962   223F 00                  NOP
5963   2240 00                  NOP
5964   2241 00                  NOP
5965   2242 00                  NOP
5966   2243 00                  NOP
5967   2244 00                  NOP
5968   2245 00                  NOP
5969   2246 00                  NOP
5970   2247 00                  NOP
5971   2248 00                  NOP
5972   2249 00                  NOP
5973   224A 00                  NOP
5974   224B 00                  NOP
5975   224C 00                  NOP
5976   224D 00                  NOP
5977   224E 00                  NOP
5978   224F 00                  NOP
5979   2250 00                  NOP
5980   2251 00                  NOP
5981   2252 00                  NOP
5982   2253 00                  NOP
5983   2254 00                  NOP
5984   2255 00                  NOP
5985   2256 00                  NOP
5986   2257 00                  NOP
5987   2258 00                  NOP
5988   2259 00                  NOP
5989   225A 00                  NOP
5990   225B 00                  NOP
5991   225C 00                  NOP
5992   225D 00                  NOP
5993   225E 00                  NOP
5994   225F 00                  NOP
5995   2260 00                  NOP
5996   2261 00                  NOP
5997   2262 00                  NOP
5998   2263 00                  NOP
5999   2264 00                  NOP
6000   2265 00                  NOP
6001   2266 00                  NOP
6002   2267 00                  NOP
6003   2268 00                  NOP
6004   2269 00                  NOP
6005   226A 00                  NOP
6006   226B 00                  NOP
6007   226C 00                  NOP
6008   226D 00                  NOP
6009   226E 00                  NOP
6010   226F 00                  NOP
6011   2270 00                  NOP
6012   2271 00                  NOP
6013   2272 00                  NOP
6014   2273 00                  NOP
6015   2274 00                  NOP
6016   2275 00                  NOP
6017   2276 00                  NOP
6018   2277 00                  NOP
6019   2278 00                  NOP
6020   2279 00                  NOP
6021   227A 00                  NOP
6022   227B 00                  NOP
6023   227C 00                  NOP
6024   227D 00                  NOP
6025   227E 00                  NOP
6026   227F 00                  NOP
6027   2280 00                  NOP
6028   2281 00                  NOP
6029   2282 00                  NOP
6030   2283 00                  NOP
6031   2284 00                  NOP
6032   2285 00                  NOP
6033   2286 00                  NOP
6034   2287 00                  NOP
6035   2288 00                  NOP
6036   2289 00                  NOP
6037   228A 00                  NOP
6038   228B 00                  NOP
6039   228C 00                  NOP
6040   228D 00                  NOP
6041   228E 00                  NOP
6042   228F 00                  NOP
6043   2290 00                  NOP
6044   2291 00                  NOP
6045   2292 00                  NOP
6046   2293 00                  NOP
6047   2294 00                  NOP
6048   2295 00                  NOP
6049   2296 00                  NOP
6050   2297 00                  NOP
6051   2298 00                  NOP
6052   2299 00                  NOP
6053   229A 00                  NOP
6054   229B 00                  NOP
6055   229C 00                  NOP
6056   229D 00                  NOP
6057   229E 00                  NOP
6058   229F 00                  NOP
6059   22A0 00                  NOP
6060   22A1 00                  NOP
6061   22A2 00                  NOP
6062   22A3 00                  NOP
6063   22A4 00                  NOP
6064   22A5 00                  NOP
6065   22A6 00                  NOP
6066   22A7 00                  NOP
6067   22A8 00                  NOP
6068   22A9 00                  NOP
6069   22AA 00                  NOP
6070   22AB 00                  NOP
6071   22AC 00                  NOP
6072   22AD 00                  NOP
6073   22AE 00                  NOP
6074   22AF 00                  NOP
6075   22B0 00                  NOP
6076   22B1 00                  NOP
6077   22B2 00                  NOP
6078   22B3 00                  NOP
6079   22B4 00                  NOP
6080   22B5 00                  NOP
6081   22B6 00                  NOP
6082   22B7 00                  NOP
6083   22B8 00                  NOP
6084   22B9 00                  NOP
6085   22BA 00                  NOP
6086   22BB 00                  NOP
6087   22BC 00                  NOP
6088   22BD 00                  NOP
6089   22BE 00                  NOP
6090   22BF 00                  NOP
6091   22C0 00                  NOP
6092   22C1 00                  NOP
6093   22C2 00                  NOP
6094   22C3 00                  NOP
6095   22C4 00                  NOP
6096   22C5 00                  NOP
6097   22C6 00                  NOP
6098   22C7 00                  NOP
6099   22C8 00                  NOP
6100   22C9 00                  NOP
6101   22CA 00                  NOP
6102   22CB 00                  NOP
6103   22CC 00                  NOP
6104   22CD 00                  NOP
6105   22CE 00                  NOP
6106   22CF 00                  NOP
6107   22D0 00                  NOP
6108   22D1 00                  NOP
6109   22D2 00                  NOP
6110   22D3 00                  NOP
6111   22D4 00                  NOP
6112   22D5 00                  NOP
6113   22D6 00                  NOP
6114   22D7 00                  NOP
6115   22D8 00                  NOP
6116   22D9 00                  NOP
6117   22DA 00                  NOP
6118   22DB 00                  NOP
6119   22DC 00                  NOP
6120   22DD 00                  NOP
6121   22DE 00                  NOP
6122   22DF 00                  NOP
6123   22E0 00                  NOP
6124   22E1 00                  NOP
6125   22E2 00                  NOP
6126   22E3 00                  NOP
6127   22E4 00                  NOP
6128   22E5 00                  NOP
6129   22E6 00                  NOP
6130   22E7 00                  NOP
6131   22E8 00                  NOP
6132   22E9 00                  NOP
6133   22EA 00                  NOP
6134   22EB 00                  NOP
6135   22EC 00                  NOP
6136   22ED 00                  NOP
6137   22EE 00                  NOP
6138   22EF 00                  NOP
6139   22F0 00                  NOP
6140   22F1 00                  NOP
6141   22F2 00                  NOP
6142   22F3 00                  NOP
6143   22F4 00                  NOP
6144   22F5 00                  NOP
6145   22F6 00                  NOP
6146   22F7 00                  NOP
6147   22F8 00                  NOP
6148   22F9 00                  NOP
6149   22FA 00                  NOP
6150   22FB 00                  NOP
6151   22FC 00                  NOP
6152   22FD 00                  NOP
6153   22FE 00                  NOP
6154   22FF 00                  NOP
6155   2300 00                  NOP
6156   2301 00                  NOP
6157   2302 00                  NOP
6158   2303 00                  NOP
6159   2304 00                  NOP
6160   2305 00                  NOP
6161   2306 00                  NOP
6162   2307 00                  NOP
6163   2308 00                  NOP
6164   2309 00                  NOP
6165   230A 00                  NOP
6166   230B 00                  NOP
6167   230C 00                  NOP
6168   230D 00                  NOP
6169   230E 00                  NOP
6170   230F 00                  NOP
6171   2310 00                  NOP
6172   2311 00                  NOP
6173   2312 00                  NOP
6174   2313 00                  NOP
6175   2314 00                  NOP
6176   2315 00                  NOP
6177   2316 00                  NOP
6178   2317 00                  NOP
6179   2318 00                  NOP
6180   2319 00                  NOP
6181   231A 00                  NOP
6182   231B 00                  NOP
6183   231C 00                  NOP
6184   231D 00                  NOP
6185   231E 00                  NOP
6186   231F 00                  NOP
6187   2320 00                  NOP
6188   2321 00                  NOP
6189   2322 00                  NOP
6190   2323 00                  NOP
6191   2324 00                  NOP
6192   2325 00                  NOP
6193   2326 00                  NOP
6194   2327 00                  NOP
6195   2328 00                  NOP
6196   2329 00                  NOP
6197   232A 00                  NOP
6198   232B 00                  NOP
6199   232C 00                  NOP
6200   232D 00                  NOP
6201   232E 00                  NOP
6202   232F 00                  NOP
6203   2330 00                  NOP
6204   2331 00                  NOP
6205   2332 00                  NOP
6206   2333 00                  NOP
6207   2334 00                  NOP
6208   2335 00                  NOP
6209   2336 00                  NOP
6210   2337 00                  NOP
6211   2338 00                  NOP
6212   2339 00                  NOP
6213   233A 00                  NOP
6214   233B 00                  NOP
6215   233C 00                  NOP
6216   233D 00                  NOP
6217   233E 00                  NOP
6218   233F 00                  NOP
6219   2340 00                  NOP
6220   2341 00                  NOP
6221   2342 00                  NOP
6222   2343 00                  NOP
6223   2344 00                  NOP
6224   2345 00                  NOP
6225   2346 00                  NOP
6226   2347 00                  NOP
6227   2348 00                  NOP
6228   2349 00                  NOP
6229   234A 00                  NOP
6230   234B 00                  NOP
6231   234C 00                  NOP
6232   234D 00                  NOP
6233   234E 00                  NOP
6234   234F 00                  NOP
6235   2350 00                  NOP
6236   2351 00                  NOP
6237   2352 00                  NOP
6238   2353 00                  NOP
6239   2354 00                  NOP
6240   2355 00                  NOP
6241   2356 00                  NOP
6242   2357 00                  NOP
6243   2358 00                  NOP
6244   2359 00                  NOP
6245   235A 00                  NOP
6246   235B 00                  NOP
6247   235C 00                  NOP
6248   235D 00                  NOP
6249   235E 00                  NOP
6250   235F 00                  NOP
6251   2360 00                  NOP
6252   2361 00                  NOP
6253   2362 00                  NOP
6254   2363 00                  NOP
6255   2364 00                  NOP
6256   2365 00                  NOP
6257   2366 00                  NOP
6258   2367 00                  NOP
6259   2368 00                  NOP
6260   2369 00                  NOP
6261   236A 00                  NOP
6262   236B 00                  NOP
6263   236C 00                  NOP
6264   236D 00                  NOP
6265   236E 00                  NOP
6266   236F 00                  NOP
6267   2370 00                  NOP
6268   2371 00                  NOP
6269   2372 00                  NOP
6270   2373 00                  NOP
6271   2374 00                  NOP
6272   2375 00                  NOP
6273   2376 00                  NOP
6274   2377 00                  NOP
6275   2378 00                  NOP
6276   2379 00                  NOP
6277   237A 00                  NOP
6278   237B 00                  NOP
6279   237C 00                  NOP
6280   237D 00                  NOP
6281   237E 00                  NOP
6282   237F 00                  NOP
6283   2380 00                  NOP
6284   2381 00                  NOP
6285   2382 00                  NOP
6286   2383 00                  NOP
6287   2384 00                  NOP
6288   2385 00                  NOP
6289   2386 00                  NOP
6290   2387 00                  NOP
6291   2388 00                  NOP
6292   2389 00                  NOP
6293   238A 00                  NOP
6294   238B 00                  NOP
6295   238C 00                  NOP
6296   238D 00                  NOP
6297   238E 00                  NOP
6298   238F 00                  NOP
6299   2390 00                  NOP
6300   2391 00                  NOP
6301   2392 00                  NOP
6302   2393 00                  NOP
6303   2394 00                  NOP
6304   2395 00                  NOP
6305   2396 00                  NOP
6306   2397 00                  NOP
6307   2398 00                  NOP
6308   2399 00                  NOP
6309   239A 00                  NOP
6310   239B 00                  NOP
6311   239C 00                  NOP
6312   239D 00                  NOP
6313   239E 00                  NOP
6314   239F 00                  NOP
6315   23A0 00                  NOP
6316   23A1 00                  NOP
6317   23A2 00                  NOP
6318   23A3 00                  NOP
6319   23A4 00                  NOP
6320   23A5 00                  NOP
6321   23A6 00                  NOP
6322   23A7 00                  NOP
6323   23A8 00                  NOP
6324   23A9 00                  NOP
6325   23AA 00                  NOP
6326   23AB 00                  NOP
6327   23AC 00                  NOP
6328   23AD 00                  NOP
6329   23AE 00                  NOP
6330   23AF 00                  NOP
6331   23B0 00                  NOP
6332   23B1 00                  NOP
6333   23B2 00                  NOP
6334   23B3 00                  NOP
6335   23B4 00                  NOP
6336   23B5 00                  NOP
6337   23B6 00                  NOP
6338   23B7 00                  NOP
6339   23B8 00                  NOP
6340   23B9 00                  NOP
6341   23BA 00                  NOP
6342   23BB 00                  NOP
6343   23BC 00                  NOP
6344   23BD 00                  NOP
6345   23BE 00                  NOP
6346   23BF 00                  NOP
6347   23C0 00                  NOP
6348   23C1 00                  NOP
6349   23C2 00                  NOP
6350   23C3 00                  NOP
6351   23C4 00                  NOP
6352   23C5 00                  NOP
6353   23C6 00                  NOP
6354   23C7 00                  NOP
6355   23C8 00                  NOP
6356   23C9 00                  NOP
6357   23CA 00                  NOP
6358   23CB 00                  NOP
6359   23CC 00                  NOP
6360   23CD 00                  NOP
6361   23CE 00                  NOP
6362   23CF 00                  NOP
6363   23D0 00                  NOP
6364   23D1 00                  NOP
6365   23D2 00                  NOP
6366   23D3 00                  NOP
6367   23D4 00                  NOP
6368   23D5 00                  NOP
6369   23D6 00                  NOP
6370   23D7 00                  NOP
6371   23D8 00                  NOP
6372   23D9 00                  NOP
6373   23DA 00                  NOP
6374   23DB 00                  NOP
6375   23DC 00                  NOP
6376   23DD 00                  NOP
6377   23DE 00                  NOP
6378   23DF 00                  NOP
6379   23E0 00                  NOP
6380   23E1 00                  NOP
6381   23E2 00                  NOP
6382   23E3 00                  NOP
6383   23E4 00                  NOP
6384   23E5 00                  NOP
6385   23E6 00                  NOP
6386   23E7 00                  NOP
6387   23E8 00                  NOP
6388   23E9 00                  NOP
6389   23EA 00                  NOP
6390   23EB 00                  NOP
6391   23EC 00                  NOP
6392   23ED 00                  NOP
6393   23EE 00                  NOP
6394   23EF 00                  NOP
6395   23F0 00                  NOP
6396   23F1 00                  NOP
6397   23F2 00                  NOP
6398   23F3 00                  NOP
6399   23F4 00                  NOP
6400   23F5 00                  NOP
6401   23F6 00                  NOP
6402   23F7 00                  NOP
6403   23F8 00                  NOP
6404   23F9 00                  NOP
6405   23FA 00                  NOP
6406   23FB 00                  NOP
6407   23FC 00                  NOP
6408   23FD 00                  NOP
6409   23FE 00                  NOP
6410   23FF 00                  NOP
6411   2400 00                  NOP
6412   2401 00                  NOP
6413   2402 00                  NOP
6414   2403 00                  NOP
6415   2404 00                  NOP
6416   2405 00                  NOP
6417   2406 00                  NOP
6418   2407 00                  NOP
6419   2408 00                  NOP
6420   2409 00                  NOP
6421   240A 00                  NOP
6422   240B 00                  NOP
6423   240C 00                  NOP
6424   240D 00                  NOP
6425   240E 00                  NOP
6426   240F 00                  NOP
6427   2410 00                  NOP
6428   2411 00                  NOP
6429   2412 00                  NOP
6430   2413 00                  NOP
6431   2414 00                  NOP
6432   2415 00                  NOP
6433   2416 00                  NOP
6434   2417 00                  NOP
6435   2418 00                  NOP
6436   2419 00                  NOP
6437   241A 00                  NOP
6438   241B 00                  NOP
6439   241C 00                  NOP
6440   241D 00                  NOP
6441   241E 00                  NOP
6442   241F 00                  NOP
6443   2420 00                  NOP
6444   2421 00                  NOP
6445   2422 00                  NOP
6446   2423 00                  NOP
6447   2424 00                  NOP
6448   2425 00                  NOP
6449   2426 00                  NOP
6450   2427 00                  NOP
6451   2428 00                  NOP
6452   2429 00                  NOP
6453   242A 00                  NOP
6454   242B 00                  NOP
6455   242C 00                  NOP
6456   242D 00                  NOP
6457   242E 00                  NOP
6458   242F 00                  NOP
6459   2430 00                  NOP
6460   2431 00                  NOP
6461   2432 00                  NOP
6462   2433 00                  NOP
6463   2434 00                  NOP
6464   2435 00                  NOP
6465   2436 00                  NOP
6466   2437 00                  NOP
6467   2438 00                  NOP
6468   2439 00                  NOP
6469   243A 00                  NOP
6470   243B 00                  NOP
6471   243C 00                  NOP
6472   243D 00                  NOP
6473   243E 00                  NOP
6474   243F 00                  NOP
6475   2440 00                  NOP
6476   2441 00                  NOP
6477   2442 00                  NOP
6478   2443 00                  NOP
6479   2444 00                  NOP
6480   2445 00                  NOP
6481   2446 00                  NOP
6482   2447 00                  NOP
6483   2448 00                  NOP
6484   2449 00                  NOP
6485   244A 00                  NOP
6486   244B 00                  NOP
6487   244C 00                  NOP
6488   244D 00                  NOP
6489   244E 00                  NOP
6490   244F 00                  NOP
6491   2450 00                  NOP
6492   2451 00                  NOP
6493   2452 00                  NOP
6494   2453 00                  NOP
6495   2454 00                  NOP
6496   2455 00                  NOP
6497   2456 00                  NOP
6498   2457 00                  NOP
6499   2458 00                  NOP
6500   2459 00                  NOP
6501   245A 00                  NOP
6502   245B 00                  NOP
6503   245C 00                  NOP
6504   245D 00                  NOP
6505   245E 00                  NOP
6506   245F 00                  NOP
6507   2460 00                  NOP
6508   2461 00                  NOP
6509   2462 00                  NOP
6510   2463 00                  NOP
6511   2464 00                  NOP
6512   2465 00                  NOP
6513   2466 00                  NOP
6514   2467 00                  NOP
6515   2468 00                  NOP
6516   2469 00                  NOP
6517   246A 00                  NOP
6518   246B 00                  NOP
6519   246C 00                  NOP
6520   246D 00                  NOP
6521   246E 00                  NOP
6522   246F 00                  NOP
6523   2470 00                  NOP
6524   2471 00                  NOP
6525   2472 00                  NOP
6526   2473 00                  NOP
6527   2474 00                  NOP
6528   2475 00                  NOP
6529   2476 00                  NOP
6530   2477 00                  NOP
6531   2478 00                  NOP
6532   2479 00                  NOP
6533   247A 00                  NOP
6534   247B 00                  NOP
6535   247C 00                  NOP
6536   247D 00                  NOP
6537   247E 00                  NOP
6538   247F 00                  NOP
6539   2480 00                  NOP
6540   2481 00                  NOP
6541   2482 00                  NOP
6542   2483 00                  NOP
6543   2484 00                  NOP
6544   2485 00                  NOP
6545   2486 00                  NOP
6546   2487 00                  NOP
6547   2488 00                  NOP
6548   2489 00                  NOP
6549   248A 00                  NOP
6550   248B 00                  NOP
6551   248C 00                  NOP
6552   248D 00                  NOP
6553   248E 00                  NOP
6554   248F 00                  NOP
6555   2490 00                  NOP
6556   2491 00                  NOP
6557   2492 00                  NOP
6558   2493 00                  NOP
6559   2494 00                  NOP
6560   2495 00                  NOP
6561   2496 00                  NOP
6562   2497 00                  NOP
6563   2498 00                  NOP
6564   2499 00                  NOP
6565   249A 00                  NOP
6566   249B 00                  NOP
6567   249C 00                  NOP
6568   249D 00                  NOP
6569   249E 00                  NOP
6570   249F 00                  NOP
6571   24A0 00                  NOP
6572   24A1 00                  NOP
6573   24A2 00                  NOP
6574   24A3 00                  NOP
6575   24A4 00                  NOP
6576   24A5 00                  NOP
6577   24A6 00                  NOP
6578   24A7 00                  NOP
6579   24A8 00                  NOP
6580   24A9 00                  NOP
6581   24AA 00                  NOP
6582   24AB 00                  NOP
6583   24AC 00                  NOP
6584   24AD 00                  NOP
6585   24AE 00                  NOP
6586   24AF 00                  NOP
6587   24B0 00                  NOP
6588   24B1 00                  NOP
6589   24B2 00                  NOP
6590   24B3 00                  NOP
6591   24B4 00                  NOP
6592   24B5 00                  NOP
6593   24B6 00                  NOP
6594   24B7 00                  NOP
6595   24B8 00                  NOP
6596   24B9 00                  NOP
6597   24BA 00                  NOP
6598   24BB 00                  NOP
6599   24BC 00                  NOP
6600   24BD 00                  NOP
6601   24BE 00                  NOP
6602   24BF 00                  NOP
6603   24C0 00                  NOP
6604   24C1 00                  NOP
6605   24C2 00                  NOP
6606   24C3 00                  NOP
6607   24C4 00                  NOP
6608   24C5 00                  NOP
6609   24C6 00                  NOP
6610   24C7 00                  NOP
6611   24C8 00                  NOP
6612   24C9 00                  NOP
6613   24CA 00                  NOP
6614   24CB 00                  NOP
6615   24CC 00                  NOP
6616   24CD 00                  NOP
6617   24CE 00                  NOP
6618   24CF 00                  NOP
6619   24D0 00                  NOP
6620   24D1 00                  NOP
6621   24D2 00                  NOP
6622   24D3 00                  NOP
6623   24D4 00                  NOP
6624   24D5 00                  NOP
6625   24D6 00                  NOP
6626   24D7 00                  NOP
6627   24D8 00                  NOP
6628   24D9 00                  NOP
6629   24DA 00                  NOP
6630   24DB 00                  NOP
6631   24DC 00                  NOP
6632   24DD 00                  NOP
6633   24DE 00                  NOP
6634   24DF 00                  NOP
6635   24E0 00                  NOP
6636   24E1 00                  NOP
6637   24E2 00                  NOP
6638   24E3 00                  NOP
6639   24E4 00                  NOP
6640   24E5 00                  NOP
6641   24E6 00                  NOP
6642   24E7 00                  NOP
6643   24E8 00                  NOP
6644   24E9 00                  NOP
6645   24EA 00                  NOP
6646   24EB 00                  NOP
6647   24EC 00                  NOP
6648   24ED 00                  NOP
6649   24EE 00                  NOP
6650   24EF 00                  NOP
6651   24F0 00                  NOP
6652   24F1 00                  NOP
6653   24F2 00                  NOP
6654   24F3 00                  NOP
6655   24F4 00                  NOP
6656   24F5 00                  NOP
6657   24F6 00                  NOP
6658   24F7 00                  NOP
6659   24F8 00                  NOP
6660   24F9 00                  NOP
6661   24FA 00                  NOP
6662   24FB 00                  NOP
6663   24FC 00                  NOP
6664   24FD 00                  NOP
6665   24FE 00                  NOP
6666   24FF 00                  NOP
6667   2500 00                  NOP
6668   2501 00                  NOP
6669   2502 00                  NOP
6670   2503 00                  NOP
6671   2504 00                  NOP
6672   2505 00                  NOP
6673   2506 00                  NOP
6674   2507 00                  NOP
6675   2508 00                  NOP
6676   2509 00                  NOP
6677   250A 00                  NOP
6678   250B 00                  NOP
6679   250C 00                  NOP
6680   250D 00                  NOP
6681   250E 00                  NOP
6682   250F 00                  NOP
6683   2510 00                  NOP
6684   2511 00                  NOP
6685   2512 00                  NOP
6686   2513 00                  NOP
6687   2514 00                  NOP
6688   2515 00                  NOP
6689   2516 00                  NOP
6690   2517 00                  NOP
6691   2518 00                  NOP
6692   2519 00                  NOP
6693   251A 00                  NOP
6694   251B 00                  NOP
6695   251C 00                  NOP
6696   251D 00                  NOP
6697   251E 00                  NOP
6698   251F 00                  NOP
6699   2520 00                  NOP
6700   2521 00                  NOP
6701   2522 00                  NOP
6702   2523 00                  NOP
6703   2524 00                  NOP
6704   2525 00                  NOP
6705   2526 00                  NOP
6706   2527 00                  NOP
6707   2528 00                  NOP
6708   2529 00                  NOP
6709   252A 00                  NOP
6710   252B 00                  NOP
6711   252C 00                  NOP
6712   252D 00                  NOP
6713   252E 00                  NOP
6714   252F 00                  NOP
6715   2530 00                  NOP
6716   2531 00                  NOP
6717   2532 00                  NOP
6718   2533 00                  NOP
6719   2534 00                  NOP
6720   2535 00                  NOP
6721   2536 00                  NOP
6722   2537 00                  NOP
6723   2538 00                  NOP
6724   2539 00                  NOP
6725   253A 00                  NOP
6726   253B 00                  NOP
6727   253C 00                  NOP
6728   253D 00                  NOP
6729   253E 00                  NOP
6730   253F 00                  NOP
6731   2540 00                  NOP
6732   2541 00                  NOP
6733   2542 00                  NOP
6734   2543 00                  NOP
6735   2544 00                  NOP
6736   2545 00                  NOP
6737   2546 00                  NOP
6738   2547 00                  NOP
6739   2548 00                  NOP
6740   2549 00                  NOP
6741   254A 00                  NOP
6742   254B 00                  NOP
6743   254C 00                  NOP
6744   254D 00                  NOP
6745   254E 00                  NOP
6746   254F 00                  NOP
6747   2550 00                  NOP
6748   2551 00                  NOP
6749   2552 00                  NOP
6750   2553 00                  NOP
6751   2554 00                  NOP
6752   2555 00                  NOP
6753   2556 00                  NOP
6754   2557 00                  NOP
6755   2558 00                  NOP
6756   2559 00                  NOP
6757   255A 00                  NOP
6758   255B 00                  NOP
6759   255C 00                  NOP
6760   255D 00                  NOP
6761   255E 00                  NOP
6762   255F 00                  NOP
6763   2560 00                  NOP
6764   2561 00                  NOP
6765   2562 00                  NOP
6766   2563 00                  NOP
6767   2564 00                  NOP
6768   2565 00                  NOP
6769   2566 00                  NOP
6770   2567 00                  NOP
6771   2568 00                  NOP
6772   2569 00                  NOP
6773   256A 00                  NOP
6774   256B 00                  NOP
6775   256C 00                  NOP
6776   256D 00                  NOP
6777   256E 00                  NOP
6778   256F 00                  NOP
6779   2570 00                  NOP
6780   2571 00                  NOP
6781   2572 00                  NOP
6782   2573 00                  NOP
6783   2574 00                  NOP
6784   2575 00                  NOP
6785   2576 00                  NOP
6786   2577 00                  NOP
6787   2578 00                  NOP
6788   2579 00                  NOP
6789   257A 00                  NOP
6790   257B 00                  NOP
6791   257C 00                  NOP
6792   257D 00                  NOP
6793   257E 00                  NOP
6794   257F 00                  NOP
6795   2580 00                  NOP
6796   2581 00                  NOP
6797   2582 00                  NOP
6798   2583 00                  NOP
6799   2584 00                  NOP
6800   2585 00                  NOP
6801   2586 00                  NOP
6802   2587 00                  NOP
6803   2588 00                  NOP
6804   2589 00                  NOP
6805   258A 00                  NOP
6806   258B 00                  NOP
6807   258C 00                  NOP
6808   258D 00                  NOP
6809   258E 00                  NOP
6810   258F 00                  NOP
6811   2590 00                  NOP
6812   2591 00                  NOP
6813   2592 00                  NOP
6814   2593 00                  NOP
6815   2594 00                  NOP
6816   2595 00                  NOP
6817   2596 00                  NOP
6818   2597 00                  NOP
6819   2598 00                  NOP
6820   2599 00                  NOP
6821   259A 00                  NOP
6822   259B 00                  NOP
6823   259C 00                  NOP
6824   259D 00                  NOP
6825   259E 00                  NOP
6826   259F 00                  NOP
6827   25A0 00                  NOP
6828   25A1 00                  NOP
6829   25A2 00                  NOP
6830   25A3 00                  NOP
6831   25A4 00                  NOP
6832   25A5 00                  NOP
6833   25A6 00                  NOP
6834   25A7 00                  NOP
6835   25A8 00                  NOP
6836   25A9 00                  NOP
6837   25AA 00                  NOP
6838   25AB 00                  NOP
6839   25AC 00                  NOP
6840   25AD 00                  NOP
6841   25AE 00                  NOP
6842   25AF 00                  NOP
6843   25B0 00                  NOP
6844   25B1 00                  NOP
6845   25B2 00                  NOP
6846   25B3 00                  NOP
6847   25B4 00                  NOP
6848   25B5 00                  NOP
6849   25B6 00                  NOP
6850   25B7 00                  NOP
6851   25B8 00                  NOP
6852   25B9 00                  NOP
6853   25BA 00                  NOP
6854   25BB 00                  NOP
6855   25BC 00                  NOP
6856   25BD 00                  NOP
6857   25BE 00                  NOP
6858   25BF 00                  NOP
6859   25C0 00                  NOP
6860   25C1 00                  NOP
6861   25C2 00                  NOP
6862   25C3 00                  NOP
6863   25C4 00                  NOP
6864   25C5 00                  NOP
6865   25C6 00                  NOP
6866   25C7 00                  NOP
6867   25C8 00                  NOP
6868   25C9 00                  NOP
6869   25CA 00                  NOP
6870   25CB 00                  NOP
6871   25CC 00                  NOP
6872   25CD 00                  NOP
6873   25CE 00                  NOP
6874   25CF 00                  NOP
6875   25D0 00                  NOP
6876   25D1 00                  NOP
6877   25D2 00                  NOP
6878   25D3 00                  NOP
6879   25D4 00                  NOP
6880   25D5 00                  NOP
6881   25D6 00                  NOP
6882   25D7 00                  NOP
6883   25D8 00                  NOP
6884   25D9 00                  NOP
6885   25DA 00                  NOP
6886   25DB 00                  NOP
6887   25DC 00                  NOP
6888   25DD 00                  NOP
6889   25DE 00                  NOP
6890   25DF 00                  NOP
6891   25E0 00                  NOP
6892   25E1 00                  NOP
6893   25E2 00                  NOP
6894   25E3 00                  NOP
6895   25E4 00                  NOP
6896   25E5 00                  NOP
6897   25E6 00                  NOP
6898   25E7 00                  NOP
6899   25E8 00                  NOP
6900   25E9 00                  NOP
6901   25EA 00                  NOP
6902   25EB 00                  NOP
6903   25EC 00                  NOP
6904   25ED 00                  NOP
6905   25EE 00                  NOP
6906   25EF 00                  NOP
6907   25F0 00                  NOP
6908   25F1 00                  NOP
6909   25F2 00                  NOP
6910   25F3 00                  NOP
6911   25F4 00                  NOP
6912   25F5 00                  NOP
6913   25F6 00                  NOP
6914   25F7 00                  NOP
6915   25F8 00                  NOP
6916   25F9 00                  NOP
6917   25FA 00                  NOP
6918   25FB 00                  NOP
6919   25FC 00                  NOP
6920   25FD 00                  NOP
6921   25FE 00                  NOP
6922   25FF 00                  NOP
6923   2600 00                  NOP
6924   2601 00                  NOP
6925   2602 00                  NOP
6926   2603 00                  NOP
6927   2604 00                  NOP
6928   2605 00                  NOP
6929   2606 00                  NOP
6930   2607 00                  NOP
6931   2608 00                  NOP
6932   2609 00                  NOP
6933   260A 00                  NOP
6934   260B 00                  NOP
6935   260C 00                  NOP
6936   260D 00                  NOP
6937   260E 00                  NOP
6938   260F 00                  NOP
6939   2610 00                  NOP
6940   2611 00                  NOP
6941   2612 00                  NOP
6942   2613 00                  NOP
6943   2614 00                  NOP
6944   2615 00                  NOP
6945   2616 00                  NOP
6946   2617 00                  NOP
6947   2618 00                  NOP
6948   2619 00                  NOP
6949   261A 00                  NOP
6950   261B 00                  NOP
6951   261C 00                  NOP
6952   261D 00                  NOP
6953   261E 00                  NOP
6954   261F 00                  NOP
6955   2620 00                  NOP
6956   2621 00                  NOP
6957   2622 00                  NOP
6958   2623 00                  NOP
6959   2624 00                  NOP
6960   2625 00                  NOP
6961   2626 00                  NOP
6962   2627 00                  NOP
6963   2628 00                  NOP
6964   2629 00                  NOP
6965   262A 00                  NOP
6966   262B 00                  NOP
6967   262C 00                  NOP
6968   262D 00                  NOP
6969   262E 00                  NOP
6970   262F 00                  NOP
6971   2630 00                  NOP
6972   2631 00                  NOP
6973   2632 00                  NOP
6974   2633 00                  NOP
6975   2634 00                  NOP
6976   2635 00                  NOP
6977   2636 00                  NOP
6978   2637 00                  NOP
6979   2638 00                  NOP
6980   2639 00                  NOP
6981   263A 00                  NOP
6982   263B 00                  NOP
6983   263C 00                  NOP
6984   263D 00                  NOP
6985   263E 00                  NOP
6986   263F 00                  NOP
6987   2640 00                  NOP
6988   2641 00                  NOP
6989   2642 00                  NOP
6990   2643 00                  NOP
6991   2644 00                  NOP
6992   2645 00                  NOP
6993   2646 00                  NOP
6994   2647 00                  NOP
6995   2648 00                  NOP
6996   2649 00                  NOP
6997   264A 00                  NOP
6998   264B 00                  NOP
6999   264C 00                  NOP
7000   264D 00                  NOP
7001   264E 00                  NOP
7002   264F 00                  NOP
7003   2650 00                  NOP
7004   2651 00                  NOP
7005   2652 00                  NOP
7006   2653 00                  NOP
7007   2654 00                  NOP
7008   2655 00                  NOP
7009   2656 00                  NOP
7010   2657 00                  NOP
7011   2658 00                  NOP
7012   2659 00                  NOP
7013   265A 00                  NOP
7014   265B 00                  NOP
7015   265C 00                  NOP
7016   265D 00                  NOP
7017   265E 00                  NOP
7018   265F 00                  NOP
7019   2660 00                  NOP
7020   2661 00                  NOP
7021   2662 00                  NOP
7022   2663 00                  NOP
7023   2664 00                  NOP
7024   2665 00                  NOP
7025   2666 00                  NOP
7026   2667 00                  NOP
7027   2668 00                  NOP
7028   2669 00                  NOP
7029   266A 00                  NOP
7030   266B 00                  NOP
7031   266C 00                  NOP
7032   266D 00                  NOP
7033   266E 00                  NOP
7034   266F 00                  NOP
7035   2670 00                  NOP
7036   2671 00                  NOP
7037   2672 00                  NOP
7038   2673 00                  NOP
7039   2674 00                  NOP
7040   2675 00                  NOP
7041   2676 00                  NOP
7042   2677 00                  NOP
7043   2678 00                  NOP
7044   2679 00                  NOP
7045   267A 00                  NOP
7046   267B 00                  NOP
7047   267C 00                  NOP
7048   267D 00                  NOP
7049   267E 00                  NOP
7050   267F 00                  NOP
7051   2680 00                  NOP
7052   2681 00                  NOP
7053   2682 00                  NOP
7054   2683 00                  NOP
7055   2684 00                  NOP
7056   2685 00                  NOP
7057   2686 00                  NOP
7058   2687 00                  NOP
7059   2688 00                  NOP
7060   2689 00                  NOP
7061   268A 00                  NOP
7062   268B 00                  NOP
7063   268C 00                  NOP
7064   268D 00                  NOP
7065   268E 00                  NOP
7066   268F 00                  NOP
7067   2690 00                  NOP
7068   2691 00                  NOP
7069   2692 00                  NOP
7070   2693 00                  NOP
7071   2694 00                  NOP
7072   2695 00                  NOP
7073   2696 00                  NOP
7074   2697 00                  NOP
7075   2698 00                  NOP
7076   2699 00                  NOP
7077   269A 00                  NOP
7078   269B 00                  NOP
7079   269C 00                  NOP
7080   269D 00                  NOP
7081   269E 00                  NOP
7082   269F 00                  NOP
7083   26A0 00                  NOP
7084   26A1 00                  NOP
7085   26A2 00                  NOP
7086   26A3 00                  NOP
7087   26A4 00                  NOP
7088   26A5 00                  NOP
7089   26A6 00                  NOP
7090   26A7 00                  NOP
7091   26A8 00                  NOP
7092   26A9 00                  NOP
7093   26AA 00                  NOP
7094   26AB 00                  NOP
7095   26AC 00                  NOP
7096   26AD 00                  NOP
7097   26AE 00                  NOP
7098   26AF 00                  NOP
7099   26B0 00                  NOP
7100   26B1 00                  NOP
7101   26B2 00                  NOP
7102   26B3 00                  NOP
7103   26B4 00                  NOP
7104   26B5 00                  NOP
7105   26B6 00                  NOP
7106   26B7 00                  NOP
7107   26B8 00                  NOP
7108   26B9 00                  NOP
7109   26BA 00                  NOP
7110   26BB 00                  NOP
7111   26BC 00                  NOP
7112   26BD 00                  NOP
7113   26BE 00                  NOP
7114   26BF 00                  NOP
7115   26C0 00                  NOP
7116   26C1 00                  NOP
7117   26C2 00                  NOP
7118   26C3 00                  NOP
7119   26C4 00                  NOP
7120   26C5 00                  NOP
7121   26C6 00                  NOP
7122   26C7 00                  NOP
7123   26C8 00                  NOP
7124   26C9 00                  NOP
7125   26CA 00                  NOP
7126   26CB 00                  NOP
7127   26CC 00                  NOP
7128   26CD 00                  NOP
7129   26CE 00                  NOP
7130   26CF 00                  NOP
7131   26D0 00                  NOP
7132   26D1 00                  NOP
7133   26D2 00                  NOP
7134   26D3 00                  NOP
7135   26D4 00                  NOP
7136   26D5 00                  NOP
7137   26D6 00                  NOP
7138   26D7 00                  NOP
7139   26D8 00                  NOP
7140   26D9 00                  NOP
7141   26DA 00                  NOP
7142   26DB 00                  NOP
7143   26DC 00                  NOP
7144   26DD 00                  NOP
7145   26DE 00                  NOP
7146   26DF 00                  NOP
7147   26E0 00                  NOP
7148   26E1 00                  NOP
7149   26E2 00                  NOP
7150   26E3 00                  NOP
7151   26E4 00                  NOP
7152   26E5 00                  NOP
7153   26E6 00                  NOP
7154   26E7 00                  NOP
7155   26E8 00                  NOP
7156   26E9 00                  NOP
7157   26EA 00                  NOP
7158   26EB 00                  NOP
7159   26EC 00                  NOP
7160   26ED 00                  NOP
7161   26EE 00                  NOP
7162   26EF 00                  NOP
7163   26F0 00                  NOP
7164   26F1 00                  NOP
7165   26F2 00                  NOP
7166   26F3 00                  NOP
7167   26F4 00                  NOP
7168   26F5 00                  NOP
7169   26F6 00                  NOP
7170   26F7 00                  NOP
7171   26F8 00                  NOP
7172   26F9 00                  NOP
7173   26FA 00                  NOP
7174   26FB 00                  NOP
7175   26FC 00                  NOP
7176   26FD 00                  NOP
7177   26FE 00                  NOP
7178   26FF 00                  NOP
7179   2700 00                  NOP
7180   2701 00                  NOP
7181   2702 00                  NOP
7182   2703 00                  NOP
7183   2704 00                  NOP
7184   2705 00                  NOP
7185   2706 00                  NOP
7186   2707 00                  NOP
7187   2708 00                  NOP
7188   2709 00                  NOP
7189   270A 00                  NOP
7190   270B 00                  NOP
7191   270C 00                  NOP
7192   270D 00                  NOP
7193   270E 00                  NOP
7194   270F 00                  NOP
7195   2710 00                  NOP
7196   2711 00                  NOP
7197   2712 00                  NOP
7198   2713 00                  NOP
7199   2714 00                  NOP
7200   2715 00                  NOP
7201   2716 00                  NOP
7202   2717 00                  NOP
7203   2718 00                  NOP
7204   2719 00                  NOP
7205   271A 00                  NOP
7206   271B 00                  NOP
7207   271C 00                  NOP
7208   271D 00                  NOP
7209   271E 00                  NOP
7210   271F 00                  NOP
7211   2720 00                  NOP
7212   2721 00                  NOP
7213   2722 00                  NOP
7214   2723 00                  NOP
7215   2724 00                  NOP
7216   2725 00                  NOP
7217   2726 00                  NOP
7218   2727 00                  NOP
7219   2728 00                  NOP
7220   2729 00                  NOP
7221   272A 00                  NOP
7222   272B 00                  NOP
7223   272C 00                  NOP
7224   272D 00                  NOP
7225   272E 00                  NOP
7226   272F 00                  NOP
7227   2730 00                  NOP
7228   2731 00                  NOP
7229   2732 00                  NOP
7230   2733 00                  NOP
7231   2734 00                  NOP
7232   2735 00                  NOP
7233   2736 00                  NOP
7234   2737 00                  NOP
7235   2738 00                  NOP
7236   2739 00                  NOP
7237   273A 00                  NOP
7238   273B 00                  NOP
7239   273C 00                  NOP
7240   273D 00                  NOP
7241   273E 00                  NOP
7242   273F 00                  NOP
7243   2740 00                  NOP
7244   2741 00                  NOP
7245   2742 00                  NOP
7246   2743 00                  NOP
7247   2744 00                  NOP
7248   2745 00                  NOP
7249   2746 00                  NOP
7250   2747 00                  NOP
7251   2748 00                  NOP
7252   2749 00                  NOP
7253   274A 00                  NOP
7254   274B 00                  NOP
7255   274C 00                  NOP
7256   274D 00                  NOP
7257   274E 00                  NOP
7258   274F 00                  NOP
7259   2750 00                  NOP
7260   2751 00                  NOP
7261   2752 00                  NOP
7262   2753 00                  NOP
7263   2754 00                  NOP
7264   2755 00                  NOP
7265   2756 00                  NOP
7266   2757 00                  NOP
7267   2758 00                  NOP
7268   2759 00                  NOP
7269   275A 00                  NOP
7270   275B 00                  NOP
7271   275C 00                  NOP
7272   275D 00                  NOP
7273   275E 00                  NOP
7274   275F 00                  NOP
7275   2760 00                  NOP
7276   2761 00                  NOP
7277   2762 00                  NOP
7278   2763 00                  NOP
7279   2764 00                  NOP
7280   2765 00                  NOP
7281   2766 00                  NOP
7282   2767 00                  NOP
7283   2768 00                  NOP
7284   2769 00                  NOP
7285   276A 00                  NOP
7286   276B 00                  NOP
7287   276C 00                  NOP
7288   276D 00                  NOP
7289   276E 00                  NOP
7290   276F 00                  NOP
7291   2770 00                  NOP
7292   2771 00                  NOP
7293   2772 00                  NOP
7294   2773 00                  NOP
7295   2774 00                  NOP
7296   2775 00                  NOP
7297   2776 00                  NOP
7298   2777 00                  NOP
7299   2778 00                  NOP
7300   2779 00                  NOP
7301   277A 00                  NOP
7302   277B 00                  NOP
7303   277C 00                  NOP
7304   277D 00                  NOP
7305   277E 00                  NOP
7306   277F 00                  NOP
7307   2780 00                  NOP
7308   2781 00                  NOP
7309   2782 00                  NOP
7310   2783 00                  NOP
7311   2784 00                  NOP
7312   2785 00                  NOP
7313   2786 00                  NOP
7314   2787 00                  NOP
7315   2788 00                  NOP
7316   2789 00                  NOP
7317   278A 00                  NOP
7318   278B 00                  NOP
7319   278C 00                  NOP
7320   278D 00                  NOP
7321   278E 00                  NOP
7322   278F 00                  NOP
7323   2790 00                  NOP
7324   2791 00                  NOP
7325   2792 00                  NOP
7326   2793 00                  NOP
7327   2794 00                  NOP
7328   2795 00                  NOP
7329   2796 00                  NOP
7330   2797 00                  NOP
7331   2798 00                  NOP
7332   2799 00                  NOP
7333   279A 00                  NOP
7334   279B 00                  NOP
7335   279C 00                  NOP
7336   279D 00                  NOP
7337   279E 00                  NOP
7338   279F 00                  NOP
7339   27A0 00                  NOP
7340   27A1 00                  NOP
7341   27A2 00                  NOP
7342   27A3 00                  NOP
7343   27A4 00                  NOP
7344   27A5 00                  NOP
7345   27A6 00                  NOP
7346   27A7 00                  NOP
7347   27A8 00                  NOP
7348   27A9 00                  NOP
7349   27AA 00                  NOP
7350   27AB 00                  NOP
7351   27AC 00                  NOP
7352   27AD 00                  NOP
7353   27AE 00                  NOP
7354   27AF 00                  NOP
7355   27B0 00                  NOP
7356   27B1 00                  NOP
7357   27B2 00                  NOP
7358   27B3 00                  NOP
7359   27B4 00                  NOP
7360   27B5 00                  NOP
7361   27B6 00                  NOP
7362   27B7 00                  NOP
7363   27B8 00                  NOP
7364   27B9 00                  NOP
7365   27BA 00                  NOP
7366   27BB 00                  NOP
7367   27BC 00                  NOP
7368   27BD 00                  NOP
7369   27BE 00                  NOP
7370   27BF 00                  NOP
7371   27C0 00                  NOP
7372   27C1 00                  NOP
7373   27C2 00                  NOP
7374   27C3 00                  NOP
7375   27C4 00                  NOP
7376   27C5 00                  NOP
7377   27C6 00                  NOP
7378   27C7 00                  NOP
7379   27C8 00                  NOP
7380   27C9 00                  NOP
7381   27CA 00                  NOP
7382   27CB 00                  NOP
7383   27CC 00                  NOP
7384   27CD 00                  NOP
7385   27CE 00                  NOP
7386   27CF 00                  NOP
7387   27D0 00                  NOP
7388   27D1 00                  NOP
7389   27D2 00                  NOP
7390   27D3 00                  NOP
7391   27D4 00                  NOP
7392   27D5 00                  NOP
7393   27D6 00                  NOP
7394   27D7 00                  NOP
7395   27D8 00                  NOP
7396   27D9 00                  NOP
7397   27DA 00                  NOP
7398   27DB 00                  NOP
7399   27DC 00                  NOP
7400   27DD 00                  NOP
7401   27DE 00                  NOP
7402   27DF 00                  NOP
7403   27E0 00                  NOP
7404   27E1 00                  NOP
7405   27E2 00                  NOP
7406   27E3 00                  NOP
7407   27E4 00                  NOP
7408   27E5 00                  NOP
7409   27E6 00                  NOP
7410   27E7 00                  NOP
7411   27E8 00                  NOP
7412   27E9 00                  NOP
7413   27EA 00                  NOP
7414   27EB 00                  NOP
7415   27EC 00                  NOP
7416   27ED 00                  NOP
7417   27EE 00                  NOP
7418   27EF 00                  NOP
7419   27F0 00                  NOP
7420   27F1 00                  NOP
7421   27F2 00                  NOP
7422   27F3 00                  NOP
7423   27F4 00                  NOP
7424   27F5 00                  NOP
7425   27F6 00                  NOP
7426   27F7 00                  NOP
7427   27F8 00                  NOP
7428   27F9 00                  NOP
7429   27FA 00                  NOP
7430   27FB 00                  NOP
7431   27FC 00                  NOP
7432   27FD 00                  NOP
7433   27FE 00                  NOP
7434   27FF 00                  NOP
7435   2800 00                  NOP
7436   2801 00                  NOP
7437   2802 00                  NOP
7438   2803 00                  NOP
7439   2804 00                  NOP
7440   2805 00                  NOP
7441   2806 00                  NOP
7442   2807 00                  NOP
7443   2808 00                  NOP
7444   2809 00                  NOP
7445   280A 00                  NOP
7446   280B 00                  NOP
7447   280C 00                  NOP
7448   280D 00                  NOP
7449   280E 00                  NOP
7450   280F 00                  NOP
7451   2810 00                  NOP
7452   2811 00                  NOP
7453   2812 00                  NOP
7454   2813 00                  NOP
7455   2814 00                  NOP
7456   2815 00                  NOP
7457   2816 00                  NOP
7458   2817 00                  NOP
7459   2818 00                  NOP
7460   2819 00                  NOP
7461   281A 00                  NOP
7462   281B 00                  NOP
7463   281C 00                  NOP
7464   281D 00                  NOP
7465   281E 00                  NOP
7466   281F 00                  NOP
7467   2820 00                  NOP
7468   2821 00                  NOP
7469   2822 00                  NOP
7470   2823 00                  NOP
7471   2824 00                  NOP
7472   2825 00                  NOP
7473   2826 00                  NOP
7474   2827 00                  NOP
7475   2828 00                  NOP
7476   2829 00                  NOP
7477   282A 00                  NOP
7478   282B 00                  NOP
7479   282C 00                  NOP
7480   282D 00                  NOP
7481   282E 00                  NOP
7482   282F 00                  NOP
7483   2830 00                  NOP
7484   2831 00                  NOP
7485   2832 00                  NOP
7486   2833 00                  NOP
7487   2834 00                  NOP
7488   2835 00                  NOP
7489   2836 00                  NOP
7490   2837 00                  NOP
7491   2838 00                  NOP
7492   2839 00                  NOP
7493   283A 00                  NOP
7494   283B 00                  NOP
7495   283C 00                  NOP
7496   283D 00                  NOP
7497   283E 00                  NOP
7498   283F 00                  NOP
7499   2840 00                  NOP
7500   2841 00                  NOP
7501   2842 00                  NOP
7502   2843 00                  NOP
7503   2844 00                  NOP
7504   2845 00                  NOP
7505   2846 00                  NOP
7506   2847 00                  NOP
7507   2848 00                  NOP
7508   2849 00                  NOP
7509   284A 00                  NOP
7510   284B 00                  NOP
7511   284C 00                  NOP
7512   284D 00                  NOP
7513   284E 00                  NOP
7514   284F 00                  NOP
7515   2850 00                  NOP
7516   2851 00                  NOP
7517   2852 00                  NOP
7518   2853 00                  NOP
7519   2854 00                  NOP
7520   2855 00                  NOP
7521   2856 00                  NOP
7522   2857 00                  NOP
7523   2858 00                  NOP
7524   2859 00                  NOP
7525   285A 00                  NOP
7526   285B 00                  NOP
7527   285C 00                  NOP
7528   285D 00                  NOP
7529   285E 00                  NOP
7530   285F 00                  NOP
7531   2860 00                  NOP
7532   2861 00                  NOP
7533   2862 00                  NOP
7534   2863 00                  NOP
7535   2864 00                  NOP
7536   2865 00                  NOP
7537   2866 00                  NOP
7538   2867 00                  NOP
7539   2868 00                  NOP
7540   2869 00                  NOP
7541   286A 00                  NOP
7542   286B 00                  NOP
7543   286C 00                  NOP
7544   286D 00                  NOP
7545   286E 00                  NOP
7546   286F 00                  NOP
7547   2870 00                  NOP
7548   2871 00                  NOP
7549   2872 00                  NOP
7550   2873 00                  NOP
7551   2874 00                  NOP
7552   2875 00                  NOP
7553   2876 00                  NOP
7554   2877 00                  NOP
7555   2878 00                  NOP
7556   2879 00                  NOP
7557   287A 00                  NOP
7558   287B 00                  NOP
7559   287C 00                  NOP
7560   287D 00                  NOP
7561   287E 00                  NOP
7562   287F 00                  NOP
7563   2880 00                  NOP
7564   2881 00                  NOP
7565   2882 00                  NOP
7566   2883 00                  NOP
7567   2884 00                  NOP
7568   2885 00                  NOP
7569   2886 00                  NOP
7570   2887 00                  NOP
7571   2888 00                  NOP
7572   2889 00                  NOP
7573   288A 00                  NOP
7574   288B 00                  NOP
7575   288C 00                  NOP
7576   288D 00                  NOP
7577   288E 00                  NOP
7578   288F 00                  NOP
7579   2890 00                  NOP
7580   2891 00                  NOP
7581   2892 00                  NOP
7582   2893 00                  NOP
7583   2894 00                  NOP
7584   2895 00                  NOP
7585   2896 00                  NOP
7586   2897 00                  NOP
7587   2898 00                  NOP
7588   2899 00                  NOP
7589   289A 00                  NOP
7590   289B 00                  NOP
7591   289C 00                  NOP
7592   289D 00                  NOP
7593   289E 00                  NOP
7594   289F 00                  NOP
7595   28A0 00                  NOP
7596   28A1 00                  NOP
7597   28A2 00                  NOP
7598   28A3 00                  NOP
7599   28A4 00                  NOP
7600   28A5 00                  NOP
7601   28A6 00                  NOP
7602   28A7 00                  NOP
7603   28A8 00                  NOP
7604   28A9 00                  NOP
7605   28AA 00                  NOP
7606   28AB 00                  NOP
7607   28AC 00                  NOP
7608   28AD 00                  NOP
7609   28AE 00                  NOP
7610   28AF 00                  NOP
7611   28B0 00                  NOP
7612   28B1 00                  NOP
7613   28B2 00                  NOP
7614   28B3 00                  NOP
7615   28B4 00                  NOP
7616   28B5 00                  NOP
7617   28B6 00                  NOP
7618   28B7 00                  NOP
7619   28B8 00                  NOP
7620   28B9 00                  NOP
7621   28BA 00                  NOP
7622   28BB 00                  NOP
7623   28BC 00                  NOP
7624   28BD 00                  NOP
7625   28BE 00                  NOP
7626   28BF 00                  NOP
7627   28C0 00                  NOP
7628   28C1 00                  NOP
7629   28C2 00                  NOP
7630   28C3 00                  NOP
7631   28C4 00                  NOP
7632   28C5 00                  NOP
7633   28C6 00                  NOP
7634   28C7 00                  NOP
7635   28C8 00                  NOP
7636   28C9 00                  NOP
7637   28CA 00                  NOP
7638   28CB 00                  NOP
7639   28CC 00                  NOP
7640   28CD 00                  NOP
7641   28CE 00                  NOP
7642   28CF 00                  NOP
7643   28D0 00                  NOP
7644   28D1 00                  NOP
7645   28D2 00                  NOP
7646   28D3 00                  NOP
7647   28D4 00                  NOP
7648   28D5 00                  NOP
7649   28D6 00                  NOP
7650   28D7 00                  NOP
7651   28D8 00                  NOP
7652   28D9 00                  NOP
7653   28DA 00                  NOP
7654   28DB 00                  NOP
7655   28DC 00                  NOP
7656   28DD 00                  NOP
7657   28DE 00                  NOP
7658   28DF 00                  NOP
7659   28E0 00                  NOP
7660   28E1 00                  NOP
7661   28E2 00                  NOP
7662   28E3 00                  NOP
7663   28E4 00                  NOP
7664   28E5 00                  NOP
7665   28E6 00                  NOP
7666   28E7 00                  NOP
7667   28E8 00                  NOP
7668   28E9 00                  NOP
7669   28EA 00                  NOP
7670   28EB 00                  NOP
7671   28EC 00                  NOP
7672   28ED 00                  NOP
7673   28EE 00                  NOP
7674   28EF 00                  NOP
7675   28F0 00                  NOP
7676   28F1 00                  NOP
7677   28F2 00                  NOP
7678   28F3 00                  NOP
7679   28F4 00                  NOP
7680   28F5 00                  NOP
7681   28F6 00                  NOP
7682   28F7 00                  NOP
7683   28F8 00                  NOP
7684   28F9 00                  NOP
7685   28FA 00                  NOP
7686   28FB 00                  NOP
7687   28FC 00                  NOP
7688   28FD 00                  NOP
7689   28FE 00                  NOP
7690   28FF 00                  NOP
7691   2900 00                  NOP
7692   2901 00                  NOP
7693   2902 00                  NOP
7694   2903 00                  NOP
7695   2904 00                  NOP
7696   2905 00                  NOP
7697   2906 00                  NOP
7698   2907 00                  NOP
7699   2908 00                  NOP
7700   2909 00                  NOP
7701   290A 00                  NOP
7702   290B 00                  NOP
7703   290C 00                  NOP
7704   290D 00                  NOP
7705   290E 00                  NOP
7706   290F 00                  NOP
7707   2910 00                  NOP
7708   2911 00                  NOP
7709   2912 00                  NOP
7710   2913 00                  NOP
7711   2914 00                  NOP
7712   2915 00                  NOP
7713   2916 00                  NOP
7714   2917 00                  NOP
7715   2918 00                  NOP
7716   2919 00                  NOP
7717   291A 00                  NOP
7718   291B 00                  NOP
7719   291C 00                  NOP
7720   291D 00                  NOP
7721   291E 00                  NOP
7722   291F 00                  NOP
7723   2920 00                  NOP
7724   2921 00                  NOP
7725   2922 00                  NOP
7726   2923 00                  NOP
7727   2924 00                  NOP
7728   2925 00                  NOP
7729   2926 00                  NOP
7730   2927 00                  NOP
7731   2928 00                  NOP
7732   2929 00                  NOP
7733   292A 00                  NOP
7734   292B 00                  NOP
7735   292C 00                  NOP
7736   292D 00                  NOP
7737   292E 00                  NOP
7738   292F 00                  NOP
7739   2930 00                  NOP
7740   2931 00                  NOP
7741   2932 00                  NOP
7742   2933 00                  NOP
7743   2934 00                  NOP
7744   2935 00                  NOP
7745   2936 00                  NOP
7746   2937 00                  NOP
7747   2938 00                  NOP
7748   2939 00                  NOP
7749   293A 00                  NOP
7750   293B 00                  NOP
7751   293C 00                  NOP
7752   293D 00                  NOP
7753   293E 00                  NOP
7754   293F 00                  NOP
7755   2940 00                  NOP
7756   2941 00                  NOP
7757   2942 00                  NOP
7758   2943 00                  NOP
7759   2944 00                  NOP
7760   2945 00                  NOP
7761   2946 00                  NOP
7762   2947 00                  NOP
7763   2948 00                  NOP
7764   2949 00                  NOP
7765   294A 00                  NOP
7766   294B 00                  NOP
7767   294C 00                  NOP
7768   294D 00                  NOP
7769   294E 00                  NOP
7770   294F 00                  NOP
7771   2950 00                  NOP
7772   2951 00                  NOP
7773   2952 00                  NOP
7774   2953 00                  NOP
7775   2954 00                  NOP
7776   2955 00                  NOP
7777   2956 00                  NOP
7778   2957 00                  NOP
7779   2958 00                  NOP
7780   2959 00                  NOP
7781   295A 00                  NOP
7782   295B 00                  NOP
7783   295C 00                  NOP
7784   295D 00                  NOP
7785   295E 00                  NOP
7786   295F 00                  NOP
7787   2960 00                  NOP
7788   2961 00                  NOP
7789   2962 00                  NOP
7790   2963 00                  NOP
7791   2964 00                  NOP
7792   2965 00                  NOP
7793   2966 00                  NOP
7794   2967 00                  NOP
7795   2968 00                  NOP
7796   2969 00                  NOP
7797   296A 00                  NOP
7798   296B 00                  NOP
7799   296C 00                  NOP
7800   296D 00                  NOP
7801   296E 00                  NOP
7802   296F 00                  NOP
7803   2970 00                  NOP
7804   2971 00                  NOP
7805   2972 00                  NOP
7806   2973 00                  NOP
7807   2974 00                  NOP
7808   2975 00                  NOP
7809   2976 00                  NOP
7810   2977 00                  NOP
7811   2978 00                  NOP
7812   2979 00                  NOP
7813   297A 00                  NOP
7814   297B 00                  NOP
7815   297C 00                  NOP
7816   297D 00                  NOP
7817   297E 00                  NOP
7818   297F 00                  NOP
7819   2980 00                  NOP
7820   2981 00                  NOP
7821   2982 00                  NOP
7822   2983 00                  NOP
7823   2984 00                  NOP
7824   2985 00                  NOP
7825   2986 00                  NOP
7826   2987 00                  NOP
7827   2988 00                  NOP
7828   2989 00                  NOP
7829   298A 00                  NOP
7830   298B 00                  NOP
7831   298C 00                  NOP
7832   298D 00                  NOP
7833   298E 00                  NOP
7834   298F 00                  NOP
7835   2990 00                  NOP
7836   2991 00                  NOP
7837   2992 00                  NOP
7838   2993 00                  NOP
7839   2994 00                  NOP
7840   2995 00                  NOP
7841   2996 00                  NOP
7842   2997 00                  NOP
7843   2998 00                  NOP
7844   2999 00                  NOP
7845   299A 00                  NOP
7846   299B 00                  NOP
7847   299C 00                  NOP
7848   299D 00                  NOP
7849   299E 00                  NOP
7850   299F 00                  NOP
7851   29A0 00                  NOP
7852   29A1 00                  NOP
7853   29A2 00                  NOP
7854   29A3 00                  NOP
7855   29A4 00                  NOP
7856   29A5 00                  NOP
7857   29A6 00                  NOP
7858   29A7 00                  NOP
7859   29A8 00                  NOP
7860   29A9 00                  NOP
7861   29AA 00                  NOP
7862   29AB 00                  NOP
7863   29AC 00                  NOP
7864   29AD 00                  NOP
7865   29AE 00                  NOP
7866   29AF 00                  NOP
7867   29B0 00                  NOP
7868   29B1 00                  NOP
7869   29B2 00                  NOP
7870   29B3 00                  NOP
7871   29B4 00                  NOP
7872   29B5 00                  NOP
7873   29B6 00                  NOP
7874   29B7 00                  NOP
7875   29B8 00                  NOP
7876   29B9 00                  NOP
7877   29BA 00                  NOP
7878   29BB 00                  NOP
7879   29BC 00                  NOP
7880   29BD 00                  NOP
7881   29BE 00                  NOP
7882   29BF 00                  NOP
7883   29C0 00                  NOP
7884   29C1 00                  NOP
7885   29C2 00                  NOP
7886   29C3 00                  NOP
7887   29C4 00                  NOP
7888   29C5 00                  NOP
7889   29C6 00                  NOP
7890   29C7 00                  NOP
7891   29C8 00                  NOP
7892   29C9 00                  NOP
7893   29CA 00                  NOP
7894   29CB 00                  NOP
7895   29CC 00                  NOP
7896   29CD 00                  NOP
7897   29CE 00                  NOP
7898   29CF 00                  NOP
7899   29D0 00                  NOP
7900   29D1 00                  NOP
7901   29D2 00                  NOP
7902   29D3 00                  NOP
7903   29D4 00                  NOP
7904   29D5 00                  NOP
7905   29D6 00                  NOP
7906   29D7 00                  NOP
7907   29D8 00                  NOP
7908   29D9 00                  NOP
7909   29DA 00                  NOP
7910   29DB 00                  NOP
7911   29DC 00                  NOP
7912   29DD 00                  NOP
7913   29DE 00                  NOP
7914   29DF 00                  NOP
7915   29E0 00                  NOP
7916   29E1 00                  NOP
7917   29E2 00                  NOP
7918   29E3 00                  NOP
7919   29E4 00                  NOP
7920   29E5 00                  NOP
7921   29E6 00                  NOP
7922   29E7 00                  NOP
7923   29E8 00                  NOP
7924   29E9 00                  NOP
7925   29EA 00                  NOP
7926   29EB 00                  NOP
7927   29EC 00                  NOP
7928   29ED 00                  NOP
7929   29EE 00                  NOP
7930   29EF 00                  NOP
7931   29F0 00                  NOP
7932   29F1 00                  NOP
7933   29F2 00                  NOP
7934   29F3 00                  NOP
7935   29F4 00                  NOP
7936   29F5 00                  NOP
7937   29F6 00                  NOP
7938   29F7 00                  NOP
7939   29F8 00                  NOP
7940   29F9 00                  NOP
7941   29FA 00                  NOP
7942   29FB 00                  NOP
7943   29FC 00                  NOP
7944   29FD 00                  NOP
7945   29FE 00                  NOP
7946   29FF 00                  NOP
7947   2A00 00                  NOP
7948   2A01 00                  NOP
7949   2A02 00                  NOP
7950   2A03 00                  NOP
7951   2A04 00                  NOP
7952   2A05 00                  NOP
7953   2A06 00                  NOP
7954   2A07 00                  NOP
7955   2A08 00                  NOP
7956   2A09 00                  NOP
7957   2A0A 00                  NOP
7958   2A0B 00                  NOP
7959   2A0C 00                  NOP
7960   2A0D 00                  NOP
7961   2A0E 00                  NOP
7962   2A0F 00                  NOP
7963   2A10 00                  NOP
7964   2A11 00                  NOP
7965   2A12 00                  NOP
7966   2A13 00                  NOP
7967   2A14 00                  NOP
7968   2A15 00                  NOP
7969   2A16 00                  NOP
7970   2A17 00                  NOP
7971   2A18 00                  NOP
7972   2A19 00                  NOP
7973   2A1A 00                  NOP
7974   2A1B 00                  NOP
7975   2A1C 00                  NOP
7976   2A1D 00                  NOP
7977   2A1E 00                  NOP
7978   2A1F 00                  NOP
7979   2A20 00                  NOP
7980   2A21 00                  NOP
7981   2A22 00                  NOP
7982   2A23 00                  NOP
7983   2A24 00                  NOP
7984   2A25 00                  NOP
7985   2A26 00                  NOP
7986   2A27 00                  NOP
7987   2A28 00                  NOP
7988   2A29 00                  NOP
7989   2A2A 00                  NOP
7990   2A2B 00                  NOP
7991   2A2C 00                  NOP
7992   2A2D 00                  NOP
7993   2A2E 00                  NOP
7994   2A2F 00                  NOP
7995   2A30 00                  NOP
7996   2A31 00                  NOP
7997   2A32 00                  NOP
7998   2A33 00                  NOP
7999   2A34 00                  NOP
8000   2A35 00                  NOP
8001   2A36 00                  NOP
8002   2A37 00                  NOP
8003   2A38 00                  NOP
8004   2A39 00                  NOP
8005   2A3A 00                  NOP
8006   2A3B 00                  NOP
8007   2A3C 00                  NOP
8008   2A3D 00                  NOP
8009   2A3E 00                  NOP
8010   2A3F 00                  NOP
8011   2A40 00                  NOP
8012   2A41 00                  NOP
8013   2A42 00                  NOP
8014   2A43 00                  NOP
8015   2A44 00                  NOP
8016   2A45 00                  NOP
8017   2A46 00                  NOP
8018   2A47 00                  NOP
8019   2A48 00                  NOP
8020   2A49 00                  NOP
8021   2A4A 00                  NOP
8022   2A4B 00                  NOP
8023   2A4C 00                  NOP
8024   2A4D 00                  NOP
8025   2A4E 00                  NOP
8026   2A4F 00                  NOP
8027   2A50 00                  NOP
8028   2A51 00                  NOP
8029   2A52 00                  NOP
8030   2A53 00                  NOP
8031   2A54 00                  NOP
8032   2A55 00                  NOP
8033   2A56 00                  NOP
8034   2A57 00                  NOP
8035   2A58 00                  NOP
8036   2A59 00                  NOP
8037   2A5A 00                  NOP
8038   2A5B 00                  NOP
8039   2A5C 00                  NOP
8040   2A5D 00                  NOP
8041   2A5E 00                  NOP
8042   2A5F 00                  NOP
8043   2A60 00                  NOP
8044   2A61 00                  NOP
8045   2A62 00                  NOP
8046   2A63 00                  NOP
8047   2A64 00                  NOP
8048   2A65 00                  NOP
8049   2A66 00                  NOP
8050   2A67 00                  NOP
8051   2A68 00                  NOP
8052   2A69 00                  NOP
8053   2A6A 00                  NOP
8054   2A6B 00                  NOP
8055   2A6C 00                  NOP
8056   2A6D 00                  NOP
8057   2A6E 00                  NOP
8058   2A6F 00                  NOP
8059   2A70 00                  NOP
8060   2A71 00                  NOP
8061   2A72 00                  NOP
8062   2A73 00                  NOP
8063   2A74 00                  NOP
8064   2A75 00                  NOP
8065   2A76 00                  NOP
8066   2A77 00                  NOP
8067   2A78 00                  NOP
8068   2A79 00                  NOP
8069   2A7A 00                  NOP
8070   2A7B 00                  NOP
8071   2A7C 00                  NOP
8072   2A7D 00                  NOP
8073   2A7E 00                  NOP
8074   2A7F 00                  NOP
8075   2A80 00                  NOP
8076   2A81 00                  NOP
8077   2A82 00                  NOP
8078   2A83 00                  NOP
8079   2A84 00                  NOP
8080   2A85 00                  NOP
8081   2A86 00                  NOP
8082   2A87 00                  NOP
8083   2A88 00                  NOP
8084   2A89 00                  NOP
8085   2A8A 00                  NOP
8086   2A8B 00                  NOP
8087   2A8C 00                  NOP
8088   2A8D 00                  NOP
8089   2A8E 00                  NOP
8090   2A8F 00                  NOP
8091   2A90 00                  NOP
8092   2A91 00                  NOP
8093   2A92 00                  NOP
8094   2A93 00                  NOP
8095   2A94 00                  NOP
8096   2A95 00                  NOP
8097   2A96 00                  NOP
8098   2A97 00                  NOP
8099   2A98 00                  NOP
8100   2A99 00                  NOP
8101   2A9A 00                  NOP
8102   2A9B 00                  NOP
8103   2A9C 00                  NOP
8104   2A9D 00                  NOP
8105   2A9E 00                  NOP
8106   2A9F 00                  NOP
8107   2AA0 00                  NOP
8108   2AA1 00                  NOP
8109   2AA2 00                  NOP
8110   2AA3 00                  NOP
8111   2AA4 00                  NOP
8112   2AA5 00                  NOP
8113   2AA6 00                  NOP
8114   2AA7 00                  NOP
8115   2AA8 00                  NOP
8116   2AA9 00                  NOP
8117   2AAA 00                  NOP
8118   2AAB 00                  NOP
8119   2AAC 00                  NOP
8120   2AAD 00                  NOP
8121   2AAE 00                  NOP
8122   2AAF 00                  NOP
8123   2AB0 00                  NOP
8124   2AB1 00                  NOP
8125   2AB2 00                  NOP
8126   2AB3 00                  NOP
8127   2AB4 00                  NOP
8128   2AB5 00                  NOP
8129   2AB6 00                  NOP
8130   2AB7 00                  NOP
8131   2AB8 00                  NOP
8132   2AB9 00                  NOP
8133   2ABA 00                  NOP
8134   2ABB 00                  NOP
8135   2ABC 00                  NOP
8136   2ABD 00                  NOP
8137   2ABE 00                  NOP
8138   2ABF 00                  NOP
8139   2AC0 00                  NOP
8140   2AC1 00                  NOP
8141   2AC2 00                  NOP
8142   2AC3 00                  NOP
8143   2AC4 00                  NOP
8144   2AC5 00                  NOP
8145   2AC6 00                  NOP
8146   2AC7 00                  NOP
8147   2AC8 00                  NOP
8148   2AC9 00                  NOP
8149   2ACA 00                  NOP
8150   2ACB 00                  NOP
8151   2ACC 00                  NOP
8152   2ACD 00                  NOP
8153   2ACE 00                  NOP
8154   2ACF 00                  NOP
8155   2AD0 00                  NOP
8156   2AD1 00                  NOP
8157   2AD2 00                  NOP
8158   2AD3 00                  NOP
8159   2AD4 00                  NOP
8160   2AD5 00                  NOP
8161   2AD6 00                  NOP
8162   2AD7 00                  NOP
8163   2AD8 00                  NOP
8164   2AD9 00                  NOP
8165   2ADA 00                  NOP
8166   2ADB 00                  NOP
8167   2ADC 00                  NOP
8168   2ADD 00                  NOP
8169   2ADE 00                  NOP
8170   2ADF 00                  NOP
8171   2AE0 00                  NOP
8172   2AE1 00                  NOP
8173   2AE2 00                  NOP
8174   2AE3 00                  NOP
8175   2AE4 00                  NOP
8176   2AE5 00                  NOP
8177   2AE6 00                  NOP
8178   2AE7 00                  NOP
8179   2AE8 00                  NOP
8180   2AE9 00                  NOP
8181   2AEA 00                  NOP
8182   2AEB 00                  NOP
8183   2AEC 00                  NOP
8184   2AED 00                  NOP
8185   2AEE 00                  NOP
8186   2AEF 00                  NOP
8187   2AF0 00                  NOP
8188   2AF1 00                  NOP
8189   2AF2 00                  NOP
8190   2AF3 00                  NOP
8191   2AF4 00                  NOP
8192   2AF5 00                  NOP
8193   2AF6 00                  NOP
8194   2AF7 00                  NOP
8195   2AF8 00                  NOP
8196   2AF9 00                  NOP
8197   2AFA 00                  NOP
8198   2AFB 00                  NOP
8199   2AFC 00                  NOP
8200   2AFD 00                  NOP
8201   2AFE 00                  NOP
8202   2AFF 00                  NOP
8203   2B00 00                  NOP
8204   2B01 00                  NOP
8205   2B02 00                  NOP
8206   2B03 00                  NOP
8207   2B04 00                  NOP
8208   2B05 00                  NOP
8209   2B06 00                  NOP
8210   2B07 00                  NOP
8211   2B08 00                  NOP
8212   2B09 00                  NOP
8213   2B0A 00                  NOP
8214   2B0B 00                  NOP
8215   2B0C 00                  NOP
8216   2B0D 00                  NOP
8217   2B0E 00                  NOP
8218   2B0F 00                  NOP
8219   2B10 00                  NOP
8220   2B11 00                  NOP
8221   2B12 00                  NOP
8222   2B13 00                  NOP
8223   2B14 00                  NOP
8224   2B15 00                  NOP
8225   2B16 00                  NOP
8226   2B17 00                  NOP
8227   2B18 00                  NOP
8228   2B19 00                  NOP
8229   2B1A 00                  NOP
8230   2B1B 00                  NOP
8231   2B1C 00                  NOP
8232   2B1D 00                  NOP
8233   2B1E 00                  NOP
8234   2B1F 00                  NOP
8235   2B20 00                  NOP
8236   2B21 00                  NOP
8237   2B22 00                  NOP
8238   2B23 00                  NOP
8239   2B24 00                  NOP
8240   2B25 00                  NOP
8241   2B26 00                  NOP
8242   2B27 00                  NOP
8243   2B28 00                  NOP
8244   2B29 00                  NOP
8245   2B2A 00                  NOP
8246   2B2B 00                  NOP
8247   2B2C 00                  NOP
8248   2B2D 00                  NOP
8249   2B2E 00                  NOP
8250   2B2F 00                  NOP
8251   2B30 00                  NOP
8252   2B31 00                  NOP
8253   2B32 00                  NOP
8254   2B33 00                  NOP
8255   2B34 00                  NOP
8256   2B35 00                  NOP
8257   2B36 00                  NOP
8258   2B37 00                  NOP
8259   2B38 00                  NOP
8260   2B39 00                  NOP
8261   2B3A 00                  NOP
8262   2B3B 00                  NOP
8263   2B3C 00                  NOP
8264   2B3D 00                  NOP
8265   2B3E 00                  NOP
8266   2B3F 00                  NOP
8267   2B40 00                  NOP
8268   2B41 00                  NOP
8269   2B42 00                  NOP
8270   2B43 00                  NOP
8271   2B44 00                  NOP
8272   2B45 00                  NOP
8273   2B46 00                  NOP
8274   2B47 00                  NOP
8275   2B48 00                  NOP
8276   2B49 00                  NOP
8277   2B4A 00                  NOP
8278   2B4B 00                  NOP
8279   2B4C 00                  NOP
8280   2B4D 00                  NOP
8281   2B4E 00                  NOP
8282   2B4F 00                  NOP
8283   2B50 00                  NOP
8284   2B51 00                  NOP
8285   2B52 00                  NOP
8286   2B53 00                  NOP
8287   2B54 00                  NOP
8288   2B55 00                  NOP
8289   2B56 00                  NOP
8290   2B57 00                  NOP
8291   2B58 00                  NOP
8292   2B59 00                  NOP
8293   2B5A 00                  NOP
8294   2B5B 00                  NOP
8295   2B5C 00                  NOP
8296   2B5D 00                  NOP
8297   2B5E 00                  NOP
8298   2B5F 00                  NOP
8299   2B60 00                  NOP
8300   2B61 00                  NOP
8301   2B62 00                  NOP
8302   2B63 00                  NOP
8303   2B64 00                  NOP
8304   2B65 00                  NOP
8305   2B66 00                  NOP
8306   2B67 00                  NOP
8307   2B68 00                  NOP
8308   2B69 00                  NOP
8309   2B6A 00                  NOP
8310   2B6B 00                  NOP
8311   2B6C 00                  NOP
8312   2B6D 00                  NOP
8313   2B6E 00                  NOP
8314   2B6F 00                  NOP
8315   2B70 00                  NOP
8316   2B71 00                  NOP
8317   2B72 00                  NOP
8318   2B73 00                  NOP
8319   2B74 00                  NOP
8320   2B75 00                  NOP
8321   2B76 00                  NOP
8322   2B77 00                  NOP
8323   2B78 00                  NOP
8324   2B79 00                  NOP
8325   2B7A 00                  NOP
8326   2B7B 00                  NOP
8327   2B7C 00                  NOP
8328   2B7D 00                  NOP
8329   2B7E 00                  NOP
8330   2B7F 00                  NOP
8331   2B80 00                  NOP
8332   2B81 00                  NOP
8333   2B82 00                  NOP
8334   2B83 00                  NOP
8335   2B84 00                  NOP
8336   2B85 00                  NOP
8337   2B86 00                  NOP
8338   2B87 00                  NOP
8339   2B88 00                  NOP
8340   2B89 00                  NOP
8341   2B8A 00                  NOP
8342   2B8B 00                  NOP
8343   2B8C 00                  NOP
8344   2B8D 00                  NOP
8345   2B8E 00                  NOP
8346   2B8F 00                  NOP
8347   2B90 00                  NOP
8348   2B91 00                  NOP
8349   2B92 00                  NOP
8350   2B93 00                  NOP
8351   2B94 00                  NOP
8352   2B95 00                  NOP
8353   2B96 00                  NOP
8354   2B97 00                  NOP
8355   2B98 00                  NOP
8356   2B99 00                  NOP
8357   2B9A 00                  NOP
8358   2B9B 00                  NOP
8359   2B9C 00                  NOP
8360   2B9D 00                  NOP
8361   2B9E 00                  NOP
8362   2B9F 00                  NOP
8363   2BA0 00                  NOP
8364   2BA1 00                  NOP
8365   2BA2 00                  NOP
8366   2BA3 00                  NOP
8367   2BA4 00                  NOP
8368   2BA5 00                  NOP
8369   2BA6 00                  NOP
8370   2BA7 00                  NOP
8371   2BA8 00                  NOP
8372   2BA9 00                  NOP
8373   2BAA 00                  NOP
8374   2BAB 00                  NOP
8375   2BAC 00                  NOP
8376   2BAD 00                  NOP
8377   2BAE 00                  NOP
8378   2BAF 00                  NOP
8379   2BB0 00                  NOP
8380   2BB1 00                  NOP
8381   2BB2 00                  NOP
8382   2BB3 00                  NOP
8383   2BB4 00                  NOP
8384   2BB5 00                  NOP
8385   2BB6 00                  NOP
8386   2BB7 00                  NOP
8387   2BB8 00                  NOP
8388   2BB9 00                  NOP
8389   2BBA 00                  NOP
8390   2BBB 00                  NOP
8391   2BBC 00                  NOP
8392   2BBD 00                  NOP
8393   2BBE 00                  NOP
8394   2BBF 00                  NOP
8395   2BC0 00                  NOP
8396   2BC1 00                  NOP
8397   2BC2 00                  NOP
8398   2BC3 00                  NOP
8399   2BC4 00                  NOP
8400   2BC5 00                  NOP
8401   2BC6 00                  NOP
8402   2BC7 00                  NOP
8403   2BC8 00                  NOP
8404   2BC9 00                  NOP
8405   2BCA 00                  NOP
8406   2BCB 00                  NOP
8407   2BCC 00                  NOP
8408   2BCD 00                  NOP
8409   2BCE 00                  NOP
8410   2BCF 00                  NOP
8411   2BD0 00                  NOP
8412   2BD1 00                  NOP
8413   2BD2 00                  NOP
8414   2BD3 00                  NOP
8415   2BD4 00                  NOP
8416   2BD5 00                  NOP
8417   2BD6 00                  NOP
8418   2BD7 00                  NOP
8419   2BD8 00                  NOP
8420   2BD9 00                  NOP
8421   2BDA 00                  NOP
8422   2BDB 00                  NOP
8423   2BDC 00                  NOP
8424   2BDD 00                  NOP
8425   2BDE 00                  NOP
8426   2BDF 00                  NOP
8427   2BE0 00                  NOP
8428   2BE1 00                  NOP
8429   2BE2 00                  NOP
8430   2BE3 00                  NOP
8431   2BE4 00                  NOP
8432   2BE5 00                  NOP
8433   2BE6 00                  NOP
8434   2BE7 00                  NOP
8435   2BE8 00                  NOP
8436   2BE9 00                  NOP
8437   2BEA 00                  NOP
8438   2BEB 00                  NOP
8439   2BEC 00                  NOP
8440   2BED 00                  NOP
8441   2BEE 00                  NOP
8442   2BEF 00                  NOP
8443   2BF0 00                  NOP
8444   2BF1 00                  NOP
8445   2BF2 00                  NOP
8446   2BF3 00                  NOP
8447   2BF4 00                  NOP
8448   2BF5 00                  NOP
8449   2BF6 00                  NOP
8450   2BF7 00                  NOP
8451   2BF8 00                  NOP
8452   2BF9 00                  NOP
8453   2BFA 00                  NOP
8454   2BFB 00                  NOP
8455   2BFC 00                  NOP
8456   2BFD 00                  NOP
8457   2BFE 00                  NOP
8458   2BFF 00                  NOP
8459   2C00 00                  NOP
8460   2C01 00                  NOP
8461   2C02 00                  NOP
8462   2C03 00                  NOP
8463   2C04 00                  NOP
8464   2C05 00                  NOP
8465   2C06 00                  NOP
8466   2C07 00                  NOP
8467   2C08 00                  NOP
8468   2C09 00                  NOP
8469   2C0A 00                  NOP
8470   2C0B 00                  NOP
8471   2C0C 00                  NOP
8472   2C0D 00                  NOP
8473   2C0E 00                  NOP
8474   2C0F 00                  NOP
8475   2C10 00                  NOP
8476   2C11 00                  NOP
8477   2C12 00                  NOP
8478   2C13 00                  NOP
8479   2C14 00                  NOP
8480   2C15 00                  NOP
8481   2C16 00                  NOP
8482   2C17 00                  NOP
8483   2C18 00                  NOP
8484   2C19 00                  NOP
8485   2C1A 00                  NOP
8486   2C1B 00                  NOP
8487   2C1C 00                  NOP
8488   2C1D 00                  NOP
8489   2C1E 00                  NOP
8490   2C1F 00                  NOP
8491   2C20 00                  NOP
8492   2C21 00                  NOP
8493   2C22 00                  NOP
8494   2C23 00                  NOP
8495   2C24 00                  NOP
8496   2C25 00                  NOP
8497   2C26 00                  NOP
8498   2C27 00                  NOP
8499   2C28 00                  NOP
8500   2C29 00                  NOP
8501   2C2A 00                  NOP
8502   2C2B 00                  NOP
8503   2C2C 00                  NOP
8504   2C2D 00                  NOP
8505   2C2E 00                  NOP
8506   2C2F 00                  NOP
8507   2C30 00                  NOP
8508   2C31 00                  NOP
8509   2C32 00                  NOP
8510   2C33 00                  NOP
8511   2C34 00                  NOP
8512   2C35 00                  NOP
8513   2C36 00                  NOP
8514   2C37 00                  NOP
8515   2C38 00                  NOP
8516   2C39 00                  NOP
8517   2C3A 00                  NOP
8518   2C3B 00                  NOP
8519   2C3C 00                  NOP
8520   2C3D 00                  NOP
8521   2C3E 00                  NOP
8522   2C3F 00                  NOP
8523   2C40 00                  NOP
8524   2C41 00                  NOP
8525   2C42 00                  NOP
8526   2C43 00                  NOP
8527   2C44 00                  NOP
8528   2C45 00                  NOP
8529   2C46 00                  NOP
8530   2C47 00                  NOP
8531   2C48 00                  NOP
8532   2C49 00                  NOP
8533   2C4A 00                  NOP
8534   2C4B 00                  NOP
8535   2C4C 00                  NOP
8536   2C4D 00                  NOP
8537   2C4E 00                  NOP
8538   2C4F 00                  NOP
8539   2C50 00                  NOP
8540   2C51 00                  NOP
8541   2C52 00                  NOP
8542   2C53 00                  NOP
8543   2C54 00                  NOP
8544   2C55 00                  NOP
8545   2C56 00                  NOP
8546   2C57 00                  NOP
8547   2C58 00                  NOP
8548   2C59 00                  NOP
8549   2C5A 00                  NOP
8550   2C5B 00                  NOP
8551   2C5C 00                  NOP
8552   2C5D 00                  NOP
8553   2C5E 00                  NOP
8554   2C5F 00                  NOP
8555   2C60 00                  NOP
8556   2C61 00                  NOP
8557   2C62 00                  NOP
8558   2C63 00                  NOP
8559   2C64 00                  NOP
8560   2C65 00                  NOP
8561   2C66 00                  NOP
8562   2C67 00                  NOP
8563   2C68 00                  NOP
8564   2C69 00                  NOP
8565   2C6A 00                  NOP
8566   2C6B 00                  NOP
8567   2C6C 00                  NOP
8568   2C6D 00                  NOP
8569   2C6E 00                  NOP
8570   2C6F 00                  NOP
8571   2C70 00                  NOP
8572   2C71 00                  NOP
8573   2C72 00                  NOP
8574   2C73 00                  NOP
8575   2C74 00                  NOP
8576   2C75 00                  NOP
8577   2C76 00                  NOP
8578   2C77 00                  NOP
8579   2C78 00                  NOP
8580   2C79 00                  NOP
8581   2C7A 00                  NOP
8582   2C7B 00                  NOP
8583   2C7C 00                  NOP
8584   2C7D 00                  NOP
8585   2C7E 00                  NOP
8586   2C7F 00                  NOP
8587   2C80 00                  NOP
8588   2C81 00                  NOP
8589   2C82 00                  NOP
8590   2C83 00                  NOP
8591   2C84 00                  NOP
8592   2C85 00                  NOP
8593   2C86 00                  NOP
8594   2C87 00                  NOP
8595   2C88 00                  NOP
8596   2C89 00                  NOP
8597   2C8A 00                  NOP
8598   2C8B 00                  NOP
8599   2C8C 00                  NOP
8600   2C8D 00                  NOP
8601   2C8E 00                  NOP
8602   2C8F 00                  NOP
8603   2C90 00                  NOP
8604   2C91 00                  NOP
8605   2C92 00                  NOP
8606   2C93 00                  NOP
8607   2C94 00                  NOP
8608   2C95 00                  NOP
8609   2C96 00                  NOP
8610   2C97 00                  NOP
8611   2C98 00                  NOP
8612   2C99 00                  NOP
8613   2C9A 00                  NOP
8614   2C9B 00                  NOP
8615   2C9C 00                  NOP
8616   2C9D 00                  NOP
8617   2C9E 00                  NOP
8618   2C9F 00                  NOP
8619   2CA0 00                  NOP
8620   2CA1 00                  NOP
8621   2CA2 00                  NOP
8622   2CA3 00                  NOP
8623   2CA4 00                  NOP
8624   2CA5 00                  NOP
8625   2CA6 00                  NOP
8626   2CA7 00                  NOP
8627   2CA8 00                  NOP
8628   2CA9 00                  NOP
8629   2CAA 00                  NOP
8630   2CAB 00                  NOP
8631   2CAC 00                  NOP
8632   2CAD 00                  NOP
8633   2CAE 00                  NOP
8634   2CAF 00                  NOP
8635   2CB0 00                  NOP
8636   2CB1 00                  NOP
8637   2CB2 00                  NOP
8638   2CB3 00                  NOP
8639   2CB4 00                  NOP
8640   2CB5 00                  NOP
8641   2CB6 00                  NOP
8642   2CB7 00                  NOP
8643   2CB8 00                  NOP
8644   2CB9 00                  NOP
8645   2CBA 00                  NOP
8646   2CBB 00                  NOP
8647   2CBC 00                  NOP
8648   2CBD 00                  NOP
8649   2CBE 00                  NOP
8650   2CBF 00                  NOP
8651   2CC0 00                  NOP
8652   2CC1 00                  NOP
8653   2CC2 00                  NOP
8654   2CC3 00                  NOP
8655   2CC4 00                  NOP
8656   2CC5 00                  NOP
8657   2CC6 00                  NOP
8658   2CC7 00                  NOP
8659   2CC8 00                  NOP
8660   2CC9 00                  NOP
8661   2CCA 00                  NOP
8662   2CCB 00                  NOP
8663   2CCC 00                  NOP
8664   2CCD 00                  NOP
8665   2CCE 00                  NOP
8666   2CCF 00                  NOP
8667   2CD0 00                  NOP
8668   2CD1 00                  NOP
8669   2CD2 00                  NOP
8670   2CD3 00                  NOP
8671   2CD4 00                  NOP
8672   2CD5 00                  NOP
8673   2CD6 00                  NOP
8674   2CD7 00                  NOP
8675   2CD8 00                  NOP
8676   2CD9 00                  NOP
8677   2CDA 00                  NOP
8678   2CDB 00                  NOP
8679   2CDC 00                  NOP
8680   2CDD 00                  NOP
8681   2CDE 00                  NOP
8682   2CDF 00                  NOP
8683   2CE0 00                  NOP
8684   2CE1 00                  NOP
8685   2CE2 00                  NOP
8686   2CE3 00                  NOP
8687   2CE4 00                  NOP
8688   2CE5 00                  NOP
8689   2CE6 00                  NOP
8690   2CE7 00                  NOP
8691   2CE8 00                  NOP
8692   2CE9 00                  NOP
8693   2CEA 00                  NOP
8694   2CEB 00                  NOP
8695   2CEC 00                  NOP
8696   2CED 00                  NOP
8697   2CEE 00                  NOP
8698   2CEF 00                  NOP
8699   2CF0 00                  NOP
8700   2CF1 00                  NOP
8701   2CF2 00                  NOP
8702   2CF3 00                  NOP
8703   2CF4 00                  NOP
8704   2CF5 00                  NOP
8705   2CF6 00                  NOP
8706   2CF7 00                  NOP
8707   2CF8 00                  NOP
8708   2CF9 00                  NOP
8709   2CFA 00                  NOP
8710   2CFB 00                  NOP
8711   2CFC 00                  NOP
8712   2CFD 00                  NOP
8713   2CFE 00                  NOP
8714   2CFF 00                  NOP
8715   2D00 00                  NOP
8716   2D01 00                  NOP
8717   2D02 00                  NOP
8718   2D03 00                  NOP
8719   2D04 00                  NOP
8720   2D05 00                  NOP
8721   2D06 00                  NOP
8722   2D07 00                  NOP
8723   2D08 00                  NOP
8724   2D09 00                  NOP
8725   2D0A 00                  NOP
8726   2D0B 00                  NOP
8727   2D0C 00                  NOP
8728   2D0D 00                  NOP
8729   2D0E 00                  NOP
8730   2D0F 00                  NOP
8731   2D10 00                  NOP
8732   2D11 00                  NOP
8733   2D12 00                  NOP
8734   2D13 00                  NOP
8735   2D14 00                  NOP
8736   2D15 00                  NOP
8737   2D16 00                  NOP
8738   2D17 00                  NOP
8739   2D18 00                  NOP
8740   2D19 00                  NOP
8741   2D1A 00                  NOP
8742   2D1B 00                  NOP
8743   2D1C 00                  NOP
8744   2D1D 00                  NOP
8745   2D1E 00                  NOP
8746   2D1F 00                  NOP
8747   2D20 00                  NOP
8748   2D21 00                  NOP
8749   2D22 00                  NOP
8750   2D23 00                  NOP
8751   2D24 00                  NOP
8752   2D25 00                  NOP
8753   2D26 00                  NOP
8754   2D27 00                  NOP
8755   2D28 00                  NOP
8756   2D29 00                  NOP
8757   2D2A 00                  NOP
8758   2D2B 00                  NOP
8759   2D2C 00                  NOP
8760   2D2D 00                  NOP
8761   2D2E 00                  NOP
8762   2D2F 00                  NOP
8763   2D30 00                  NOP
8764   2D31 00                  NOP
8765   2D32 00                  NOP
8766   2D33 00                  NOP
8767   2D34 00                  NOP
8768   2D35 00                  NOP
8769   2D36 00                  NOP
8770   2D37 00                  NOP
8771   2D38 00                  NOP
8772   2D39 00                  NOP
8773   2D3A 00                  NOP
8774   2D3B 00                  NOP
8775   2D3C 00                  NOP
8776   2D3D 00                  NOP
8777   2D3E 00                  NOP
8778   2D3F 00                  NOP
8779   2D40 00                  NOP
8780   2D41 00                  NOP
8781   2D42 00                  NOP
8782   2D43 00                  NOP
8783   2D44 00                  NOP
8784   2D45 00                  NOP
8785   2D46 00                  NOP
8786   2D47 00                  NOP
8787   2D48 00                  NOP
8788   2D49 00                  NOP
8789   2D4A 00                  NOP
8790   2D4B 00                  NOP
8791   2D4C 00                  NOP
8792   2D4D 00                  NOP
8793   2D4E 00                  NOP
8794   2D4F 00                  NOP
8795   2D50 00                  NOP
8796   2D51 00                  NOP
8797   2D52 00                  NOP
8798   2D53 00                  NOP
8799   2D54 00                  NOP
8800   2D55 00                  NOP
8801   2D56 00                  NOP
8802   2D57 00                  NOP
8803   2D58 00                  NOP
8804   2D59 00                  NOP
8805   2D5A 00                  NOP
8806   2D5B 00                  NOP
8807   2D5C 00                  NOP
8808   2D5D 00                  NOP
8809   2D5E 00                  NOP
8810   2D5F 00                  NOP
8811   2D60 00                  NOP
8812   2D61 00                  NOP
8813   2D62 00                  NOP
8814   2D63 00                  NOP
8815   2D64 00                  NOP
8816   2D65 00                  NOP
8817   2D66 00                  NOP
8818   2D67 00                  NOP
8819   2D68 00                  NOP
8820   2D69 00                  NOP
8821   2D6A 00                  NOP
8822   2D6B 00                  NOP
8823   2D6C 00                  NOP
8824   2D6D 00                  NOP
8825   2D6E 00                  NOP
8826   2D6F 00                  NOP
8827   2D70 00                  NOP
8828   2D71 00                  NOP
8829   2D72 00                  NOP
8830   2D73 00                  NOP
8831   2D74 00                  NOP
8832   2D75 00                  NOP
8833   2D76 00                  NOP
8834   2D77 00                  NOP
8835   2D78 00                  NOP
8836   2D79 00                  NOP
8837   2D7A 00                  NOP
8838   2D7B 00                  NOP
8839   2D7C 00                  NOP
8840   2D7D 00                  NOP
8841   2D7E 00                  NOP
8842   2D7F 00                  NOP
8843   2D80 00                  NOP
8844   2D81 00                  NOP
8845   2D82 00                  NOP
8846   2D83 00                  NOP
8847   2D84 00                  NOP
8848   2D85 00                  NOP
8849   2D86 00                  NOP
8850   2D87 00                  NOP
8851   2D88 00                  NOP
8852   2D89 00                  NOP
8853   2D8A 00                  NOP
8854   2D8B 00                  NOP
8855   2D8C 00                  NOP
8856   2D8D 00                  NOP
8857   2D8E 00                  NOP
8858   2D8F 00                  NOP
8859   2D90 00                  NOP
8860   2D91 00                  NOP
8861   2D92 00                  NOP
8862   2D93 00                  NOP
8863   2D94 00                  NOP
8864   2D95 00                  NOP
8865   2D96 00                  NOP
8866   2D97 00                  NOP
8867   2D98 00                  NOP
8868   2D99 00                  NOP
8869   2D9A 00                  NOP
8870   2D9B 00                  NOP
8871   2D9C 00                  NOP
8872   2D9D 00                  NOP
8873   2D9E 00                  NOP
8874   2D9F 00                  NOP
8875   2DA0 00                  NOP
8876   2DA1 00                  NOP
8877   2DA2 00                  NOP
8878   2DA3 00                  NOP
8879   2DA4 00                  NOP
8880   2DA5 00                  NOP
8881   2DA6 00                  NOP
8882   2DA7 00                  NOP
8883   2DA8 00                  NOP
8884   2DA9 00                  NOP
8885   2DAA 00                  NOP
8886   2DAB 00                  NOP
8887   2DAC 00                  NOP
8888   2DAD 00                  NOP
8889   2DAE 00                  NOP
8890   2DAF 00                  NOP
8891   2DB0 00                  NOP
8892   2DB1 00                  NOP
8893   2DB2 00                  NOP
8894   2DB3 00                  NOP
8895   2DB4 00                  NOP
8896   2DB5 00                  NOP
8897   2DB6 00                  NOP
8898   2DB7 00                  NOP
8899   2DB8 00                  NOP
8900   2DB9 00                  NOP
8901   2DBA 00                  NOP
8902   2DBB 00                  NOP
8903   2DBC 00                  NOP
8904   2DBD 00                  NOP
8905   2DBE 00                  NOP
8906   2DBF 00                  NOP
8907   2DC0 00                  NOP
8908   2DC1 00                  NOP
8909   2DC2 00                  NOP
8910   2DC3 00                  NOP
8911   2DC4 00                  NOP
8912   2DC5 00                  NOP
8913   2DC6 00                  NOP
8914   2DC7 00                  NOP
8915   2DC8 00                  NOP
8916   2DC9 00                  NOP
8917   2DCA 00                  NOP
8918   2DCB 00                  NOP
8919   2DCC 00                  NOP
8920   2DCD 00                  NOP
8921   2DCE 00                  NOP
8922   2DCF 00                  NOP
8923   2DD0 00                  NOP
8924   2DD1 00                  NOP
8925   2DD2 00                  NOP
8926   2DD3 00                  NOP
8927   2DD4 00                  NOP
8928   2DD5 00                  NOP
8929   2DD6 00                  NOP
8930   2DD7 00                  NOP
8931   2DD8 00                  NOP
8932   2DD9 00                  NOP
8933   2DDA 00                  NOP
8934   2DDB 00                  NOP
8935   2DDC 00                  NOP
8936   2DDD 00                  NOP
8937   2DDE 00                  NOP
8938   2DDF 00                  NOP
8939   2DE0 00                  NOP
8940   2DE1 00                  NOP
8941   2DE2 00                  NOP
8942   2DE3 00                  NOP
8943   2DE4 00                  NOP
8944   2DE5 00                  NOP
8945   2DE6 00                  NOP
8946   2DE7 00                  NOP
8947   2DE8 00                  NOP
8948   2DE9 00                  NOP
8949   2DEA 00                  NOP
8950   2DEB 00                  NOP
8951   2DEC 00                  NOP
8952   2DED 00                  NOP
8953   2DEE 00                  NOP
8954   2DEF 00                  NOP
8955   2DF0 00                  NOP
8956   2DF1 00                  NOP
8957   2DF2 00                  NOP
8958   2DF3 00                  NOP
8959   2DF4 00                  NOP
8960   2DF5 00                  NOP
8961   2DF6 00                  NOP
8962   2DF7 00                  NOP
8963   2DF8 00                  NOP
8964   2DF9 00                  NOP
8965   2DFA 00                  NOP
8966   2DFB 00                  NOP
8967   2DFC 00                  NOP
8968   2DFD 00                  NOP
8969   2DFE 00                  NOP
8970   2DFF 00                  NOP
8971   2E00 00                  NOP
8972   2E01 00                  NOP
8973   2E02 00                  NOP
8974   2E03 00                  NOP
8975   2E04 00                  NOP
8976   2E05 00                  NOP
8977   2E06 00                  NOP
8978   2E07 00                  NOP
8979   2E08 00                  NOP
8980   2E09 00                  NOP
8981   2E0A 00                  NOP
8982   2E0B 00                  NOP
8983   2E0C 00                  NOP
8984   2E0D 00                  NOP
8985   2E0E 00                  NOP
8986   2E0F 00                  NOP
8987   2E10 00                  NOP
8988   2E11 00                  NOP
8989   2E12 00                  NOP
8990   2E13 00                  NOP
8991   2E14 00                  NOP
8992   2E15 00                  NOP
8993   2E16 00                  NOP
8994   2E17 00                  NOP
8995   2E18 00                  NOP
8996   2E19 00                  NOP
8997   2E1A 00                  NOP
8998   2E1B 00                  NOP
8999   2E1C 00                  NOP
9000   2E1D 00                  NOP
9001   2E1E 00                  NOP
9002   2E1F 00                  NOP
9003   2E20 00                  NOP
9004   2E21 00                  NOP
9005   2E22 00                  NOP
9006   2E23 00                  NOP
9007   2E24 00                  NOP
9008   2E25 00                  NOP
9009   2E26 00                  NOP
9010   2E27 00                  NOP
9011   2E28 00                  NOP
9012   2E29 00                  NOP
9013   2E2A 00                  NOP
9014   2E2B 00                  NOP
9015   2E2C 00                  NOP
9016   2E2D 00                  NOP
9017   2E2E 00                  NOP
9018   2E2F 00                  NOP
9019   2E30 00                  NOP
9020   2E31 00                  NOP
9021   2E32 00                  NOP
9022   2E33 00                  NOP
9023   2E34 00                  NOP
9024   2E35 00                  NOP
9025   2E36 00                  NOP
9026   2E37 00                  NOP
9027   2E38 00                  NOP
9028   2E39 00                  NOP
9029   2E3A 00                  NOP
9030   2E3B 00                  NOP
9031   2E3C 00                  NOP
9032   2E3D 00                  NOP
9033   2E3E 00                  NOP
9034   2E3F 00                  NOP
9035   2E40 00                  NOP
9036   2E41 00                  NOP
9037   2E42 00                  NOP
9038   2E43 00                  NOP
9039   2E44 00                  NOP
9040   2E45 00                  NOP
9041   2E46 00                  NOP
9042   2E47 00                  NOP
9043   2E48 00                  NOP
9044   2E49 00                  NOP
9045   2E4A 00                  NOP
9046   2E4B 00                  NOP
9047   2E4C 00                  NOP
9048   2E4D 00                  NOP
9049   2E4E 00                  NOP
9050   2E4F 00                  NOP
9051   2E50 00                  NOP
9052   2E51 00                  NOP
9053   2E52 00                  NOP
9054   2E53 00                  NOP
9055   2E54 00                  NOP
9056   2E55 00                  NOP
9057   2E56 00                  NOP
9058   2E57 00                  NOP
9059   2E58 00                  NOP
9060   2E59 00                  NOP
9061   2E5A 00                  NOP
9062   2E5B 00                  NOP
9063   2E5C 00                  NOP
9064   2E5D 00                  NOP
9065   2E5E 00                  NOP
9066   2E5F 00                  NOP
9067   2E60 00                  NOP
9068   2E61 00                  NOP
9069   2E62 00                  NOP
9070   2E63 00                  NOP
9071   2E64 00                  NOP
9072   2E65 00                  NOP
9073   2E66 00                  NOP
9074   2E67 00                  NOP
9075   2E68 00                  NOP
9076   2E69 00                  NOP
9077   2E6A 00                  NOP
9078   2E6B 00                  NOP
9079   2E6C 00                  NOP
9080   2E6D 00                  NOP
9081   2E6E 00                  NOP
9082   2E6F 00                  NOP
9083   2E70 00                  NOP
9084   2E71 00                  NOP
9085   2E72 00                  NOP
9086   2E73 00                  NOP
9087   2E74 00                  NOP
9088   2E75 00                  NOP
9089   2E76 00                  NOP
9090   2E77 00                  NOP
9091   2E78 00                  NOP
9092   2E79 00                  NOP
9093   2E7A 00                  NOP
9094   2E7B 00                  NOP
9095   2E7C 00                  NOP
9096   2E7D 00                  NOP
9097   2E7E 00                  NOP
9098   2E7F 00                  NOP
9099   2E80 00                  NOP
9100   2E81 00                  NOP
9101   2E82 00                  NOP
9102   2E83 00                  NOP
9103   2E84 00                  NOP
9104   2E85 00                  NOP
9105   2E86 00                  NOP
9106   2E87 00                  NOP
9107   2E88 00                  NOP
9108   2E89 00                  NOP
9109   2E8A 00                  NOP
9110   2E8B 00                  NOP
9111   2E8C 00                  NOP
9112   2E8D 00                  NOP
9113   2E8E 00                  NOP
9114   2E8F 00                  NOP
9115   2E90 00                  NOP
9116   2E91 00                  NOP
9117   2E92 00                  NOP
9118   2E93 00                  NOP
9119   2E94 00                  NOP
9120   2E95 00                  NOP
9121   2E96 00                  NOP
9122   2E97 00                  NOP
9123   2E98 00                  NOP
9124   2E99 00                  NOP
9125   2E9A 00                  NOP
9126   2E9B 00                  NOP
9127   2E9C 00                  NOP
9128   2E9D 00                  NOP
9129   2E9E 00                  NOP
9130   2E9F 00                  NOP
9131   2EA0 00                  NOP
9132   2EA1 00                  NOP
9133   2EA2 00                  NOP
9134   2EA3 00                  NOP
9135   2EA4 00                  NOP
9136   2EA5 00                  NOP
9137   2EA6 00                  NOP
9138   2EA7 00                  NOP
9139   2EA8 00                  NOP
9140   2EA9 00                  NOP
9141   2EAA 00                  NOP
9142   2EAB 00                  NOP
9143   2EAC 00                  NOP
9144   2EAD 00                  NOP
9145   2EAE 00                  NOP
9146   2EAF 00                  NOP
9147   2EB0 00                  NOP
9148   2EB1 00                  NOP
9149   2EB2 00                  NOP
9150   2EB3 00                  NOP
9151   2EB4 00                  NOP
9152   2EB5 00                  NOP
9153   2EB6 00                  NOP
9154   2EB7 00                  NOP
9155   2EB8 00                  NOP
9156   2EB9 00                  NOP
9157   2EBA 00                  NOP
9158   2EBB 00                  NOP
9159   2EBC 00                  NOP
9160   2EBD 00                  NOP
9161   2EBE 00                  NOP
9162   2EBF 00                  NOP
9163   2EC0 00                  NOP
9164   2EC1 00                  NOP
9165   2EC2 00                  NOP
9166   2EC3 00                  NOP
9167   2EC4 00                  NOP
9168   2EC5 00                  NOP
9169   2EC6 00                  NOP
9170   2EC7 00                  NOP
9171   2EC8 00                  NOP
9172   2EC9 00                  NOP
9173   2ECA 00                  NOP
9174   2ECB 00                  NOP
9175   2ECC 00                  NOP
9176   2ECD 00                  NOP
9177   2ECE 00                  NOP
9178   2ECF 00                  NOP
9179   2ED0 00                  NOP
9180   2ED1 00                  NOP
9181   2ED2 00                  NOP
9182   2ED3 00                  NOP
9183   2ED4 00                  NOP
9184   2ED5 00                  NOP
9185   2ED6 00                  NOP
9186   2ED7 00                  NOP
9187   2ED8 00                  NOP
9188   2ED9 00                  NOP
9189   2EDA 00                  NOP
9190   2EDB 00                  NOP
9191   2EDC 00                  NOP
9192   2EDD 00                  NOP
9193   2EDE 00                  NOP
9194   2EDF 00                  NOP
9195   2EE0 00                  NOP
9196   2EE1 00                  NOP
9197   2EE2 00                  NOP
9198   2EE3 00                  NOP
9199   2EE4 00                  NOP
9200   2EE5 00                  NOP
9201   2EE6 00                  NOP
9202   2EE7 00                  NOP
9203   2EE8 00                  NOP
9204   2EE9 00                  NOP
9205   2EEA 00                  NOP
9206   2EEB 00                  NOP
9207   2EEC 00                  NOP
9208   2EED 00                  NOP
9209   2EEE 00                  NOP
9210   2EEF 00                  NOP
9211   2EF0 00                  NOP
9212   2EF1 00                  NOP
9213   2EF2 00                  NOP
9214   2EF3 00                  NOP
9215   2EF4 00                  NOP
9216   2EF5 00                  NOP
9217   2EF6 00                  NOP
9218   2EF7 00                  NOP
9219   2EF8 00                  NOP
9220   2EF9 00                  NOP
9221   2EFA 00                  NOP
9222   2EFB 00                  NOP
9223   2EFC 00                  NOP
9224   2EFD 00                  NOP
9225   2EFE 00                  NOP
9226   2EFF 00                  NOP
9227   2F00 00                  NOP
9228   2F01 00                  NOP
9229   2F02 00                  NOP
9230   2F03 00                  NOP
9231   2F04 00                  NOP
9232   2F05 00                  NOP
9233   2F06 00                  NOP
9234   2F07 00                  NOP
9235   2F08 00                  NOP
9236   2F09 00                  NOP
9237   2F0A 00                  NOP
9238   2F0B 00                  NOP
9239   2F0C 00                  NOP
9240   2F0D 00                  NOP
9241   2F0E 00                  NOP
9242   2F0F 00                  NOP
9243   2F10 00                  NOP
9244   2F11 00                  NOP
9245   2F12 00                  NOP
9246   2F13 00                  NOP
9247   2F14 00                  NOP
9248   2F15 00                  NOP
9249   2F16 00                  NOP
9250   2F17 00                  NOP
9251   2F18 00                  NOP
9252   2F19 00                  NOP
9253   2F1A 00                  NOP
9254   2F1B 00                  NOP
9255   2F1C 00                  NOP
9256   2F1D 00                  NOP
9257   2F1E 00                  NOP
9258   2F1F 00                  NOP
9259   2F20 00                  NOP
9260   2F21 00                  NOP
9261   2F22 00                  NOP
9262   2F23 00                  NOP
9263   2F24 00                  NOP
9264   2F25 00                  NOP
9265   2F26 00                  NOP
9266   2F27 00                  NOP
9267   2F28 00                  NOP
9268   2F29 00                  NOP
9269   2F2A 00                  NOP
9270   2F2B 00                  NOP
9271   2F2C 00                  NOP
9272   2F2D 00                  NOP
9273   2F2E 00                  NOP
9274   2F2F 00                  NOP
9275   2F30 00                  NOP
9276   2F31 00                  NOP
9277   2F32 00                  NOP
9278   2F33 00                  NOP
9279   2F34 00                  NOP
9280   2F35 00                  NOP
9281   2F36 00                  NOP
9282   2F37 00                  NOP
9283   2F38 00                  NOP
9284   2F39 00                  NOP
9285   2F3A 00                  NOP
9286   2F3B 00                  NOP
9287   2F3C 00                  NOP
9288   2F3D 00                  NOP
9289   2F3E 00                  NOP
9290   2F3F 00                  NOP
9291   2F40 00                  NOP
9292   2F41 00                  NOP
9293   2F42 00                  NOP
9294   2F43 00                  NOP
9295   2F44 00                  NOP
9296   2F45 00                  NOP
9297   2F46 00                  NOP
9298   2F47 00                  NOP
9299   2F48 00                  NOP
9300   2F49 00                  NOP
9301   2F4A 00                  NOP
9302   2F4B 00                  NOP
9303   2F4C 00                  NOP
9304   2F4D 00                  NOP
9305   2F4E 00                  NOP
9306   2F4F 00                  NOP
9307   2F50 00                  NOP
9308   2F51 00                  NOP
9309   2F52 00                  NOP
9310   2F53 00                  NOP
9311   2F54 00                  NOP
9312   2F55 00                  NOP
9313   2F56 00                  NOP
9314   2F57 00                  NOP
9315   2F58 00                  NOP
9316   2F59 00                  NOP
9317   2F5A 00                  NOP
9318   2F5B 00                  NOP
9319   2F5C 00                  NOP
9320   2F5D 00                  NOP
9321   2F5E 00                  NOP
9322   2F5F 00                  NOP
9323   2F60 00                  NOP
9324   2F61 00                  NOP
9325   2F62 00                  NOP
9326   2F63 00                  NOP
9327   2F64 00                  NOP
9328   2F65 00                  NOP
9329   2F66 00                  NOP
9330   2F67 00                  NOP
9331   2F68 00                  NOP
9332   2F69 00                  NOP
9333   2F6A 00                  NOP
9334   2F6B 00                  NOP
9335   2F6C 00                  NOP
9336   2F6D 00                  NOP
9337   2F6E 00                  NOP
9338   2F6F 00                  NOP
9339   2F70 00                  NOP
9340   2F71 00                  NOP
9341   2F72 00                  NOP
9342   2F73 00                  NOP
9343   2F74 00                  NOP
9344   2F75 00                  NOP
9345   2F76 00                  NOP
9346   2F77 00                  NOP
9347   2F78 00                  NOP
9348   2F79 00                  NOP
9349   2F7A 00                  NOP
9350   2F7B 00                  NOP
9351   2F7C 00                  NOP
9352   2F7D 00                  NOP
9353   2F7E 00                  NOP
9354   2F7F 00                  NOP
9355   2F80 00                  NOP
9356   2F81 00                  NOP
9357   2F82 00                  NOP
9358   2F83 00                  NOP
9359   2F84 00                  NOP
9360   2F85 00                  NOP
9361   2F86 00                  NOP
9362   2F87 00                  NOP
9363   2F88 00                  NOP
9364   2F89 00                  NOP
9365   2F8A 00                  NOP
9366   2F8B 00                  NOP
9367   2F8C 00                  NOP
9368   2F8D 00                  NOP
9369   2F8E 00                  NOP
9370   2F8F 00                  NOP
9371   2F90 00                  NOP
9372   2F91 00                  NOP
9373   2F92 00                  NOP
9374   2F93 00                  NOP
9375   2F94 00                  NOP
9376   2F95 00                  NOP
9377   2F96 00                  NOP
9378   2F97 00                  NOP
9379   2F98 00                  NOP
9380   2F99 00                  NOP
9381   2F9A 00                  NOP
9382   2F9B 00                  NOP
9383   2F9C 00                  NOP
9384   2F9D 00                  NOP
9385   2F9E 00                  NOP
9386   2F9F 00                  NOP
9387   2FA0 00                  NOP
9388   2FA1 00                  NOP
9389   2FA2 00                  NOP
9390   2FA3 00                  NOP
9391   2FA4 00                  NOP
9392   2FA5 00                  NOP
9393   2FA6 00                  NOP
9394   2FA7 00                  NOP
9395   2FA8 00                  NOP
9396   2FA9 00                  NOP
9397   2FAA 00                  NOP
9398   2FAB 00                  NOP
9399   2FAC 00                  NOP
9400   2FAD 00                  NOP
9401   2FAE 00                  NOP
9402   2FAF 00                  NOP
9403   2FB0 00                  NOP
9404   2FB1 00                  NOP
9405   2FB2 00                  NOP
9406   2FB3 00                  NOP
9407   2FB4 00                  NOP
9408   2FB5 00                  NOP
9409   2FB6 00                  NOP
9410   2FB7 00                  NOP
9411   2FB8 00                  NOP
9412   2FB9 00                  NOP
9413   2FBA 00                  NOP
9414   2FBB 00                  NOP
9415   2FBC 00                  NOP
9416   2FBD 00                  NOP
9417   2FBE 00                  NOP
9418   2FBF 00                  NOP
9419   2FC0 00                  NOP
9420   2FC1 00                  NOP
9421   2FC2 00                  NOP
9422   2FC3 00                  NOP
9423   2FC4 00                  NOP
9424   2FC5 00                  NOP
9425   2FC6 00                  NOP
9426   2FC7 00                  NOP
9427   2FC8 00                  NOP
9428   2FC9 00                  NOP
9429   2FCA 00                  NOP
9430   2FCB 00                  NOP
9431   2FCC 00                  NOP
9432   2FCD 00                  NOP
9433   2FCE 00                  NOP
9434   2FCF 00                  NOP
9435   2FD0 00                  NOP
9436   2FD1 00                  NOP
9437   2FD2 00                  NOP
9438   2FD3 00                  NOP
9439   2FD4 00                  NOP
9440   2FD5 00                  NOP
9441   2FD6 00                  NOP
9442   2FD7 00                  NOP
9443   2FD8 00                  NOP
9444   2FD9 00                  NOP
9445   2FDA 00                  NOP
9446   2FDB 00                  NOP
9447   2FDC 00                  NOP
9448   2FDD 00                  NOP
9449   2FDE 00                  NOP
9450   2FDF 00                  NOP
9451   2FE0 00                  NOP
9452   2FE1 00                  NOP
9453   2FE2 00                  NOP
9454   2FE3 00                  NOP
9455   2FE4 00                  NOP
9456   2FE5 00                  NOP
9457   2FE6 00                  NOP
9458   2FE7 00                  NOP
9459   2FE8 00                  NOP
9460   2FE9 00                  NOP
9461   2FEA 00                  NOP
9462   2FEB 00                  NOP
9463   2FEC 00                  NOP
9464   2FED 00                  NOP
9465   2FEE 00                  NOP
9466   2FEF 00                  NOP
9467   2FF0 00                  NOP
9468   2FF1 00                  NOP
9469   2FF2 00                  NOP
9470   2FF3 00                  NOP
9471   2FF4 00                  NOP
9472   2FF5 00                  NOP
9473   2FF6 00                  NOP
9474   2FF7 00                  NOP
9475   2FF8 00                  NOP
9476   2FF9 00                  NOP
9477   2FFA 00                  NOP
9478   2FFB 00                  NOP
9479   2FFC 00                  NOP
9480   2FFD 00                  NOP
9481   2FFE 00                  NOP
9482   2FFF 00                  NOP
9483   3000 00                  NOP
9484   3001 00                  NOP
9485   3002 00                  NOP
9486   3003 00                  NOP
9487   3004 00                  NOP
9488   3005 00                  NOP
9489   3006 00                  NOP
9490   3007 00                  NOP
9491   3008 00                  NOP
9492   3009 00                  NOP
9493   300A 00                  NOP
9494   300B 00                  NOP
9495   300C 00                  NOP
9496   300D 00                  NOP
9497   300E 00                  NOP
9498   300F 00                  NOP
9499   3010 00                  NOP
9500   3011 00                  NOP
9501   3012 00                  NOP
9502   3013 00                  NOP
9503   3014 00                  NOP
9504   3015 00                  NOP
9505   3016 00                  NOP
9506   3017 00                  NOP
9507   3018 00                  NOP
9508   3019 00                  NOP
9509   301A 00                  NOP
9510   301B 00                  NOP
9511   301C 00                  NOP
9512   301D 00                  NOP
9513   301E 00                  NOP
9514   301F 00                  NOP
9515   3020 00                  NOP
9516   3021 00                  NOP
9517   3022 00                  NOP
9518   3023 00                  NOP
9519   3024 00                  NOP
9520   3025 00                  NOP
9521   3026 00                  NOP
9522   3027 00                  NOP
9523   3028 00                  NOP
9524   3029 00                  NOP
9525   302A 00                  NOP
9526   302B 00                  NOP
9527   302C 00                  NOP
9528   302D 00                  NOP
9529   302E 00                  NOP
9530   302F 00                  NOP
9531   3030 00                  NOP
9532   3031 00                  NOP
9533   3032 00                  NOP
9534   3033 00                  NOP
9535   3034 00                  NOP
9536   3035 00                  NOP
9537   3036 00                  NOP
9538   3037 00                  NOP
9539   3038 00                  NOP
9540   3039 00                  NOP
9541   303A 00                  NOP
9542   303B 00                  NOP
9543   303C 00                  NOP
9544   303D 00                  NOP
9545   303E 00                  NOP
9546   303F 00                  NOP
9547   3040 00                  NOP
9548   3041 00                  NOP
9549   3042 00                  NOP
9550   3043 00                  NOP
9551   3044 00                  NOP
9552   3045 00                  NOP
9553   3046 00                  NOP
9554   3047 00                  NOP
9555   3048 00                  NOP
9556   3049 00                  NOP
9557   304A 00                  NOP
9558   304B 00                  NOP
9559   304C 00                  NOP
9560   304D 00                  NOP
9561   304E 00                  NOP
9562   304F 00                  NOP
9563   3050 00                  NOP
9564   3051 00                  NOP
9565   3052 00                  NOP
9566   3053 00                  NOP
9567   3054 00                  NOP
9568   3055 00                  NOP
9569   3056 00                  NOP
9570   3057 00                  NOP
9571   3058 00                  NOP
9572   3059 00                  NOP
9573   305A 00                  NOP
9574   305B 00                  NOP
9575   305C 00                  NOP
9576   305D 00                  NOP
9577   305E 00                  NOP
9578   305F 00                  NOP
9579   3060 00                  NOP
9580   3061 00                  NOP
9581   3062 00                  NOP
9582   3063 00                  NOP
9583   3064 00                  NOP
9584   3065 00                  NOP
9585   3066 00                  NOP
9586   3067 00                  NOP
9587   3068 00                  NOP
9588   3069 00                  NOP
9589   306A 00                  NOP
9590   306B 00                  NOP
9591   306C 00                  NOP
9592   306D 00                  NOP
9593   306E 00                  NOP
9594   306F 00                  NOP
9595   3070 00                  NOP
9596   3071 00                  NOP
9597   3072 00                  NOP
9598   3073 00                  NOP
9599   3074 00                  NOP
9600   3075 00                  NOP
9601   3076 00                  NOP
9602   3077 00                  NOP
9603   3078 00                  NOP
9604   3079 00                  NOP
9605   307A 00                  NOP
9606   307B 00                  NOP
9607   307C 00                  NOP
9608   307D 00                  NOP
9609   307E 00                  NOP
9610   307F 00                  NOP
9611   3080 00                  NOP
9612   3081 00                  NOP
9613   3082 00                  NOP
9614   3083 00                  NOP
9615   3084 00                  NOP
9616   3085 00                  NOP
9617   3086 00                  NOP
9618   3087 00                  NOP
9619   3088 00                  NOP
9620   3089 00                  NOP
9621   308A 00                  NOP
9622   308B 00                  NOP
9623   308C 00                  NOP
9624   308D 00                  NOP
9625   308E 00                  NOP
9626   308F 00                  NOP
9627   3090 00                  NOP
9628   3091 00                  NOP
9629   3092 00                  NOP
9630   3093 00                  NOP
9631   3094 00                  NOP
9632   3095 00                  NOP
9633   3096 00                  NOP
9634   3097 00                  NOP
9635   3098 00                  NOP
9636   3099 00                  NOP
9637   309A 00                  NOP
9638   309B 00                  NOP
9639   309C 00                  NOP
9640   309D 00                  NOP
9641   309E 00                  NOP
9642   309F 00                  NOP
9643   30A0 00                  NOP
9644   30A1 00                  NOP
9645   30A2 00                  NOP
9646   30A3 00                  NOP
9647   30A4 00                  NOP
9648   30A5 00                  NOP
9649   30A6 00                  NOP
9650   30A7 00                  NOP
9651   30A8 00                  NOP
9652   30A9 00                  NOP
9653   30AA 00                  NOP
9654   30AB 00                  NOP
9655   30AC 00                  NOP
9656   30AD 00                  NOP
9657   30AE 00                  NOP
9658   30AF 00                  NOP
9659   30B0 00                  NOP
9660   30B1 00                  NOP
9661   30B2 00                  NOP
9662   30B3 00                  NOP
9663   30B4 00                  NOP
9664   30B5 00                  NOP
9665   30B6 00                  NOP
9666   30B7 00                  NOP
9667   30B8 00                  NOP
9668   30B9 00                  NOP
9669   30BA 00                  NOP
9670   30BB 00                  NOP
9671   30BC 00                  NOP
9672   30BD 00                  NOP
9673   30BE 00                  NOP
9674   30BF 00                  NOP
9675   30C0 00                  NOP
9676   30C1 00                  NOP
9677   30C2 00                  NOP
9678   30C3 00                  NOP
9679   30C4 00                  NOP
9680   30C5 00                  NOP
9681   30C6 00                  NOP
9682   30C7 00                  NOP
9683   30C8 00                  NOP
9684   30C9 00                  NOP
9685   30CA 00                  NOP
9686   30CB 00                  NOP
9687   30CC 00                  NOP
9688   30CD 00                  NOP
9689   30CE 00                  NOP
9690   30CF 00                  NOP
9691   30D0 00                  NOP
9692   30D1 00                  NOP
9693   30D2 00                  NOP
9694   30D3 00                  NOP
9695   30D4 00                  NOP
9696   30D5 00                  NOP
9697   30D6 00                  NOP
9698   30D7 00                  NOP
9699   30D8 00                  NOP
9700   30D9 00                  NOP
9701   30DA 00                  NOP
9702   30DB 00                  NOP
9703   30DC 00                  NOP
9704   30DD 00                  NOP
9705   30DE 00                  NOP
9706   30DF 00                  NOP
9707   30E0 00                  NOP
9708   30E1 00                  NOP
9709   30E2 00                  NOP
9710   30E3 00                  NOP
9711   30E4 00                  NOP
9712   30E5 00                  NOP
9713   30E6 00                  NOP
9714   30E7 00                  NOP
9715   30E8 00                  NOP
9716   30E9 00                  NOP
9717   30EA 00                  NOP
9718   30EB 00                  NOP
9719   30EC 00                  NOP
9720   30ED 00                  NOP
9721   30EE 00                  NOP
9722   30EF 00                  NOP
9723   30F0 00                  NOP
9724   30F1 00                  NOP
9725   30F2 00                  NOP
9726   30F3 00                  NOP
9727   30F4 00                  NOP
9728   30F5 00                  NOP
9729   30F6 00                  NOP
9730   30F7 00                  NOP
9731   30F8 00                  NOP
9732   30F9 00                  NOP
9733   30FA 00                  NOP
9734   30FB 00                  NOP
9735   30FC 00                  NOP
9736   30FD 00                  NOP
9737   30FE 00                  NOP
9738   30FF 00                  NOP
9739   3100 00                  NOP
9740   3101 00                  NOP
9741   3102 00                  NOP
9742   3103 00                  NOP
9743   3104 00                  NOP
9744   3105 00                  NOP
9745   3106 00                  NOP
9746   3107 00                  NOP
9747   3108 00                  NOP
9748   3109 00                  NOP
9749   310A 00                  NOP
9750   310B 00                  NOP
9751   310C 00                  NOP
9752   310D 00                  NOP
9753   310E 00                  NOP
9754   310F 00                  NOP
9755   3110 00                  NOP
9756   3111 00                  NOP
9757   3112 00                  NOP
9758   3113 00                  NOP
9759   3114 00                  NOP
9760   3115 00                  NOP
9761   3116 00                  NOP
9762   3117 00                  NOP
9763   3118 00                  NOP
9764   3119 00                  NOP
9765   311A 00                  NOP
9766   311B 00                  NOP
9767   311C 00                  NOP
9768   311D 00                  NOP
9769   311E 00                  NOP
9770   311F 00                  NOP
9771   3120 00                  NOP
9772   3121 00                  NOP
9773   3122 00                  NOP
9774   3123 00                  NOP
9775   3124 00                  NOP
9776   3125 00                  NOP
9777   3126 00                  NOP
9778   3127 00                  NOP
9779   3128 00                  NOP
9780   3129 00                  NOP
9781   312A 00                  NOP
9782   312B 00                  NOP
9783   312C 00                  NOP
9784   312D 00                  NOP
9785   312E 00                  NOP
9786   312F 00                  NOP
9787   3130 00                  NOP
9788   3131 00                  NOP
9789   3132 00                  NOP
9790   3133 00                  NOP
9791   3134 00                  NOP
9792   3135 00                  NOP
9793   3136 00                  NOP
9794   3137 00                  NOP
9795   3138 00                  NOP
9796   3139 00                  NOP
9797   313A 00                  NOP
9798   313B 00                  NOP
9799   313C 00                  NOP
9800   313D 00                  NOP
9801   313E 00                  NOP
9802   313F 00                  NOP
9803   3140 00                  NOP
9804   3141 00                  NOP
9805   3142 00                  NOP
9806   3143 00                  NOP
9807   3144 00                  NOP
9808   3145 00                  NOP
9809   3146 00                  NOP
9810   3147 00                  NOP
9811   3148 00                  NOP
9812   3149 00                  NOP
9813   314A 00                  NOP
9814   314B 00                  NOP
9815   314C 00                  NOP
9816   314D 00                  NOP
9817   314E 00                  NOP
9818   314F 00                  NOP
9819   3150 00                  NOP
9820   3151 00                  NOP
9821   3152 00                  NOP
9822   3153 00                  NOP
9823   3154 00                  NOP
9824   3155 00                  NOP
9825   3156 00                  NOP
9826   3157 00                  NOP
9827   3158 00                  NOP
9828   3159 00                  NOP
9829   315A 00                  NOP
9830   315B 00                  NOP
9831   315C 00                  NOP
9832   315D 00                  NOP
9833   315E 00                  NOP
9834   315F 00                  NOP
9835   3160 00                  NOP
9836   3161 00                  NOP
9837   3162 00                  NOP
9838   3163 00                  NOP
9839   3164 00                  NOP
9840   3165 00                  NOP
9841   3166 00                  NOP
9842   3167 00                  NOP
9843   3168 00                  NOP
9844   3169 00                  NOP
9845   316A 00                  NOP
9846   316B 00                  NOP
9847   316C 00                  NOP
9848   316D 00                  NOP
9849   316E 00                  NOP
9850   316F 00                  NOP
9851   3170 00                  NOP
9852   3171 00                  NOP
9853   3172 00                  NOP
9854   3173 00                  NOP
9855   3174 00                  NOP
9856   3175 00                  NOP
9857   3176 00                  NOP
9858   3177 00                  NOP
9859   3178 00                  NOP
9860   3179 00                  NOP
9861   317A 00                  NOP
9862   317B 00                  NOP
9863   317C 00                  NOP
9864   317D 00                  NOP
9865   317E 00                  NOP
9866   317F 00                  NOP
9867   3180 00                  NOP
9868   3181 00                  NOP
9869   3182 00                  NOP
9870   3183 00                  NOP
9871   3184 00                  NOP
9872   3185 00                  NOP
9873   3186 00                  NOP
9874   3187 00                  NOP
9875   3188 00                  NOP
9876   3189 00                  NOP
9877   318A 00                  NOP
9878   318B 00                  NOP
9879   318C 00                  NOP
9880   318D 00                  NOP
9881   318E 00                  NOP
9882   318F 00                  NOP
9883   3190 00                  NOP
9884   3191 00                  NOP
9885   3192 00                  NOP
9886   3193 00                  NOP
9887   3194 00                  NOP
9888   3195 00                  NOP
9889   3196 00                  NOP
9890   3197 00                  NOP
9891   3198 00                  NOP
9892   3199 00                  NOP
9893   319A 00                  NOP
9894   319B 00                  NOP
9895   319C 00                  NOP
9896   319D 00                  NOP
9897   319E 00                  NOP
9898   319F 00                  NOP
9899   31A0 00                  NOP
9900   31A1 00                  NOP
9901   31A2 00                  NOP
9902   31A3 00                  NOP
9903   31A4 00                  NOP
9904   31A5 00                  NOP
9905   31A6 00                  NOP
9906   31A7 00                  NOP
9907   31A8 00                  NOP
9908   31A9 00                  NOP
9909   31AA 00                  NOP
9910   31AB 00                  NOP
9911   31AC 00                  NOP
9912   31AD 00                  NOP
9913   31AE 00                  NOP
9914   31AF 00                  NOP
9915   31B0 00                  NOP
9916   31B1 00                  NOP
9917   31B2 00                  NOP
9918   31B3 00                  NOP
9919   31B4 00                  NOP
9920   31B5 00                  NOP
9921   31B6 00                  NOP
9922   31B7 00                  NOP
9923   31B8 00                  NOP
9924   31B9 00                  NOP
9925   31BA 00                  NOP
9926   31BB 00                  NOP
9927   31BC 00                  NOP
9928   31BD 00                  NOP
9929   31BE 00                  NOP
9930   31BF 00                  NOP
9931   31C0 00                  NOP
9932   31C1 00                  NOP
9933   31C2 00                  NOP
9934   31C3 00                  NOP
9935   31C4 00                  NOP
9936   31C5 00                  NOP
9937   31C6 00                  NOP
9938   31C7 00                  NOP
9939   31C8 00                  NOP
9940   31C9 00                  NOP
9941   31CA 00                  NOP
9942   31CB 00                  NOP
9943   31CC 00                  NOP
9944   31CD 00                  NOP
9945   31CE 00                  NOP
9946   31CF 00                  NOP
9947   31D0 00                  NOP
9948   31D1 00                  NOP
9949   31D2 00                  NOP
9950   31D3 00                  NOP
9951   31D4 00                  NOP
9952   31D5 00                  NOP
9953   31D6 00                  NOP
9954   31D7 00                  NOP
9955   31D8 00                  NOP
9956   31D9 00                  NOP
9957   31DA 00                  NOP
9958   31DB 00                  NOP
9959   31DC 00                  NOP
9960   31DD 00                  NOP
9961   31DE 00                  NOP
9962   31DF 00                  NOP
9963   31E0 00                  NOP
9964   31E1 00                  NOP
9965   31E2 00                  NOP
9966   31E3 00                  NOP
9967   31E4 00                  NOP
9968   31E5 00                  NOP
9969   31E6 00                  NOP
9970   31E7 00                  NOP
9971   31E8 00                  NOP
9972   31E9 00                  NOP
9973   31EA 00                  NOP
9974   31EB 00                  NOP
9975   31EC 00                  NOP
9976   31ED 00                  NOP
9977   31EE 00                  NOP
9978   31EF 00                  NOP
9979   31F0 00                  NOP
9980   31F1 00                  NOP
9981   31F2 00                  NOP
9982   31F3 00                  NOP
9983   31F4 00                  NOP
9984   31F5 00                  NOP
9985   31F6 00                  NOP
9986   31F7 00                  NOP
9987   31F8 00                  NOP
9988   31F9 00                  NOP
9989   31FA 00                  NOP
9990   31FB 00                  NOP
9991   31FC 00                  NOP
9992   31FD 00                  NOP
9993   31FE 00                  NOP
9994   31FF 00                  NOP
9995   3200 00                  NOP
9996   3201 00                  NOP
9997   3202 00                  NOP
9998   3203 00                  NOP
9999   3204 00                  NOP
0000   3205 00                  NOP
0001   3206 00                  NOP
0002   3207 00                  NOP
0003   3208 00                  NOP
0004   3209 00                  NOP
0005   320A 00                  NOP
0006   320B 00                  NOP
0007   320C 00                  NOP
0008   320D 00                  NOP
0009   320E 00                  NOP
0010   320F 00                  NOP
0011   3210 00                  NOP
0012   3211 00                  NOP
0013   3212 00                  NOP
0014   3213 00                  NOP
0015   3214 00                  NOP
0016   3215 00                  NOP
0017   3216 00                  NOP
0018   3217 00                  NOP
0019   3218 00                  NOP
0020   3219 00                  NOP
0021   321A 00                  NOP
0022   321B 00                  NOP
0023   321C 00                  NOP
0024   321D 00                  NOP
0025   321E 00                  NOP
0026   321F 00                  NOP
0027   3220 00                  NOP
0028   3221 00                  NOP
0029   3222 00                  NOP
0030   3223 00                  NOP
0031   3224 00                  NOP
0032   3225 00                  NOP
0033   3226 00                  NOP
0034   3227 00                  NOP
0035   3228 00                  NOP
0036   3229 00                  NOP
0037   322A 00                  NOP
0038   322B 00                  NOP
0039   322C 00                  NOP
0040   322D 00                  NOP
0041   322E 00                  NOP
0042   322F 00                  NOP
0043   3230 00                  NOP
0044   3231 00                  NOP
0045   3232 00                  NOP
0046   3233 00                  NOP
0047   3234 00                  NOP
0048   3235 00                  NOP
0049   3236 00                  NOP
0050   3237 00                  NOP
0051   3238 00                  NOP
0052   3239 00                  NOP
0053   323A 00                  NOP
0054   323B 00                  NOP
0055   323C 00                  NOP
0056   323D 00                  NOP
0057   323E 00                  NOP
0058   323F 00                  NOP
0059   3240 00                  NOP
0060   3241 00                  NOP
0061   3242 00                  NOP
0062   3243 00                  NOP
0063   3244 00                  NOP
0064   3245 00                  NOP
0065   3246 00                  NOP
0066   3247 00                  NOP
0067   3248 00                  NOP
0068   3249 00                  NOP
0069   324A 00                  NOP
0070   324B 00                  NOP
0071   324C 00                  NOP
0072   324D 00                  NOP
0073   324E 00                  NOP
0074   324F 00                  NOP
0075   3250 00                  NOP
0076   3251 00                  NOP
0077   3252 00                  NOP
0078   3253 00                  NOP
0079   3254 00                  NOP
0080   3255 00                  NOP
0081   3256 00                  NOP
0082   3257 00                  NOP
0083   3258 00                  NOP
0084   3259 00                  NOP
0085   325A 00                  NOP
0086   325B 00                  NOP
0087   325C 00                  NOP
0088   325D 00                  NOP
0089   325E 00                  NOP
0090   325F 00                  NOP
0091   3260 00                  NOP
0092   3261 00                  NOP
0093   3262 00                  NOP
0094   3263 00                  NOP
0095   3264 00                  NOP
0096   3265 00                  NOP
0097   3266 00                  NOP
0098   3267 00                  NOP
0099   3268 00                  NOP
0100   3269 00                  NOP
0101   326A 00                  NOP
0102   326B 00                  NOP
0103   326C 00                  NOP
0104   326D 00                  NOP
0105   326E 00                  NOP
0106   326F 00                  NOP
0107   3270 00                  NOP
0108   3271 00                  NOP
0109   3272 00                  NOP
0110   3273 00                  NOP
0111   3274 00                  NOP
0112   3275 00                  NOP
0113   3276 00                  NOP
0114   3277 00                  NOP
0115   3278 00                  NOP
0116   3279 00                  NOP
0117   327A 00                  NOP
0118   327B 00                  NOP
0119   327C 00                  NOP
0120   327D 00                  NOP
0121   327E 00                  NOP
0122   327F 00                  NOP
0123   3280 00                  NOP
0124   3281 00                  NOP
0125   3282 00                  NOP
0126   3283 00                  NOP
0127   3284 00                  NOP
0128   3285 00                  NOP
0129   3286 00                  NOP
0130   3287 00                  NOP
0131   3288 00                  NOP
0132   3289 00                  NOP
0133   328A 00                  NOP
0134   328B 00                  NOP
0135   328C 00                  NOP
0136   328D 00                  NOP
0137   328E 00                  NOP
0138   328F 00                  NOP
0139   3290 00                  NOP
0140   3291 00                  NOP
0141   3292 00                  NOP
0142   3293 00                  NOP
0143   3294 00                  NOP
0144   3295 00                  NOP
0145   3296 00                  NOP
0146   3297 00                  NOP
0147   3298 00                  NOP
0148   3299 00                  NOP
0149   329A 00                  NOP
0150   329B 00                  NOP
0151   329C 00                  NOP
0152   329D 00                  NOP
0153   329E 00                  NOP
0154   329F 00                  NOP
0155   32A0 00                  NOP
0156   32A1 00                  NOP
0157   32A2 00                  NOP
0158   32A3 00                  NOP
0159   32A4 00                  NOP
0160   32A5 00                  NOP
0161   32A6 00                  NOP
0162   32A7 00                  NOP
0163   32A8 00                  NOP
0164   32A9 00                  NOP
0165   32AA 00                  NOP
0166   32AB 00                  NOP
0167   32AC 00                  NOP
0168   32AD 00                  NOP
0169   32AE 00                  NOP
0170   32AF 00                  NOP
0171   32B0 00                  NOP
0172   32B1 00                  NOP
0173   32B2 00                  NOP
0174   32B3 00                  NOP
0175   32B4 00                  NOP
0176   32B5 00                  NOP
0177   32B6 00                  NOP
0178   32B7 00                  NOP
0179   32B8 00                  NOP
0180   32B9 00                  NOP
0181   32BA 00                  NOP
0182   32BB 00                  NOP
0183   32BC 00                  NOP
0184   32BD 00                  NOP
0185   32BE 00                  NOP
0186   32BF 00                  NOP
0187   32C0 00                  NOP
0188   32C1 00                  NOP
0189   32C2 00                  NOP
0190   32C3 00                  NOP
0191   32C4 00                  NOP
0192   32C5 00                  NOP
0193   32C6 00                  NOP
0194   32C7 00                  NOP
0195   32C8 00                  NOP
0196   32C9 00                  NOP
0197   32CA 00                  NOP
0198   32CB 00                  NOP
0199   32CC 00                  NOP
0200   32CD 00                  NOP
0201   32CE 00                  NOP
0202   32CF 00                  NOP
0203   32D0 00                  NOP
0204   32D1 00                  NOP
0205   32D2 00                  NOP
0206   32D3 00                  NOP
0207   32D4 00                  NOP
0208   32D5 00                  NOP
0209   32D6 00                  NOP
0210   32D7 00                  NOP
0211   32D8 00                  NOP
0212   32D9 00                  NOP
0213   32DA 00                  NOP
0214   32DB 00                  NOP
0215   32DC 00                  NOP
0216   32DD 00                  NOP
0217   32DE 00                  NOP
0218   32DF 00                  NOP
0219   32E0 00                  NOP
0220   32E1 00                  NOP
0221   32E2 00                  NOP
0222   32E3 00                  NOP
0223   32E4 00                  NOP
0224   32E5 00                  NOP
0225   32E6 00                  NOP
0226   32E7 00                  NOP
0227   32E8 00                  NOP
0228   32E9 00                  NOP
0229   32EA 00                  NOP
0230   32EB 00                  NOP
0231   32EC 00                  NOP
0232   32ED 00                  NOP
0233   32EE 00                  NOP
0234   32EF 00                  NOP
0235   32F0 00                  NOP
0236   32F1 00                  NOP
0237   32F2 00                  NOP
0238   32F3 00                  NOP
0239   32F4 00                  NOP
0240   32F5 00                  NOP
0241   32F6 00                  NOP
0242   32F7 00                  NOP
0243   32F8 00                  NOP
0244   32F9 00                  NOP
0245   32FA 00                  NOP
0246   32FB 00                  NOP
0247   32FC 00                  NOP
0248   32FD 00                  NOP
0249   32FE 00                  NOP
0250   32FF 00                  NOP
0251   3300 00                  NOP
0252   3301 00                  NOP
0253   3302 00                  NOP
0254   3303 00                  NOP
0255   3304 00                  NOP
0256   3305 00                  NOP
0257   3306 00                  NOP
0258   3307 00                  NOP
0259   3308 00                  NOP
0260   3309 00                  NOP
0261   330A 00                  NOP
0262   330B 00                  NOP
0263   330C 00                  NOP
0264   330D 00                  NOP
0265   330E 00                  NOP
0266   330F 00                  NOP
0267   3310 00                  NOP
0268   3311 00                  NOP
0269   3312 00                  NOP
0270   3313 00                  NOP
0271   3314 00                  NOP
0272   3315 00                  NOP
0273   3316 00                  NOP
0274   3317 00                  NOP
0275   3318 00                  NOP
0276   3319 00                  NOP
0277   331A 00                  NOP
0278   331B 00                  NOP
0279   331C 00                  NOP
0280   331D 00                  NOP
0281   331E 00                  NOP
0282   331F 00                  NOP
0283   3320 00                  NOP
0284   3321 00                  NOP
0285   3322 00                  NOP
0286   3323 00                  NOP
0287   3324 00                  NOP
0288   3325 00                  NOP
0289   3326 00                  NOP
0290   3327 00                  NOP
0291   3328 00                  NOP
0292   3329 00                  NOP
0293   332A 00                  NOP
0294   332B 00                  NOP
0295   332C 00                  NOP
0296   332D 00                  NOP
0297   332E 00                  NOP
0298   332F 00                  NOP
0299   3330 00                  NOP
0300   3331 00                  NOP
0301   3332 00                  NOP
0302   3333 00                  NOP
0303   3334 00                  NOP
0304   3335 00                  NOP
0305   3336 00                  NOP
0306   3337 00                  NOP
0307   3338 00                  NOP
0308   3339 00                  NOP
0309   333A 00                  NOP
0310   333B 00                  NOP
0311   333C 00                  NOP
0312   333D 00                  NOP
0313   333E 00                  NOP
0314   333F 00                  NOP
0315   3340 00                  NOP
0316   3341 00                  NOP
0317   3342 00                  NOP
0318   3343 00                  NOP
0319   3344 00                  NOP
0320   3345 00                  NOP
0321   3346 00                  NOP
0322   3347 00                  NOP
0323   3348 00                  NOP
0324   3349 00                  NOP
0325   334A 00                  NOP
0326   334B 00                  NOP
0327   334C 00                  NOP
0328   334D 00                  NOP
0329   334E 00                  NOP
0330   334F 00                  NOP
0331   3350 00                  NOP
0332   3351 00                  NOP
0333   3352 00                  NOP
0334   3353 00                  NOP
0335   3354 00                  NOP
0336   3355 00                  NOP
0337   3356 00                  NOP
0338   3357 00                  NOP
0339   3358 00                  NOP
0340   3359 00                  NOP
0341   335A 00                  NOP
0342   335B 00                  NOP
0343   335C 00                  NOP
0344   335D 00                  NOP
0345   335E 00                  NOP
0346   335F 00                  NOP
0347   3360 00                  NOP
0348   3361 00                  NOP
0349   3362 00                  NOP
0350   3363 00                  NOP
0351   3364 00                  NOP
0352   3365 00                  NOP
0353   3366 00                  NOP
0354   3367 00                  NOP
0355   3368 00                  NOP
0356   3369 00                  NOP
0357   336A 00                  NOP
0358   336B 00                  NOP
0359   336C 00                  NOP
0360   336D 00                  NOP
0361   336E 00                  NOP
0362   336F 00                  NOP
0363   3370 00                  NOP
0364   3371 00                  NOP
0365   3372 00                  NOP
0366   3373 00                  NOP
0367   3374 00                  NOP
0368   3375 00                  NOP
0369   3376 00                  NOP
0370   3377 00                  NOP
0371   3378 00                  NOP
0372   3379 00                  NOP
0373   337A 00                  NOP
0374   337B 00                  NOP
0375   337C 00                  NOP
0376   337D 00                  NOP
0377   337E 00                  NOP
0378   337F 00                  NOP
0379   3380 00                  NOP
0380   3381 00                  NOP
0381   3382 00                  NOP
0382   3383 00                  NOP
0383   3384 00                  NOP
0384   3385 00                  NOP
0385   3386 00                  NOP
0386   3387 00                  NOP
0387   3388 00                  NOP
0388   3389 00                  NOP
0389   338A 00                  NOP
0390   338B 00                  NOP
0391   338C 00                  NOP
0392   338D 00                  NOP
0393   338E 00                  NOP
0394   338F 00                  NOP
0395   3390 00                  NOP
0396   3391 00                  NOP
0397   3392 00                  NOP
0398   3393 00                  NOP
0399   3394 00                  NOP
0400   3395 00                  NOP
0401   3396 00                  NOP
0402   3397 00                  NOP
0403   3398 00                  NOP
0404   3399 00                  NOP
0405   339A 00                  NOP
0406   339B 00                  NOP
0407   339C 00                  NOP
0408   339D 00                  NOP
0409   339E 00                  NOP
0410   339F 00                  NOP
0411   33A0 00                  NOP
0412   33A1 00                  NOP
0413   33A2 00                  NOP
0414   33A3 00                  NOP
0415   33A4 00                  NOP
0416   33A5 00                  NOP
0417   33A6 00                  NOP
0418   33A7 00                  NOP
0419   33A8 00                  NOP
0420   33A9 00                  NOP
0421   33AA 00                  NOP
0422   33AB 00                  NOP
0423   33AC 00                  NOP
0424   33AD 00                  NOP
0425   33AE 00                  NOP
0426   33AF 00                  NOP
0427   33B0 00                  NOP
0428   33B1 00                  NOP
0429   33B2 00                  NOP
0430   33B3 00                  NOP
0431   33B4 00                  NOP
0432   33B5 00                  NOP
0433   33B6 00                  NOP
0434   33B7 00                  NOP
0435   33B8 00                  NOP
0436   33B9 00                  NOP
0437   33BA 00                  NOP
0438   33BB 00                  NOP
0439   33BC 00                  NOP
0440   33BD 00                  NOP
0441   33BE 00                  NOP
0442   33BF 00                  NOP
0443   33C0 00                  NOP
0444   33C1 00                  NOP
0445   33C2 00                  NOP
0446   33C3 00                  NOP
0447   33C4 00                  NOP
0448   33C5 00                  NOP
0449   33C6 00                  NOP
0450   33C7 00                  NOP
0451   33C8 00                  NOP
0452   33C9 00                  NOP
0453   33CA 00                  NOP
0454   33CB 00                  NOP
0455   33CC 00                  NOP
0456   33CD 00                  NOP
0457   33CE 00                  NOP
0458   33CF 00                  NOP
0459   33D0 00                  NOP
0460   33D1 00                  NOP
0461   33D2 00                  NOP
0462   33D3 00                  NOP
0463   33D4 00                  NOP
0464   33D5 00                  NOP
0465   33D6 00                  NOP
0466   33D7 00                  NOP
0467   33D8 00                  NOP
0468   33D9 00                  NOP
0469   33DA 00                  NOP
0470   33DB 00                  NOP
0471   33DC 00                  NOP
0472   33DD 00                  NOP
0473   33DE 00                  NOP
0474   33DF 00                  NOP
0475   33E0 00                  NOP
0476   33E1 00                  NOP
0477   33E2 00                  NOP
0478   33E3 00                  NOP
0479   33E4 00                  NOP
0480   33E5 00                  NOP
0481   33E6 00                  NOP
0482   33E7 00                  NOP
0483   33E8 00                  NOP
0484   33E9 00                  NOP
0485   33EA 00                  NOP
0486   33EB 00                  NOP
0487   33EC 00                  NOP
0488   33ED 00                  NOP
0489   33EE 00                  NOP
0490   33EF 00                  NOP
0491   33F0 00                  NOP
0492   33F1 00                  NOP
0493   33F2 00                  NOP
0494   33F3 00                  NOP
0495   33F4 00                  NOP
0496   33F5 00                  NOP
0497   33F6 00                  NOP
0498   33F7 00                  NOP
0499   33F8 00                  NOP
0500   33F9 00                  NOP
0501   33FA 00                  NOP
0502   33FB 00                  NOP
0503   33FC 00                  NOP
0504   33FD 00                  NOP
0505   33FE 00                  NOP
0506   33FF 00                  NOP
0507   3400 00                  NOP
0508   3401 00                  NOP
0509   3402 00                  NOP
0510   3403 00                  NOP
0511   3404 00                  NOP
0512   3405 00                  NOP
0513   3406 00                  NOP
0514   3407 00                  NOP
0515   3408 00                  NOP
0516   3409 00                  NOP
0517   340A 00                  NOP
0518   340B 00                  NOP
0519   340C 00                  NOP
0520   340D 00                  NOP
0521   340E 00                  NOP
0522   340F 00                  NOP
0523   3410 00                  NOP
0524   3411 00                  NOP
0525   3412 00                  NOP
0526   3413 00                  NOP
0527   3414 00                  NOP
0528   3415 00                  NOP
0529   3416 00                  NOP
0530   3417 00                  NOP
0531   3418 00                  NOP
0532   3419 00                  NOP
0533   341A 00                  NOP
0534   341B 00                  NOP
0535   341C 00                  NOP
0536   341D 00                  NOP
0537   341E 00                  NOP
0538   341F 00                  NOP
0539   3420 00                  NOP
0540   3421 00                  NOP
0541   3422 00                  NOP
0542   3423 00                  NOP
0543   3424 00                  NOP
0544   3425 00                  NOP
0545   3426 00                  NOP
0546   3427 00                  NOP
0547   3428 00                  NOP
0548   3429 00                  NOP
0549   342A 00                  NOP
0550   342B 00                  NOP
0551   342C 00                  NOP
0552   342D 00                  NOP
0553   342E 00                  NOP
0554   342F 00                  NOP
0555   3430 00                  NOP
0556   3431 00                  NOP
0557   3432 00                  NOP
0558   3433 00                  NOP
0559   3434 00                  NOP
0560   3435 00                  NOP
0561   3436 00                  NOP
0562   3437 00                  NOP
0563   3438 00                  NOP
0564   3439 00                  NOP
0565   343A 00                  NOP
0566   343B 00                  NOP
0567   343C 00                  NOP
0568   343D 00                  NOP
0569   343E 00                  NOP
0570   343F 00                  NOP
0571   3440 00                  NOP
0572   3441 00                  NOP
0573   3442 00                  NOP
0574   3443 00                  NOP
0575   3444 00                  NOP
0576   3445 00                  NOP
0577   3446 00                  NOP
0578   3447 00                  NOP
0579   3448 00                  NOP
0580   3449 00                  NOP
0581   344A 00                  NOP
0582   344B 00                  NOP
0583   344C 00                  NOP
0584   344D 00                  NOP
0585   344E 00                  NOP
0586   344F 00                  NOP
0587   3450 00                  NOP
0588   3451 00                  NOP
0589   3452 00                  NOP
0590   3453 00                  NOP
0591   3454 00                  NOP
0592   3455 00                  NOP
0593   3456 00                  NOP
0594   3457 00                  NOP
0595   3458 00                  NOP
0596   3459 00                  NOP
0597   345A 00                  NOP
0598   345B 00                  NOP
0599   345C 00                  NOP
0600   345D 00                  NOP
0601   345E 00                  NOP
0602   345F 00                  NOP
0603   3460 00                  NOP
0604   3461 00                  NOP
0605   3462 00                  NOP
0606   3463 00                  NOP
0607   3464 00                  NOP
0608   3465 00                  NOP
0609   3466 00                  NOP
0610   3467 00                  NOP
0611   3468 00                  NOP
0612   3469 00                  NOP
0613   346A 00                  NOP
0614   346B 00                  NOP
0615   346C 00                  NOP
0616   346D 00                  NOP
0617   346E 00                  NOP
0618   346F 00                  NOP
0619   3470 00                  NOP
0620   3471 00                  NOP
0621   3472 00                  NOP
0622   3473 00                  NOP
0623   3474 00                  NOP
0624   3475 00                  NOP
0625   3476 00                  NOP
0626   3477 00                  NOP
0627   3478 00                  NOP
0628   3479 00                  NOP
0629   347A 00                  NOP
0630   347B 00                  NOP
0631   347C 00                  NOP
0632   347D 00                  NOP
0633   347E 00                  NOP
0634   347F 00                  NOP
0635   3480 00                  NOP
0636   3481 00                  NOP
0637   3482 00                  NOP
0638   3483 00                  NOP
0639   3484 00                  NOP
0640   3485 00                  NOP
0641   3486 00                  NOP
0642   3487 00                  NOP
0643   3488 00                  NOP
0644   3489 00                  NOP
0645   348A 00                  NOP
0646   348B 00                  NOP
0647   348C 00                  NOP
0648   348D 00                  NOP
0649   348E 00                  NOP
0650   348F 00                  NOP
0651   3490 00                  NOP
0652   3491 00                  NOP
0653   3492 00                  NOP
0654   3493 00                  NOP
0655   3494 00                  NOP
0656   3495 00                  NOP
0657   3496 00                  NOP
0658   3497 00                  NOP
0659   3498 00                  NOP
0660   3499 00                  NOP
0661   349A 00                  NOP
0662   349B 00                  NOP
0663   349C 00                  NOP
0664   349D 00                  NOP
0665   349E 00                  NOP
0666   349F 00                  NOP
0667   34A0 00                  NOP
0668   34A1 00                  NOP
0669   34A2 00                  NOP
0670   34A3 00                  NOP
0671   34A4 00                  NOP
0672   34A5 00                  NOP
0673   34A6 00                  NOP
0674   34A7 00                  NOP
0675   34A8 00                  NOP
0676   34A9 00                  NOP
0677   34AA 00                  NOP
0678   34AB 00                  NOP
0679   34AC 00                  NOP
0680   34AD 00                  NOP
0681   34AE 00                  NOP
0682   34AF 00                  NOP
0683   34B0 00                  NOP
0684   34B1 00                  NOP
0685   34B2 00                  NOP
0686   34B3 00                  NOP
0687   34B4 00                  NOP
0688   34B5 00                  NOP
0689   34B6 00                  NOP
0690   34B7 00                  NOP
0691   34B8 00                  NOP
0692   34B9 00                  NOP
0693   34BA 00                  NOP
0694   34BB 00                  NOP
0695   34BC 00                  NOP
0696   34BD 00                  NOP
0697   34BE 00                  NOP
0698   34BF 00                  NOP
0699   34C0 00                  NOP
0700   34C1 00                  NOP
0701   34C2 00                  NOP
0702   34C3 00                  NOP
0703   34C4 00                  NOP
0704   34C5 00                  NOP
0705   34C6 00                  NOP
0706   34C7 00                  NOP
0707   34C8 00                  NOP
0708   34C9 00                  NOP
0709   34CA 00                  NOP
0710   34CB 00                  NOP
0711   34CC 00                  NOP
0712   34CD 00                  NOP
0713   34CE 00                  NOP
0714   34CF 00                  NOP
0715   34D0 00                  NOP
0716   34D1 00                  NOP
0717   34D2 00                  NOP
0718   34D3 00                  NOP
0719   34D4 00                  NOP
0720   34D5 00                  NOP
0721   34D6 00                  NOP
0722   34D7 00                  NOP
0723   34D8 00                  NOP
0724   34D9 00                  NOP
0725   34DA 00                  NOP
0726   34DB 00                  NOP
0727   34DC 00                  NOP
0728   34DD 00                  NOP
0729   34DE 00                  NOP
0730   34DF 00                  NOP
0731   34E0 00                  NOP
0732   34E1 00                  NOP
0733   34E2 00                  NOP
0734   34E3 00                  NOP
0735   34E4 00                  NOP
0736   34E5 00                  NOP
0737   34E6 00                  NOP
0738   34E7 00                  NOP
0739   34E8 00                  NOP
0740   34E9 00                  NOP
0741   34EA 00                  NOP
0742   34EB 00                  NOP
0743   34EC 00                  NOP
0744   34ED 00                  NOP
0745   34EE 00                  NOP
0746   34EF 00                  NOP
0747   34F0 00                  NOP
0748   34F1 00                  NOP
0749   34F2 00                  NOP
0750   34F3 00                  NOP
0751   34F4 00                  NOP
0752   34F5 00                  NOP
0753   34F6 00                  NOP
0754   34F7 00                  NOP
0755   34F8 00                  NOP
0756   34F9 00                  NOP
0757   34FA 00                  NOP
0758   34FB 00                  NOP
0759   34FC 00                  NOP
0760   34FD 00                  NOP
0761   34FE 00                  NOP
0762   34FF 00                  NOP
0763   3500 00                  NOP
0764   3501 00                  NOP
0765   3502 00                  NOP
0766   3503 00                  NOP
0767   3504 00                  NOP
0768   3505 00                  NOP
0769   3506 00                  NOP
0770   3507 00                  NOP
0771   3508 00                  NOP
0772   3509 00                  NOP
0773   350A 00                  NOP
0774   350B 00                  NOP
0775   350C 00                  NOP
0776   350D 00                  NOP
0777   350E 00                  NOP
0778   350F 00                  NOP
0779   3510 00                  NOP
0780   3511 00                  NOP
0781   3512 00                  NOP
0782   3513 00                  NOP
0783   3514 00                  NOP
0784   3515 00                  NOP
0785   3516 00                  NOP
0786   3517 00                  NOP
0787   3518 00                  NOP
0788   3519 00                  NOP
0789   351A 00                  NOP
0790   351B 00                  NOP
0791   351C 00                  NOP
0792   351D 00                  NOP
0793   351E 00                  NOP
0794   351F 00                  NOP
0795   3520 00                  NOP
0796   3521 00                  NOP
0797   3522 00                  NOP
0798   3523 00                  NOP
0799   3524 00                  NOP
0800   3525 00                  NOP
0801   3526 00                  NOP
0802   3527 00                  NOP
0803   3528 00                  NOP
0804   3529 00                  NOP
0805   352A 00                  NOP
0806   352B 00                  NOP
0807   352C 00                  NOP
0808   352D 00                  NOP
0809   352E 00                  NOP
0810   352F 00                  NOP
0811   3530 00                  NOP
0812   3531 00                  NOP
0813   3532 00                  NOP
0814   3533 00                  NOP
0815   3534 00                  NOP
0816   3535 00                  NOP
0817   3536 00                  NOP
0818   3537 00                  NOP
0819   3538 00                  NOP
0820   3539 00                  NOP
0821   353A 00                  NOP
0822   353B 00                  NOP
0823   353C 00                  NOP
0824   353D 00                  NOP
0825   353E 00                  NOP
0826   353F 00                  NOP
0827   3540 00                  NOP
0828   3541 00                  NOP
0829   3542 00                  NOP
0830   3543 00                  NOP
0831   3544 00                  NOP
0832   3545 00                  NOP
0833   3546 00                  NOP
0834   3547 00                  NOP
0835   3548 00                  NOP
0836   3549 00                  NOP
0837   354A 00                  NOP
0838   354B 00                  NOP
0839   354C 00                  NOP
0840   354D 00                  NOP
0841   354E 00                  NOP
0842   354F 00                  NOP
0843   3550 00                  NOP
0844   3551 00                  NOP
0845   3552 00                  NOP
0846   3553 00                  NOP
0847   3554 00                  NOP
0848   3555 00                  NOP
0849   3556 00                  NOP
0850   3557 00                  NOP
0851   3558 00                  NOP
0852   3559 00                  NOP
0853   355A 00                  NOP
0854   355B 00                  NOP
0855   355C 00                  NOP
0856   355D 00                  NOP
0857   355E 00                  NOP
0858   355F 00                  NOP
0859   3560 00                  NOP
0860   3561 00                  NOP
0861   3562 00                  NOP
0862   3563 00                  NOP
0863   3564 00                  NOP
0864   3565 00                  NOP
0865   3566 00                  NOP
0866   3567 00                  NOP
0867   3568 00                  NOP
0868   3569 00                  NOP
0869   356A 00                  NOP
0870   356B 00                  NOP
0871   356C 00                  NOP
0872   356D 00                  NOP
0873   356E 00                  NOP
0874   356F 00                  NOP
0875   3570 00                  NOP
0876   3571 00                  NOP
0877   3572 00                  NOP
0878   3573 00                  NOP
0879   3574 00                  NOP
0880   3575 00                  NOP
0881   3576 00                  NOP
0882   3577 00                  NOP
0883   3578 00                  NOP
0884   3579 00                  NOP
0885   357A 00                  NOP
0886   357B 00                  NOP
0887   357C 00                  NOP
0888   357D 00                  NOP
0889   357E 00                  NOP
0890   357F 00                  NOP
0891   3580 00                  NOP
0892   3581 00                  NOP
0893   3582 00                  NOP
0894   3583 00                  NOP
0895   3584 00                  NOP
0896   3585 00                  NOP
0897   3586 00                  NOP
0898   3587 00                  NOP
0899   3588 00                  NOP
0900   3589 00                  NOP
0901   358A 00                  NOP
0902   358B 00                  NOP
0903   358C 00                  NOP
0904   358D 00                  NOP
0905   358E 00                  NOP
0906   358F 00                  NOP
0907   3590 00                  NOP
0908   3591 00                  NOP
0909   3592 00                  NOP
0910   3593 00                  NOP
0911   3594 00                  NOP
0912   3595 00                  NOP
0913   3596 00                  NOP
0914   3597 00                  NOP
0915   3598 00                  NOP
0916   3599 00                  NOP
0917   359A 00                  NOP
0918   359B 00                  NOP
0919   359C 00                  NOP
0920   359D 00                  NOP
0921   359E 00                  NOP
0922   359F 00                  NOP
0923   35A0 00                  NOP
0924   35A1 00                  NOP
0925   35A2 00                  NOP
0926   35A3 00                  NOP
0927   35A4 00                  NOP
0928   35A5 00                  NOP
0929   35A6 00                  NOP
0930   35A7 00                  NOP
0931   35A8 00                  NOP
0932   35A9 00                  NOP
0933   35AA 00                  NOP
0934   35AB 00                  NOP
0935   35AC 00                  NOP
0936   35AD 00                  NOP
0937   35AE 00                  NOP
0938   35AF 00                  NOP
0939   35B0 00                  NOP
0940   35B1 00                  NOP
0941   35B2 00                  NOP
0942   35B3 00                  NOP
0943   35B4 00                  NOP
0944   35B5 00                  NOP
0945   35B6 00                  NOP
0946   35B7 00                  NOP
0947   35B8 00                  NOP
0948   35B9 00                  NOP
0949   35BA 00                  NOP
0950   35BB 00                  NOP
0951   35BC 00                  NOP
0952   35BD 00                  NOP
0953   35BE 00                  NOP
0954   35BF 00                  NOP
0955   35C0 00                  NOP
0956   35C1 00                  NOP
0957   35C2 00                  NOP
0958   35C3 00                  NOP
0959   35C4 00                  NOP
0960   35C5 00                  NOP
0961   35C6 00                  NOP
0962   35C7 00                  NOP
0963   35C8 00                  NOP
0964   35C9 00                  NOP
0965   35CA 00                  NOP
0966   35CB 00                  NOP
0967   35CC 00                  NOP
0968   35CD 00                  NOP
0969   35CE 00                  NOP
0970   35CF 00                  NOP
0971   35D0 00                  NOP
0972   35D1 00                  NOP
0973   35D2 00                  NOP
0974   35D3 00                  NOP
0975   35D4 00                  NOP
0976   35D5 00                  NOP
0977   35D6 00                  NOP
0978   35D7 00                  NOP
0979   35D8 00                  NOP
0980   35D9 00                  NOP
0981   35DA 00                  NOP
0982   35DB 00                  NOP
0983   35DC 00                  NOP
0984   35DD 00                  NOP
0985   35DE 00                  NOP
0986   35DF 00                  NOP
0987   35E0 00                  NOP
0988   35E1 00                  NOP
0989   35E2 00                  NOP
0990   35E3 00                  NOP
0991   35E4 00                  NOP
0992   35E5 00                  NOP
0993   35E6 00                  NOP
0994   35E7 00                  NOP
0995   35E8 00                  NOP
0996   35E9 00                  NOP
0997   35EA 00                  NOP
0998   35EB 00                  NOP
0999   35EC 00                  NOP
1000   35ED 00                  NOP
1001   35EE 00                  NOP
1002   35EF 00                  NOP
1003   35F0 00                  NOP
1004   35F1 00                  NOP
1005   35F2 00                  NOP
1006   35F3 00                  NOP
1007   35F4 00                  NOP
1008   35F5 00                  NOP
1009   35F6 00                  NOP
1010   35F7 00                  NOP
1011   35F8 00                  NOP
1012   35F9 00                  NOP
1013   35FA 00                  NOP
1014   35FB 00                  NOP
1015   35FC 00                  NOP
1016   35FD 00                  NOP
1017   35FE 00                  NOP
1018   35FF 00                  NOP
1019   3600 00                  NOP
1020   3601 00                  NOP
1021   3602 00                  NOP
1022   3603 00                  NOP
1023   3604 00                  NOP
1024   3605 00                  NOP
1025   3606 00                  NOP
1026   3607 00                  NOP
1027   3608 00                  NOP
1028   3609 00                  NOP
1029   360A 00                  NOP
1030   360B 00                  NOP
1031   360C 00                  NOP
1032   360D 00                  NOP
1033   360E 00                  NOP
1034   360F 00                  NOP
1035   3610 00                  NOP
1036   3611 00                  NOP
1037   3612 00                  NOP
1038   3613 00                  NOP
1039   3614 00                  NOP
1040   3615 00                  NOP
1041   3616 00                  NOP
1042   3617 00                  NOP
1043   3618 00                  NOP
1044   3619 00                  NOP
1045   361A 00                  NOP
1046   361B 00                  NOP
1047   361C 00                  NOP
1048   361D 00                  NOP
1049   361E 00                  NOP
1050   361F 00                  NOP
1051   3620 00                  NOP
1052   3621 00                  NOP
1053   3622 00                  NOP
1054   3623 00                  NOP
1055   3624 00                  NOP
1056   3625 00                  NOP
1057   3626 00                  NOP
1058   3627 00                  NOP
1059   3628 00                  NOP
1060   3629 00                  NOP
1061   362A 00                  NOP
1062   362B 00                  NOP
1063   362C 00                  NOP
1064   362D 00                  NOP
1065   362E 00                  NOP
1066   362F 00                  NOP
1067   3630 00                  NOP
1068   3631 00                  NOP
1069   3632 00                  NOP
1070   3633 00                  NOP
1071   3634 00                  NOP
1072   3635 00                  NOP
1073   3636 00                  NOP
1074   3637 00                  NOP
1075   3638 00                  NOP
1076   3639 00                  NOP
1077   363A 00                  NOP
1078   363B 00                  NOP
1079   363C 00                  NOP
1080   363D 00                  NOP
1081   363E 00                  NOP
1082   363F 00                  NOP
1083   3640 00                  NOP
1084   3641 00                  NOP
1085   3642 00                  NOP
1086   3643 00                  NOP
1087   3644 00                  NOP
1088   3645 00                  NOP
1089   3646 00                  NOP
1090   3647 00                  NOP
1091   3648 00                  NOP
1092   3649 00                  NOP
1093   364A 00                  NOP
1094   364B 00                  NOP
1095   364C 00                  NOP
1096   364D 00                  NOP
1097   364E 00                  NOP
1098   364F 00                  NOP
1099   3650 00                  NOP
1100   3651 00                  NOP
1101   3652 00                  NOP
1102   3653 00                  NOP
1103   3654 00                  NOP
1104   3655 00                  NOP
1105   3656 00                  NOP
1106   3657 00                  NOP
1107   3658 00                  NOP
1108   3659 00                  NOP
1109   365A 00                  NOP
1110   365B 00                  NOP
1111   365C 00                  NOP
1112   365D 00                  NOP
1113   365E 00                  NOP
1114   365F 00                  NOP
1115   3660 00                  NOP
1116   3661 00                  NOP
1117   3662 00                  NOP
1118   3663 00                  NOP
1119   3664 00                  NOP
1120   3665 00                  NOP
1121   3666 00                  NOP
1122   3667 00                  NOP
1123   3668 00                  NOP
1124   3669 00                  NOP
1125   366A 00                  NOP
1126   366B 00                  NOP
1127   366C 00                  NOP
1128   366D 00                  NOP
1129   366E 00                  NOP
1130   366F 00                  NOP
1131   3670 00                  NOP
1132   3671 00                  NOP
1133   3672 00                  NOP
1134   3673 00                  NOP
1135   3674 00                  NOP
1136   3675 00                  NOP
1137   3676 00                  NOP
1138   3677 00                  NOP
1139   3678 00                  NOP
1140   3679 00                  NOP
1141   367A 00                  NOP
1142   367B 00                  NOP
1143   367C 00                  NOP
1144   367D 00                  NOP
1145   367E 00                  NOP
1146   367F 00                  NOP
1147   3680 00                  NOP
1148   3681 00                  NOP
1149   3682 00                  NOP
1150   3683 00                  NOP
1151   3684 00                  NOP
1152   3685 00                  NOP
1153   3686 00                  NOP
1154   3687 00                  NOP
1155   3688 00                  NOP
1156   3689 00                  NOP
1157   368A 00                  NOP
1158   368B 00                  NOP
1159   368C 00                  NOP
1160   368D 00                  NOP
1161   368E 00                  NOP
1162   368F 00                  NOP
1163   3690 00                  NOP
1164   3691 00                  NOP
1165   3692 00                  NOP
1166   3693 00                  NOP
1167   3694 00                  NOP
1168   3695 00                  NOP
1169   3696 00                  NOP
1170   3697 00                  NOP
1171   3698 00                  NOP
1172   3699 00                  NOP
1173   369A 00                  NOP
1174   369B 00                  NOP
1175   369C 00                  NOP
1176   369D 00                  NOP
1177   369E 00                  NOP
1178   369F 00                  NOP
1179   36A0 00                  NOP
1180   36A1 00                  NOP
1181   36A2 00                  NOP
1182   36A3 00                  NOP
1183   36A4 00                  NOP
1184   36A5 00                  NOP
1185   36A6 00                  NOP
1186   36A7 00                  NOP
1187   36A8 00                  NOP
1188   36A9 00                  NOP
1189   36AA 00                  NOP
1190   36AB 00                  NOP
1191   36AC 00                  NOP
1192   36AD 00                  NOP
1193   36AE 00                  NOP
1194   36AF 00                  NOP
1195   36B0 00                  NOP
1196   36B1 00                  NOP
1197   36B2 00                  NOP
1198   36B3 00                  NOP
1199   36B4 00                  NOP
1200   36B5 00                  NOP
1201   36B6 00                  NOP
1202   36B7 00                  NOP
1203   36B8 00                  NOP
1204   36B9 00                  NOP
1205   36BA 00                  NOP
1206   36BB 00                  NOP
1207   36BC 00                  NOP
1208   36BD 00                  NOP
1209   36BE 00                  NOP
1210   36BF 00                  NOP
1211   36C0 00                  NOP
1212   36C1 00                  NOP
1213   36C2 00                  NOP
1214   36C3 00                  NOP
1215   36C4 00                  NOP
1216   36C5 00                  NOP
1217   36C6 00                  NOP
1218   36C7 00                  NOP
1219   36C8 00                  NOP
1220   36C9 00                  NOP
1221   36CA 00                  NOP
1222   36CB 00                  NOP
1223   36CC 00                  NOP
1224   36CD 00                  NOP
1225   36CE 00                  NOP
1226   36CF 00                  NOP
1227   36D0 00                  NOP
1228   36D1 00                  NOP
1229   36D2 00                  NOP
1230   36D3 00                  NOP
1231   36D4 00                  NOP
1232   36D5 00                  NOP
1233   36D6 00                  NOP
1234   36D7 00                  NOP
1235   36D8 00                  NOP
1236   36D9 00                  NOP
1237   36DA 00                  NOP
1238   36DB 00                  NOP
1239   36DC 00                  NOP
1240   36DD 00                  NOP
1241   36DE 00                  NOP
1242   36DF 00                  NOP
1243   36E0 00                  NOP
1244   36E1 00                  NOP
1245   36E2 00                  NOP
1246   36E3 00                  NOP
1247   36E4 00                  NOP
1248   36E5 00                  NOP
1249   36E6 00                  NOP
1250   36E7 00                  NOP
1251   36E8 00                  NOP
1252   36E9 00                  NOP
1253   36EA 00                  NOP
1254   36EB 00                  NOP
1255   36EC 00                  NOP
1256   36ED 00                  NOP
1257   36EE 00                  NOP
1258   36EF 00                  NOP
1259   36F0 00                  NOP
1260   36F1 00                  NOP
1261   36F2 00                  NOP
1262   36F3 00                  NOP
1263   36F4 00                  NOP
1264   36F5 00                  NOP
1265   36F6 00                  NOP
1266   36F7 00                  NOP
1267   36F8 00                  NOP
1268   36F9 00                  NOP
1269   36FA 00                  NOP
1270   36FB 00                  NOP
1271   36FC 00                  NOP
1272   36FD 00                  NOP
1273   36FE 00                  NOP
1274   36FF 00                  NOP
1275   3700 00                  NOP
1276   3701 00                  NOP
1277   3702 00                  NOP
1278   3703 00                  NOP
1279   3704 00                  NOP
1280   3705 00                  NOP
1281   3706 00                  NOP
1282   3707 00                  NOP
1283   3708 00                  NOP
1284   3709 00                  NOP
1285   370A 00                  NOP
1286   370B 00                  NOP
1287   370C 00                  NOP
1288   370D 00                  NOP
1289   370E 00                  NOP
1290   370F 00                  NOP
1291   3710 00                  NOP
1292   3711 00                  NOP
1293   3712 00                  NOP
1294   3713 00                  NOP
1295   3714 00                  NOP
1296   3715 00                  NOP
1297   3716 00                  NOP
1298   3717 00                  NOP
1299   3718 00                  NOP
1300   3719 00                  NOP
1301   371A 00                  NOP
1302   371B 00                  NOP
1303   371C 00                  NOP
1304   371D 00                  NOP
1305   371E 00                  NOP
1306   371F 00                  NOP
1307   3720 00                  NOP
1308   3721 00                  NOP
1309   3722 00                  NOP
1310   3723 00                  NOP
1311   3724 00                  NOP
1312   3725 00                  NOP
1313   3726 00                  NOP
1314   3727 00                  NOP
1315   3728 00                  NOP
1316   3729 00                  NOP
1317   372A 00                  NOP
1318   372B 00                  NOP
1319   372C 00                  NOP
1320   372D 00                  NOP
1321   372E 00                  NOP
1322   372F 00                  NOP
1323   3730 00                  NOP
1324   3731 00                  NOP
1325   3732 00                  NOP
1326   3733 00                  NOP
1327   3734 00                  NOP
1328   3735 00                  NOP
1329   3736 00                  NOP
1330   3737 00                  NOP
1331   3738 00                  NOP
1332   3739 00                  NOP
1333   373A 00                  NOP
1334   373B 00                  NOP
1335   373C 00                  NOP
1336   373D 00                  NOP
1337   373E 00                  NOP
1338   373F 00                  NOP
1339   3740 00                  NOP
1340   3741 00                  NOP
1341   3742 00                  NOP
1342   3743 00                  NOP
1343   3744 00                  NOP
1344   3745 00                  NOP
1345   3746 00                  NOP
1346   3747 00                  NOP
1347   3748 00                  NOP
1348   3749 00                  NOP
1349   374A 00                  NOP
1350   374B 00                  NOP
1351   374C 00                  NOP
1352   374D 00                  NOP
1353   374E 00                  NOP
1354   374F 00                  NOP
1355   3750 00                  NOP
1356   3751 00                  NOP
1357   3752 00                  NOP
1358   3753 00                  NOP
1359   3754 00                  NOP
1360   3755 00                  NOP
1361   3756 00                  NOP
1362   3757 00                  NOP
1363   3758 00                  NOP
1364   3759 00                  NOP
1365   375A 00                  NOP
1366   375B 00                  NOP
1367   375C 00                  NOP
1368   375D 00                  NOP
1369   375E 00                  NOP
1370   375F 00                  NOP
1371   3760 00                  NOP
1372   3761 00                  NOP
1373   3762 00                  NOP
1374   3763 00                  NOP
1375   3764 00                  NOP
1376   3765 00                  NOP
1377   3766 00                  NOP
1378   3767 00                  NOP
1379   3768 00                  NOP
1380   3769 00                  NOP
1381   376A 00                  NOP
1382   376B 00                  NOP
1383   376C 00                  NOP
1384   376D 00                  NOP
1385   376E 00                  NOP
1386   376F 00                  NOP
1387   3770 00                  NOP
1388   3771 00                  NOP
1389   3772 00                  NOP
1390   3773 00                  NOP
1391   3774 00                  NOP
1392   3775 00                  NOP
1393   3776 00                  NOP
1394   3777 00                  NOP
1395   3778 00                  NOP
1396   3779 00                  NOP
1397   377A 00                  NOP
1398   377B 00                  NOP
1399   377C 00                  NOP
1400   377D 00                  NOP
1401   377E 00                  NOP
1402   377F 00                  NOP
1403   3780 00                  NOP
1404   3781 00                  NOP
1405   3782 00                  NOP
1406   3783 00                  NOP
1407   3784 00                  NOP
1408   3785 00                  NOP
1409   3786 00                  NOP
1410   3787 00                  NOP
1411   3788 00                  NOP
1412   3789 00                  NOP
1413   378A 00                  NOP
1414   378B 00                  NOP
1415   378C 00                  NOP
1416   378D 00                  NOP
1417   378E 00                  NOP
1418   378F 00                  NOP
1419   3790 00                  NOP
1420   3791 00                  NOP
1421   3792 00                  NOP
1422   3793 00                  NOP
1423   3794 00                  NOP
1424   3795 00                  NOP
1425   3796 00                  NOP
1426   3797 00                  NOP
1427   3798 00                  NOP
1428   3799 00                  NOP
1429   379A 00                  NOP
1430   379B 00                  NOP
1431   379C 00                  NOP
1432   379D 00                  NOP
1433   379E 00                  NOP
1434   379F 00                  NOP
1435   37A0 00                  NOP
1436   37A1 00                  NOP
1437   37A2 00                  NOP
1438   37A3 00                  NOP
1439   37A4 00                  NOP
1440   37A5 00                  NOP
1441   37A6 00                  NOP
1442   37A7 00                  NOP
1443   37A8 00                  NOP
1444   37A9 00                  NOP
1445   37AA 00                  NOP
1446   37AB 00                  NOP
1447   37AC 00                  NOP
1448   37AD 00                  NOP
1449   37AE 00                  NOP
1450   37AF 00                  NOP
1451   37B0 00                  NOP
1452   37B1 00                  NOP
1453   37B2 00                  NOP
1454   37B3 00                  NOP
1455   37B4 00                  NOP
1456   37B5 00                  NOP
1457   37B6 00                  NOP
1458   37B7 00                  NOP
1459   37B8 00                  NOP
1460   37B9 00                  NOP
1461   37BA 00                  NOP
1462   37BB 00                  NOP
1463   37BC 00                  NOP
1464   37BD 00                  NOP
1465   37BE 00                  NOP
1466   37BF 00                  NOP
1467   37C0 00                  NOP
1468   37C1 00                  NOP
1469   37C2 00                  NOP
1470   37C3 00                  NOP
1471   37C4 00                  NOP
1472   37C5 00                  NOP
1473   37C6 00                  NOP
1474   37C7 00                  NOP
1475   37C8 00                  NOP
1476   37C9 00                  NOP
1477   37CA 00                  NOP
1478   37CB 00                  NOP
1479   37CC 00                  NOP
1480   37CD 00                  NOP
1481   37CE 00                  NOP
1482   37CF 00                  NOP
1483   37D0 00                  NOP
1484   37D1 00                  NOP
1485   37D2 00                  NOP
1486   37D3 00                  NOP
1487   37D4 00                  NOP
1488   37D5 00                  NOP
1489   37D6 00                  NOP
1490   37D7 00                  NOP
1491   37D8 00                  NOP
1492   37D9 00                  NOP
1493   37DA 00                  NOP
1494   37DB 00                  NOP
1495   37DC 00                  NOP
1496   37DD 00                  NOP
1497   37DE 00                  NOP
1498   37DF 00                  NOP
1499   37E0 00                  NOP
1500   37E1 00                  NOP
1501   37E2 00                  NOP
1502   37E3 00                  NOP
1503   37E4 00                  NOP
1504   37E5 00                  NOP
1505   37E6 00                  NOP
1506   37E7 00                  NOP
1507   37E8 00                  NOP
1508   37E9 00                  NOP
1509   37EA 00                  NOP
1510   37EB 00                  NOP
1511   37EC 00                  NOP
1512   37ED 00                  NOP
1513   37EE 00                  NOP
1514   37EF 00                  NOP
1515   37F0 00                  NOP
1516   37F1 00                  NOP
1517   37F2 00                  NOP
1518   37F3 00                  NOP
1519   37F4 00                  NOP
1520   37F5 00                  NOP
1521   37F6 00                  NOP
1522   37F7 00                  NOP
1523   37F8 00                  NOP
1524   37F9 00                  NOP
1525   37FA 00                  NOP
1526   37FB 00                  NOP
1527   37FC 00                  NOP
1528   37FD 00                  NOP
1529   37FE 00                  NOP
1530   37FF 00                  NOP
1531   3800 00                  NOP
1532   3801 00                  NOP
1533   3802 00                  NOP
1534   3803 00                  NOP
1535   3804 00                  NOP
1536   3805 00                  NOP
1537   3806 00                  NOP
1538   3807 00                  NOP
1539   3808 00                  NOP
1540   3809 00                  NOP
1541   380A 00                  NOP
1542   380B 00                  NOP
1543   380C 00                  NOP
1544   380D 00                  NOP
1545   380E 00                  NOP
1546   380F 00                  NOP
1547   3810 00                  NOP
1548   3811 00                  NOP
1549   3812 00                  NOP
1550   3813 00                  NOP
1551   3814 00                  NOP
1552   3815 00                  NOP
1553   3816 00                  NOP
1554   3817 00                  NOP
1555   3818 00                  NOP
1556   3819 00                  NOP
1557   381A 00                  NOP
1558   381B 00                  NOP
1559   381C 00                  NOP
1560   381D 00                  NOP
1561   381E 00                  NOP
1562   381F 00                  NOP
1563   3820 00                  NOP
1564   3821 00                  NOP
1565   3822 00                  NOP
1566   3823 00                  NOP
1567   3824 00                  NOP
1568   3825 00                  NOP
1569   3826 00                  NOP
1570   3827 00                  NOP
1571   3828 00                  NOP
1572   3829 00                  NOP
1573   382A 00                  NOP
1574   382B 00                  NOP
1575   382C 00                  NOP
1576   382D 00                  NOP
1577   382E 00                  NOP
1578   382F 00                  NOP
1579   3830 00                  NOP
1580   3831 00                  NOP
1581   3832 00                  NOP
1582   3833 00                  NOP
1583   3834 00                  NOP
1584   3835 00                  NOP
1585   3836 00                  NOP
1586   3837 00                  NOP
1587   3838 00                  NOP
1588   3839 00                  NOP
1589   383A 00                  NOP
1590   383B 00                  NOP
1591   383C 00                  NOP
1592   383D 00                  NOP
1593   383E 00                  NOP
1594   383F 00                  NOP
1595   3840 00                  NOP
1596   3841 00                  NOP
1597   3842 00                  NOP
1598   3843 00                  NOP
1599   3844 00                  NOP
1600   3845 00                  NOP
1601   3846 00                  NOP
1602   3847 00                  NOP
1603   3848 00                  NOP
1604   3849 00                  NOP
1605   384A 00                  NOP
1606   384B 00                  NOP
1607   384C 00                  NOP
1608   384D 00                  NOP
1609   384E 00                  NOP
1610   384F 00                  NOP
1611   3850 00                  NOP
1612   3851 00                  NOP
1613   3852 00                  NOP
1614   3853 00                  NOP
1615   3854 00                  NOP
1616   3855 00                  NOP
1617   3856 00                  NOP
1618   3857 00                  NOP
1619   3858 00                  NOP
1620   3859 00                  NOP
1621   385A 00                  NOP
1622   385B 00                  NOP
1623   385C 00                  NOP
1624   385D 00                  NOP
1625   385E 00                  NOP
1626   385F 00                  NOP
1627   3860 00                  NOP
1628   3861 00                  NOP
1629   3862 00                  NOP
1630   3863 00                  NOP
1631   3864 00                  NOP
1632   3865 00                  NOP
1633   3866 00                  NOP
1634   3867 00                  NOP
1635   3868 00                  NOP
1636   3869 00                  NOP
1637   386A 00                  NOP
1638   386B 00                  NOP
1639   386C 00                  NOP
1640   386D 00                  NOP
1641   386E 00                  NOP
1642   386F 00                  NOP
1643   3870 00                  NOP
1644   3871 00                  NOP
1645   3872 00                  NOP
1646   3873 00                  NOP
1647   3874 00                  NOP
1648   3875 00                  NOP
1649   3876 00                  NOP
1650   3877 00                  NOP
1651   3878 00                  NOP
1652   3879 00                  NOP
1653   387A 00                  NOP
1654   387B 00                  NOP
1655   387C 00                  NOP
1656   387D 00                  NOP
1657   387E 00                  NOP
1658   387F 00                  NOP
1659   3880 00                  NOP
1660   3881 00                  NOP
1661   3882 00                  NOP
1662   3883 00                  NOP
1663   3884 00                  NOP
1664   3885 00                  NOP
1665   3886 00                  NOP
1666   3887 00                  NOP
1667   3888 00                  NOP
1668   3889 00                  NOP
1669   388A 00                  NOP
1670   388B 00                  NOP
1671   388C 00                  NOP
1672   388D 00                  NOP
1673   388E 00                  NOP
1674   388F 00                  NOP
1675   3890 00                  NOP
1676   3891 00                  NOP
1677   3892 00                  NOP
1678   3893 00                  NOP
1679   3894 00                  NOP
1680   3895 00                  NOP
1681   3896 00                  NOP
1682   3897 00                  NOP
1683   3898 00                  NOP
1684   3899 00                  NOP
1685   389A 00                  NOP
1686   389B 00                  NOP
1687   389C 00                  NOP
1688   389D 00                  NOP
1689   389E 00                  NOP
1690   389F 00                  NOP
1691   38A0 00                  NOP
1692   38A1 00                  NOP
1693   38A2 00                  NOP
1694   38A3 00                  NOP
1695   38A4 00                  NOP
1696   38A5 00                  NOP
1697   38A6 00                  NOP
1698   38A7 00                  NOP
1699   38A8 00                  NOP
1700   38A9 00                  NOP
1701   38AA 00                  NOP
1702   38AB 00                  NOP
1703   38AC 00                  NOP
1704   38AD 00                  NOP
1705   38AE 00                  NOP
1706   38AF 00                  NOP
1707   38B0 00                  NOP
1708   38B1 00                  NOP
1709   38B2 00                  NOP
1710   38B3 00                  NOP
1711   38B4 00                  NOP
1712   38B5 00                  NOP
1713   38B6 00                  NOP
1714   38B7 00                  NOP
1715   38B8 00                  NOP
1716   38B9 00                  NOP
1717   38BA 00                  NOP
1718   38BB 00                  NOP
1719   38BC 00                  NOP
1720   38BD 00                  NOP
1721   38BE 00                  NOP
1722   38BF 00                  NOP
1723   38C0 00                  NOP
1724   38C1 00                  NOP
1725   38C2 00                  NOP
1726   38C3 00                  NOP
1727   38C4 00                  NOP
1728   38C5 00                  NOP
1729   38C6 00                  NOP
1730   38C7 00                  NOP
1731   38C8 00                  NOP
1732   38C9 00                  NOP
1733   38CA 00                  NOP
1734   38CB 00                  NOP
1735   38CC 00                  NOP
1736   38CD 00                  NOP
1737   38CE 00                  NOP
1738   38CF 00                  NOP
1739   38D0 00                  NOP
1740   38D1 00                  NOP
1741   38D2 00                  NOP
1742   38D3 00                  NOP
1743   38D4 00                  NOP
1744   38D5 00                  NOP
1745   38D6 00                  NOP
1746   38D7 00                  NOP
1747   38D8 00                  NOP
1748   38D9 00                  NOP
1749   38DA 00                  NOP
1750   38DB 00                  NOP
1751   38DC 00                  NOP
1752   38DD 00                  NOP
1753   38DE 00                  NOP
1754   38DF 00                  NOP
1755   38E0 00                  NOP
1756   38E1 00                  NOP
1757   38E2 00                  NOP
1758   38E3 00                  NOP
1759   38E4 00                  NOP
1760   38E5 00                  NOP
1761   38E6 00                  NOP
1762   38E7 00                  NOP
1763   38E8 00                  NOP
1764   38E9 00                  NOP
1765   38EA 00                  NOP
1766   38EB 00                  NOP
1767   38EC 00                  NOP
1768   38ED 00                  NOP
1769   38EE 00                  NOP
1770   38EF 00                  NOP
1771   38F0 00                  NOP
1772   38F1 00                  NOP
1773   38F2 00                  NOP
1774   38F3 00                  NOP
1775   38F4 00                  NOP
1776   38F5 00                  NOP
1777   38F6 00                  NOP
1778   38F7 00                  NOP
1779   38F8 00                  NOP
1780   38F9 00                  NOP
1781   38FA 00                  NOP
1782   38FB 00                  NOP
1783   38FC 00                  NOP
1784   38FD 00                  NOP
1785   38FE 00                  NOP
1786   38FF 00                  NOP
1787   3900 00                  NOP
1788   3901 00                  NOP
1789   3902 00                  NOP
1790   3903 00                  NOP
1791   3904 00                  NOP
1792   3905 00                  NOP
1793   3906 00                  NOP
1794   3907 00                  NOP
1795   3908 00                  NOP
1796   3909 00                  NOP
1797   390A 00                  NOP
1798   390B 00                  NOP
1799   390C 00                  NOP
1800   390D 00                  NOP
1801   390E 00                  NOP
1802   390F 00                  NOP
1803   3910 00                  NOP
1804   3911 00                  NOP
1805   3912 00                  NOP
1806   3913 00                  NOP
1807   3914 00                  NOP
1808   3915 00                  NOP
1809   3916 00                  NOP
1810   3917 00                  NOP
1811   3918 00                  NOP
1812   3919 00                  NOP
1813   391A 00                  NOP
1814   391B 00                  NOP
1815   391C 00                  NOP
1816   391D 00                  NOP
1817   391E 00                  NOP
1818   391F 00                  NOP
1819   3920 00                  NOP
1820   3921 00                  NOP
1821   3922 00                  NOP
1822   3923 00                  NOP
1823   3924 00                  NOP
1824   3925 00                  NOP
1825   3926 00                  NOP
1826   3927 00                  NOP
1827   3928 00                  NOP
1828   3929 00                  NOP
1829   392A 00                  NOP
1830   392B 00                  NOP
1831   392C 00                  NOP
1832   392D 00                  NOP
1833   392E 00                  NOP
1834   392F 00                  NOP
1835   3930 00                  NOP
1836   3931 00                  NOP
1837   3932 00                  NOP
1838   3933 00                  NOP
1839   3934 00                  NOP
1840   3935 00                  NOP
1841   3936 00                  NOP
1842   3937 00                  NOP
1843   3938 00                  NOP
1844   3939 00                  NOP
1845   393A 00                  NOP
1846   393B 00                  NOP
1847   393C 00                  NOP
1848   393D 00                  NOP
1849   393E 00                  NOP
1850   393F 00                  NOP
1851   3940 00                  NOP
1852   3941 00                  NOP
1853   3942 00                  NOP
1854   3943 00                  NOP
1855   3944 00                  NOP
1856   3945 00                  NOP
1857   3946 00                  NOP
1858   3947 00                  NOP
1859   3948 00                  NOP
1860   3949 00                  NOP
1861   394A 00                  NOP
1862   394B 00                  NOP
1863   394C 00                  NOP
1864   394D 00                  NOP
1865   394E 00                  NOP
1866   394F 00                  NOP
1867   3950 00                  NOP
1868   3951 00                  NOP
1869   3952 00                  NOP
1870   3953 00                  NOP
1871   3954 00                  NOP
1872   3955 00                  NOP
1873   3956 00                  NOP
1874   3957 00                  NOP
1875   3958 00                  NOP
1876   3959 00                  NOP
1877   395A 00                  NOP
1878   395B 00                  NOP
1879   395C 00                  NOP
1880   395D 00                  NOP
1881   395E 00                  NOP
1882   395F 00                  NOP
1883   3960 00                  NOP
1884   3961 00                  NOP
1885   3962 00                  NOP
1886   3963 00                  NOP
1887   3964 00                  NOP
1888   3965 00                  NOP
1889   3966 00                  NOP
1890   3967 00                  NOP
1891   3968 00                  NOP
1892   3969 00                  NOP
1893   396A 00                  NOP
1894   396B 00                  NOP
1895   396C 00                  NOP
1896   396D 00                  NOP
1897   396E 00                  NOP
1898   396F 00                  NOP
1899   3970 00                  NOP
1900   3971 00                  NOP
1901   3972 00                  NOP
1902   3973 00                  NOP
1903   3974 00                  NOP
1904   3975 00                  NOP
1905   3976 00                  NOP
1906   3977 00                  NOP
1907   3978 00                  NOP
1908   3979 00                  NOP
1909   397A 00                  NOP
1910   397B 00                  NOP
1911   397C 00                  NOP
1912   397D 00                  NOP
1913   397E 00                  NOP
1914   397F 00                  NOP
1915   3980 00                  NOP
1916   3981 00                  NOP
1917   3982 00                  NOP
1918   3983 00                  NOP
1919   3984 00                  NOP
1920   3985 00                  NOP
1921   3986 00                  NOP
1922   3987 00                  NOP
1923   3988 00                  NOP
1924   3989 00                  NOP
1925   398A 00                  NOP
1926   398B 00                  NOP
1927   398C 00                  NOP
1928   398D 00                  NOP
1929   398E 00                  NOP
1930   398F 00                  NOP
1931   3990 00                  NOP
1932   3991 00                  NOP
1933   3992 00                  NOP
1934   3993 00                  NOP
1935   3994 00                  NOP
1936   3995 00                  NOP
1937   3996 00                  NOP
1938   3997 00                  NOP
1939   3998 00                  NOP
1940   3999 00                  NOP
1941   399A 00                  NOP
1942   399B 00                  NOP
1943   399C 00                  NOP
1944   399D 00                  NOP
1945   399E 00                  NOP
1946   399F 00                  NOP
1947   39A0 00                  NOP
1948   39A1 00                  NOP
1949   39A2 00                  NOP
1950   39A3 00                  NOP
1951   39A4 00                  NOP
1952   39A5 00                  NOP
1953   39A6 00                  NOP
1954   39A7 00                  NOP
1955   39A8 00                  NOP
1956   39A9 00                  NOP
1957   39AA 00                  NOP
1958   39AB 00                  NOP
1959   39AC 00                  NOP
1960   39AD 00                  NOP
1961   39AE 00                  NOP
1962   39AF 00                  NOP
1963   39B0 00                  NOP
1964   39B1 00                  NOP
1965   39B2 00                  NOP
1966   39B3 00                  NOP
1967   39B4 00                  NOP
1968   39B5 00                  NOP
1969   39B6 00                  NOP
1970   39B7 00                  NOP
1971   39B8 00                  NOP
1972   39B9 00                  NOP
1973   39BA 00                  NOP
1974   39BB 00                  NOP
1975   39BC 00                  NOP
1976   39BD 00                  NOP
1977   39BE 00                  NOP
1978   39BF 00                  NOP
1979   39C0 00                  NOP
1980   39C1 00                  NOP
1981   39C2 00                  NOP
1982   39C3 00                  NOP
1983   39C4 00                  NOP
1984   39C5 00                  NOP
1985   39C6 00                  NOP
1986   39C7 00                  NOP
1987   39C8 00                  NOP
1988   39C9 00                  NOP
1989   39CA 00                  NOP
1990   39CB 00                  NOP
1991   39CC 00                  NOP
1992   39CD 00                  NOP
1993   39CE 00                  NOP
1994   39CF 00                  NOP
1995   39D0 00                  NOP
1996   39D1 00                  NOP
1997   39D2 00                  NOP
1998   39D3 00                  NOP
1999   39D4 00                  NOP
2000   39D5 00                  NOP
2001   39D6 00                  NOP
2002   39D7 00                  NOP
2003   39D8 00                  NOP
2004   39D9 00                  NOP
2005   39DA 00                  NOP
2006   39DB 00                  NOP
2007   39DC 00                  NOP
2008   39DD 00                  NOP
2009   39DE 00                  NOP
2010   39DF 00                  NOP
2011   39E0 00                  NOP
2012   39E1 00                  NOP
2013   39E2 00                  NOP
2014   39E3 00                  NOP
2015   39E4 00                  NOP
2016   39E5 00                  NOP
2017   39E6 00                  NOP
2018   39E7 00                  NOP
2019   39E8 00                  NOP
2020   39E9 00                  NOP
2021   39EA 00                  NOP
2022   39EB 00                  NOP
2023   39EC 00                  NOP
2024   39ED 00                  NOP
2025   39EE 00                  NOP
2026   39EF 00                  NOP
2027   39F0 00                  NOP
2028   39F1 00                  NOP
2029   39F2 00                  NOP
2030   39F3 00                  NOP
2031   39F4 00                  NOP
2032   39F5 00                  NOP
2033   39F6 00                  NOP
2034   39F7 00                  NOP
2035   39F8 00                  NOP
2036   39F9 00                  NOP
2037   39FA 00                  NOP
2038   39FB 00                  NOP
2039   39FC 00                  NOP
2040   39FD 00                  NOP
2041   39FE 00                  NOP
2042   39FF 00                  NOP
2043   3A00 00                  NOP
2044   3A01 00                  NOP
2045   3A02 00                  NOP
2046   3A03 00                  NOP
2047   3A04 00                  NOP
2048   3A05 00                  NOP
2049   3A06 00                  NOP
2050   3A07 00                  NOP
2051   3A08 00                  NOP
2052   3A09 00                  NOP
2053   3A0A 00                  NOP
2054   3A0B 00                  NOP
2055   3A0C 00                  NOP
2056   3A0D 00                  NOP
2057   3A0E 00                  NOP
2058   3A0F 00                  NOP
2059   3A10 00                  NOP
2060   3A11 00                  NOP
2061   3A12 00                  NOP
2062   3A13 00                  NOP
2063   3A14 00                  NOP
2064   3A15 00                  NOP
2065   3A16 00                  NOP
2066   3A17 00                  NOP
2067   3A18 00                  NOP
2068   3A19 00                  NOP
2069   3A1A 00                  NOP
2070   3A1B 00                  NOP
2071   3A1C 00                  NOP
2072   3A1D 00                  NOP
2073   3A1E 00                  NOP
2074   3A1F 00                  NOP
2075   3A20 00                  NOP
2076   3A21 00                  NOP
2077   3A22 00                  NOP
2078   3A23 00                  NOP
2079   3A24 00                  NOP
2080   3A25 00                  NOP
2081   3A26 00                  NOP
2082   3A27 00                  NOP
2083   3A28 00                  NOP
2084   3A29 00                  NOP
2085   3A2A 00                  NOP
2086   3A2B 00                  NOP
2087   3A2C 00                  NOP
2088   3A2D 00                  NOP
2089   3A2E 00                  NOP
2090   3A2F 00                  NOP
2091   3A30 00                  NOP
2092   3A31 00                  NOP
2093   3A32 00                  NOP
2094   3A33 00                  NOP
2095   3A34 00                  NOP
2096   3A35 00                  NOP
2097   3A36 00                  NOP
2098   3A37 00                  NOP
2099   3A38 00                  NOP
2100   3A39 00                  NOP
2101   3A3A 00                  NOP
2102   3A3B 00                  NOP
2103   3A3C 00                  NOP
2104   3A3D 00                  NOP
2105   3A3E 00                  NOP
2106   3A3F 00                  NOP
2107   3A40 00                  NOP
2108   3A41 00                  NOP
2109   3A42 00                  NOP
2110   3A43 00                  NOP
2111   3A44 00                  NOP
2112   3A45 00                  NOP
2113   3A46 00                  NOP
2114   3A47 00                  NOP
2115   3A48 00                  NOP
2116   3A49 00                  NOP
2117   3A4A 00                  NOP
2118   3A4B 00                  NOP
2119   3A4C 00                  NOP
2120   3A4D 00                  NOP
2121   3A4E 00                  NOP
2122   3A4F 00                  NOP
2123   3A50 00                  NOP
2124   3A51 00                  NOP
2125   3A52 00                  NOP
2126   3A53 00                  NOP
2127   3A54 00                  NOP
2128   3A55 00                  NOP
2129   3A56 00                  NOP
2130   3A57 00                  NOP
2131   3A58 00                  NOP
2132   3A59 00                  NOP
2133   3A5A 00                  NOP
2134   3A5B 00                  NOP
2135   3A5C 00                  NOP
2136   3A5D 00                  NOP
2137   3A5E 00                  NOP
2138   3A5F 00                  NOP
2139   3A60 00                  NOP
2140   3A61 00                  NOP
2141   3A62 00                  NOP
2142   3A63 00                  NOP
2143   3A64 00                  NOP
2144   3A65 00                  NOP
2145   3A66 00                  NOP
2146   3A67 00                  NOP
2147   3A68 00                  NOP
2148   3A69 00                  NOP
2149   3A6A 00                  NOP
2150   3A6B 00                  NOP
2151   3A6C 00                  NOP
2152   3A6D 00                  NOP
2153   3A6E 00                  NOP
2154   3A6F 00                  NOP
2155   3A70 00                  NOP
2156   3A71 00                  NOP
2157   3A72 00                  NOP
2158   3A73 00                  NOP
2159   3A74 00                  NOP
2160   3A75 00                  NOP
2161   3A76 00                  NOP
2162   3A77 00                  NOP
2163   3A78 00                  NOP
2164   3A79 00                  NOP
2165   3A7A 00                  NOP
2166   3A7B 00                  NOP
2167   3A7C 00                  NOP
2168   3A7D 00                  NOP
2169   3A7E 00                  NOP
2170   3A7F 00                  NOP
2171   3A80 00                  NOP
2172   3A81 00                  NOP
2173   3A82 00                  NOP
2174   3A83 00                  NOP
2175   3A84 00                  NOP
2176   3A85 00                  NOP
2177   3A86 00                  NOP
2178   3A87 00                  NOP
2179   3A88 00                  NOP
2180   3A89 00                  NOP
2181   3A8A 00                  NOP
2182   3A8B 00                  NOP
2183   3A8C 00                  NOP
2184   3A8D 00                  NOP
2185   3A8E 00                  NOP
2186   3A8F 00                  NOP
2187   3A90 00                  NOP
2188   3A91 00                  NOP
2189   3A92 00                  NOP
2190   3A93 00                  NOP
2191   3A94 00                  NOP
2192   3A95 00                  NOP
2193   3A96 00                  NOP
2194   3A97 00                  NOP
2195   3A98 00                  NOP
2196   3A99 00                  NOP
2197   3A9A 00                  NOP
2198   3A9B 00                  NOP
2199   3A9C 00                  NOP
2200   3A9D 00                  NOP
2201   3A9E 00                  NOP
2202   3A9F 00                  NOP
2203   3AA0 00                  NOP
2204   3AA1 00                  NOP
2205   3AA2 00                  NOP
2206   3AA3 00                  NOP
2207   3AA4 00                  NOP
2208   3AA5 00                  NOP
2209   3AA6 00                  NOP
2210   3AA7 00                  NOP
2211   3AA8 00                  NOP
2212   3AA9 00                  NOP
2213   3AAA 00                  NOP
2214   3AAB 00                  NOP
2215   3AAC 00                  NOP
2216   3AAD 00                  NOP
2217   3AAE 00                  NOP
2218   3AAF 00                  NOP
2219   3AB0 00                  NOP
2220   3AB1 00                  NOP
2221   3AB2 00                  NOP
2222   3AB3 00                  NOP
2223   3AB4 00                  NOP
2224   3AB5 00                  NOP
2225   3AB6 00                  NOP
2226   3AB7 00                  NOP
2227   3AB8 00                  NOP
2228   3AB9 00                  NOP
2229   3ABA 00                  NOP
2230   3ABB 00                  NOP
2231   3ABC 00                  NOP
2232   3ABD 00                  NOP
2233   3ABE 00                  NOP
2234   3ABF 00                  NOP
2235   3AC0 00                  NOP
2236   3AC1 00                  NOP
2237   3AC2 00                  NOP
2238   3AC3 00                  NOP
2239   3AC4 00                  NOP
2240   3AC5 00                  NOP
2241   3AC6 00                  NOP
2242   3AC7 00                  NOP
2243   3AC8 00                  NOP
2244   3AC9 00                  NOP
2245   3ACA 00                  NOP
2246   3ACB 00                  NOP
2247   3ACC 00                  NOP
2248   3ACD 00                  NOP
2249   3ACE 00                  NOP
2250   3ACF 00                  NOP
2251   3AD0 00                  NOP
2252   3AD1 00                  NOP
2253   3AD2 00                  NOP
2254   3AD3 00                  NOP
2255   3AD4 00                  NOP
2256   3AD5 00                  NOP
2257   3AD6 00                  NOP
2258   3AD7 00                  NOP
2259   3AD8 00                  NOP
2260   3AD9 00                  NOP
2261   3ADA 00                  NOP
2262   3ADB 00                  NOP
2263   3ADC 00                  NOP
2264   3ADD 00                  NOP
2265   3ADE 00                  NOP
2266   3ADF 00                  NOP
2267   3AE0 00                  NOP
2268   3AE1 00                  NOP
2269   3AE2 00                  NOP
2270   3AE3 00                  NOP
2271   3AE4 00                  NOP
2272   3AE5 00                  NOP
2273   3AE6 00                  NOP
2274   3AE7 00                  NOP
2275   3AE8 00                  NOP
2276   3AE9 00                  NOP
2277   3AEA 00                  NOP
2278   3AEB 00                  NOP
2279   3AEC 00                  NOP
2280   3AED 00                  NOP
2281   3AEE 00                  NOP
2282   3AEF 00                  NOP
2283   3AF0 00                  NOP
2284   3AF1 00                  NOP
2285   3AF2 00                  NOP
2286   3AF3 00                  NOP
2287   3AF4 00                  NOP
2288   3AF5 00                  NOP
2289   3AF6 00                  NOP
2290   3AF7 00                  NOP
2291   3AF8 00                  NOP
2292   3AF9 00                  NOP
2293   3AFA 00                  NOP
2294   3AFB 00                  NOP
2295   3AFC 00                  NOP
2296   3AFD 00                  NOP
2297   3AFE 00                  NOP
2298   3AFF 00                  NOP
2299   3B00 00                  NOP
2300   3B01 00                  NOP
2301   3B02 00                  NOP
2302   3B03 00                  NOP
2303   3B04 00                  NOP
2304   3B05 00                  NOP
2305   3B06 00                  NOP
2306   3B07 00                  NOP
2307   3B08 00                  NOP
2308   3B09 00                  NOP
2309   3B0A 00                  NOP
2310   3B0B 00                  NOP
2311   3B0C 00                  NOP
2312   3B0D 00                  NOP
2313   3B0E 00                  NOP
2314   3B0F 00                  NOP
2315   3B10 00                  NOP
2316   3B11 00                  NOP
2317   3B12 00                  NOP
2318   3B13 00                  NOP
2319   3B14 00                  NOP
2320   3B15 00                  NOP
2321   3B16 00                  NOP
2322   3B17 00                  NOP
2323   3B18 00                  NOP
2324   3B19 00                  NOP
2325   3B1A 00                  NOP
2326   3B1B 00                  NOP
2327   3B1C 00                  NOP
2328   3B1D 00                  NOP
2329   3B1E 00                  NOP
2330   3B1F 00                  NOP
2331   3B20 00                  NOP
2332   3B21 00                  NOP
2333   3B22 00                  NOP
2334   3B23 00                  NOP
2335   3B24 00                  NOP
2336   3B25 00                  NOP
2337   3B26 00                  NOP
2338   3B27 00                  NOP
2339   3B28 00                  NOP
2340   3B29 00                  NOP
2341   3B2A 00                  NOP
2342   3B2B 00                  NOP
2343   3B2C 00                  NOP
2344   3B2D 00                  NOP
2345   3B2E 00                  NOP
2346   3B2F 00                  NOP
2347   3B30 00                  NOP
2348   3B31 00                  NOP
2349   3B32 00                  NOP
2350   3B33 00                  NOP
2351   3B34 00                  NOP
2352   3B35 00                  NOP
2353   3B36 00                  NOP
2354   3B37 00                  NOP
2355   3B38 00                  NOP
2356   3B39 00                  NOP
2357   3B3A 00                  NOP
2358   3B3B 00                  NOP
2359   3B3C 00                  NOP
2360   3B3D 00                  NOP
2361   3B3E 00                  NOP
2362   3B3F 00                  NOP
2363   3B40 00                  NOP
2364   3B41 00                  NOP
2365   3B42 00                  NOP
2366   3B43 00                  NOP
2367   3B44 00                  NOP
2368   3B45 00                  NOP
2369   3B46 00                  NOP
2370   3B47 00                  NOP
2371   3B48 00                  NOP
2372   3B49 00                  NOP
2373   3B4A 00                  NOP
2374   3B4B 00                  NOP
2375   3B4C 00                  NOP
2376   3B4D 00                  NOP
2377   3B4E 00                  NOP
2378   3B4F 00                  NOP
2379   3B50 00                  NOP
2380   3B51 00                  NOP
2381   3B52 00                  NOP
2382   3B53 00                  NOP
2383   3B54 00                  NOP
2384   3B55 00                  NOP
2385   3B56 00                  NOP
2386   3B57 00                  NOP
2387   3B58 00                  NOP
2388   3B59 00                  NOP
2389   3B5A 00                  NOP
2390   3B5B 00                  NOP
2391   3B5C 00                  NOP
2392   3B5D 00                  NOP
2393   3B5E 00                  NOP
2394   3B5F 00                  NOP
2395   3B60 00                  NOP
2396   3B61 00                  NOP
2397   3B62 00                  NOP
2398   3B63 00                  NOP
2399   3B64 00                  NOP
2400   3B65 00                  NOP
2401   3B66 00                  NOP
2402   3B67 00                  NOP
2403   3B68 00                  NOP
2404   3B69 00                  NOP
2405   3B6A 00                  NOP
2406   3B6B 00                  NOP
2407   3B6C 00                  NOP
2408   3B6D 00                  NOP
2409   3B6E 00                  NOP
2410   3B6F 00                  NOP
2411   3B70 00                  NOP
2412   3B71 00                  NOP
2413   3B72 00                  NOP
2414   3B73 00                  NOP
2415   3B74 00                  NOP
2416   3B75 00                  NOP
2417   3B76 00                  NOP
2418   3B77 00                  NOP
2419   3B78 00                  NOP
2420   3B79 00                  NOP
2421   3B7A 00                  NOP
2422   3B7B 00                  NOP
2423   3B7C 00                  NOP
2424   3B7D 00                  NOP
2425   3B7E 00                  NOP
2426   3B7F 00                  NOP
2427   3B80 00                  NOP
2428   3B81 00                  NOP
2429   3B82 00                  NOP
2430   3B83 00                  NOP
2431   3B84 00                  NOP
2432   3B85 00                  NOP
2433   3B86 00                  NOP
2434   3B87 00                  NOP
2435   3B88 00                  NOP
2436   3B89 00                  NOP
2437   3B8A 00                  NOP
2438   3B8B 00                  NOP
2439   3B8C 00                  NOP
2440   3B8D 00                  NOP
2441   3B8E 00                  NOP
2442   3B8F 00                  NOP
2443   3B90 00                  NOP
2444   3B91 00                  NOP
2445   3B92 00                  NOP
2446   3B93 00                  NOP
2447   3B94 00                  NOP
2448   3B95 00                  NOP
2449   3B96 00                  NOP
2450   3B97 00                  NOP
2451   3B98 00                  NOP
2452   3B99 00                  NOP
2453   3B9A 00                  NOP
2454   3B9B 00                  NOP
2455   3B9C 00                  NOP
2456   3B9D 00                  NOP
2457   3B9E 00                  NOP
2458   3B9F 00                  NOP
2459   3BA0 00                  NOP
2460   3BA1 00                  NOP
2461   3BA2 00                  NOP
2462   3BA3 00                  NOP
2463   3BA4 00                  NOP
2464   3BA5 00                  NOP
2465   3BA6 00                  NOP
2466   3BA7 00                  NOP
2467   3BA8 00                  NOP
2468   3BA9 00                  NOP
2469   3BAA 00                  NOP
2470   3BAB 00                  NOP
2471   3BAC 00                  NOP
2472   3BAD 00                  NOP
2473   3BAE 00                  NOP
2474   3BAF 00                  NOP
2475   3BB0 00                  NOP
2476   3BB1 00                  NOP
2477   3BB2 00                  NOP
2478   3BB3 00                  NOP
2479   3BB4 00                  NOP
2480   3BB5 00                  NOP
2481   3BB6 00                  NOP
2482   3BB7 00                  NOP
2483   3BB8 00                  NOP
2484   3BB9 00                  NOP
2485   3BBA 00                  NOP
2486   3BBB 00                  NOP
2487   3BBC 00                  NOP
2488   3BBD 00                  NOP
2489   3BBE 00                  NOP
2490   3BBF 00                  NOP
2491   3BC0 00                  NOP
2492   3BC1 00                  NOP
2493   3BC2 00                  NOP
2494   3BC3 00                  NOP
2495   3BC4 00                  NOP
2496   3BC5 00                  NOP
2497   3BC6 00                  NOP
2498   3BC7 00                  NOP
2499   3BC8 00                  NOP
2500   3BC9 00                  NOP
2501   3BCA 00                  NOP
2502   3BCB 00                  NOP
2503   3BCC 00                  NOP
2504   3BCD 00                  NOP
2505   3BCE 00                  NOP
2506   3BCF 00                  NOP
2507   3BD0 00                  NOP
2508   3BD1 00                  NOP
2509   3BD2 00                  NOP
2510   3BD3 00                  NOP
2511   3BD4 00                  NOP
2512   3BD5 00                  NOP
2513   3BD6 00                  NOP
2514   3BD7 00                  NOP
2515   3BD8 00                  NOP
2516   3BD9 00                  NOP
2517   3BDA 00                  NOP
2518   3BDB 00                  NOP
2519   3BDC 00                  NOP
2520   3BDD 00                  NOP
2521   3BDE 00                  NOP
2522   3BDF 00                  NOP
2523   3BE0 00                  NOP
2524   3BE1 00                  NOP
2525   3BE2 00                  NOP
2526   3BE3 00                  NOP
2527   3BE4 00                  NOP
2528   3BE5 00                  NOP
2529   3BE6 00                  NOP
2530   3BE7 00                  NOP
2531   3BE8 00                  NOP
2532   3BE9 00                  NOP
2533   3BEA 00                  NOP
2534   3BEB 00                  NOP
2535   3BEC 00                  NOP
2536   3BED 00                  NOP
2537   3BEE 00                  NOP
2538   3BEF 00                  NOP
2539   3BF0 00                  NOP
2540   3BF1 00                  NOP
2541   3BF2 00                  NOP
2542   3BF3 00                  NOP
2543   3BF4 00                  NOP
2544   3BF5 00                  NOP
2545   3BF6 00                  NOP
2546   3BF7 00                  NOP
2547   3BF8 00                  NOP
2548   3BF9 00                  NOP
2549   3BFA 00                  NOP
2550   3BFB 00                  NOP
2551   3BFC 00                  NOP
2552   3BFD 00                  NOP
2553   3BFE 00                  NOP
2554   3BFF 00                  NOP
2555   3C00 00                  NOP
2556   3C01 00                  NOP
2557   3C02 00                  NOP
2558   3C03 00                  NOP
2559   3C04 00                  NOP
2560   3C05 00                  NOP
2561   3C06 00                  NOP
2562   3C07 00                  NOP
2563   3C08 00                  NOP
2564   3C09 00                  NOP
2565   3C0A 00                  NOP
2566   3C0B 00                  NOP
2567   3C0C 00                  NOP
2568   3C0D 00                  NOP
2569   3C0E 00                  NOP
2570   3C0F 00                  NOP
2571   3C10 00                  NOP
2572   3C11 00                  NOP
2573   3C12 00                  NOP
2574   3C13 00                  NOP
2575   3C14 00                  NOP
2576   3C15 00                  NOP
2577   3C16 00                  NOP
2578   3C17 00                  NOP
2579   3C18 00                  NOP
2580   3C19 00                  NOP
2581   3C1A 00                  NOP
2582   3C1B 00                  NOP
2583   3C1C 00                  NOP
2584   3C1D 00                  NOP
2585   3C1E 00                  NOP
2586   3C1F 00                  NOP
2587   3C20 00                  NOP
2588   3C21 00                  NOP
2589   3C22 00                  NOP
2590   3C23 00                  NOP
2591   3C24 00                  NOP
2592   3C25 00                  NOP
2593   3C26 00                  NOP
2594   3C27 00                  NOP
2595   3C28 00                  NOP
2596   3C29 00                  NOP
2597   3C2A 00                  NOP
2598   3C2B 00                  NOP
2599   3C2C 00                  NOP
2600   3C2D 00                  NOP
2601   3C2E 00                  NOP
2602   3C2F 00                  NOP
2603   3C30 00                  NOP
2604   3C31 00                  NOP
2605   3C32 00                  NOP
2606   3C33 00                  NOP
2607   3C34 00                  NOP
2608   3C35 00                  NOP
2609   3C36 00                  NOP
2610   3C37 00                  NOP
2611   3C38 00                  NOP
2612   3C39 00                  NOP
2613   3C3A 00                  NOP
2614   3C3B 00                  NOP
2615   3C3C 00                  NOP
2616   3C3D 00                  NOP
2617   3C3E 00                  NOP
2618   3C3F 00                  NOP
2619   3C40 00                  NOP
2620   3C41 00                  NOP
2621   3C42 00                  NOP
2622   3C43 00                  NOP
2623   3C44 00                  NOP
2624   3C45 00                  NOP
2625   3C46 00                  NOP
2626   3C47 00                  NOP
2627   3C48 00                  NOP
2628   3C49 00                  NOP
2629   3C4A 00                  NOP
2630   3C4B 00                  NOP
2631   3C4C 00                  NOP
2632   3C4D 00                  NOP
2633   3C4E 00                  NOP
2634   3C4F 00                  NOP
2635   3C50 00                  NOP
2636   3C51 00                  NOP
2637   3C52 00                  NOP
2638   3C53 00                  NOP
2639   3C54 00                  NOP
2640   3C55 00                  NOP
2641   3C56 00                  NOP
2642   3C57 00                  NOP
2643   3C58 00                  NOP
2644   3C59 00                  NOP
2645   3C5A 00                  NOP
2646   3C5B 00                  NOP
2647   3C5C 00                  NOP
2648   3C5D 00                  NOP
2649   3C5E 00                  NOP
2650   3C5F 00                  NOP
2651   3C60 00                  NOP
2652   3C61 00                  NOP
2653   3C62 00                  NOP
2654   3C63 00                  NOP
2655   3C64 00                  NOP
2656   3C65 00                  NOP
2657   3C66 00                  NOP
2658   3C67 00                  NOP
2659   3C68 00                  NOP
2660   3C69 00                  NOP
2661   3C6A 00                  NOP
2662   3C6B 00                  NOP
2663   3C6C 00                  NOP
2664   3C6D 00                  NOP
2665   3C6E 00                  NOP
2666   3C6F 00                  NOP
2667   3C70 00                  NOP
2668   3C71 00                  NOP
2669   3C72 00                  NOP
2670   3C73 00                  NOP
2671   3C74 00                  NOP
2672   3C75 00                  NOP
2673   3C76 00                  NOP
2674   3C77 00                  NOP
2675   3C78 00                  NOP
2676   3C79 00                  NOP
2677   3C7A 00                  NOP
2678   3C7B 00                  NOP
2679   3C7C 00                  NOP
2680   3C7D 00                  NOP
2681   3C7E 00                  NOP
2682   3C7F 00                  NOP
2683   3C80 00                  NOP
2684   3C81 00                  NOP
2685   3C82 00                  NOP
2686   3C83 00                  NOP
2687   3C84 00                  NOP
2688   3C85 00                  NOP
2689   3C86 00                  NOP
2690   3C87 00                  NOP
2691   3C88 00                  NOP
2692   3C89 00                  NOP
2693   3C8A 00                  NOP
2694   3C8B 00                  NOP
2695   3C8C 00                  NOP
2696   3C8D 00                  NOP
2697   3C8E 00                  NOP
2698   3C8F 00                  NOP
2699   3C90 00                  NOP
2700   3C91 00                  NOP
2701   3C92 00                  NOP
2702   3C93 00                  NOP
2703   3C94 00                  NOP
2704   3C95 00                  NOP
2705   3C96 00                  NOP
2706   3C97 00                  NOP
2707   3C98 00                  NOP
2708   3C99 00                  NOP
2709   3C9A 00                  NOP
2710   3C9B 00                  NOP
2711   3C9C 00                  NOP
2712   3C9D 00                  NOP
2713   3C9E 00                  NOP
2714   3C9F 00                  NOP
2715   3CA0 00                  NOP
2716   3CA1 00                  NOP
2717   3CA2 00                  NOP
2718   3CA3 00                  NOP
2719   3CA4 00                  NOP
2720   3CA5 00                  NOP
2721   3CA6 00                  NOP
2722   3CA7 00                  NOP
2723   3CA8 00                  NOP
2724   3CA9 00                  NOP
2725   3CAA 00                  NOP
2726   3CAB 00                  NOP
2727   3CAC 00                  NOP
2728   3CAD 00                  NOP
2729   3CAE 00                  NOP
2730   3CAF 00                  NOP
2731   3CB0 00                  NOP
2732   3CB1 00                  NOP
2733   3CB2 00                  NOP
2734   3CB3 00                  NOP
2735   3CB4 00                  NOP
2736   3CB5 00                  NOP
2737   3CB6 00                  NOP
2738   3CB7 00                  NOP
2739   3CB8 00                  NOP
2740   3CB9 00                  NOP
2741   3CBA 00                  NOP
2742   3CBB 00                  NOP
2743   3CBC 00                  NOP
2744   3CBD 00                  NOP
2745   3CBE 00                  NOP
2746   3CBF 00                  NOP
2747   3CC0 00                  NOP
2748   3CC1 00                  NOP
2749   3CC2 00                  NOP
2750   3CC3 00                  NOP
2751   3CC4 00                  NOP
2752   3CC5 00                  NOP
2753   3CC6 00                  NOP
2754   3CC7 00                  NOP
2755   3CC8 00                  NOP
2756   3CC9 00                  NOP
2757   3CCA 00                  NOP
2758   3CCB 00                  NOP
2759   3CCC 00                  NOP
2760   3CCD 00                  NOP
2761   3CCE 00                  NOP
2762   3CCF 00                  NOP
2763   3CD0 00                  NOP
2764   3CD1 00                  NOP
2765   3CD2 00                  NOP
2766   3CD3 00                  NOP
2767   3CD4 00                  NOP
2768   3CD5 00                  NOP
2769   3CD6 00                  NOP
2770   3CD7 00                  NOP
2771   3CD8 00                  NOP
2772   3CD9 00                  NOP
2773   3CDA 00                  NOP
2774   3CDB 00                  NOP
2775   3CDC 00                  NOP
2776   3CDD 00                  NOP
2777   3CDE 00                  NOP
2778   3CDF 00                  NOP
2779   3CE0 00                  NOP
2780   3CE1 00                  NOP
2781   3CE2 00                  NOP
2782   3CE3 00                  NOP
2783   3CE4 00                  NOP
2784   3CE5 00                  NOP
2785   3CE6 00                  NOP
2786   3CE7 00                  NOP
2787   3CE8 00                  NOP
2788   3CE9 00                  NOP
2789   3CEA 00                  NOP
2790   3CEB 00                  NOP
2791   3CEC 00                  NOP
2792   3CED 00                  NOP
2793   3CEE 00                  NOP
2794   3CEF 00                  NOP
2795   3CF0 00                  NOP
2796   3CF1 00                  NOP
2797   3CF2 00                  NOP
2798   3CF3 00                  NOP
2799   3CF4 00                  NOP
2800   3CF5 00                  NOP
2801   3CF6 00                  NOP
2802   3CF7 00                  NOP
2803   3CF8 00                  NOP
2804   3CF9 00                  NOP
2805   3CFA 00                  NOP
2806   3CFB 00                  NOP
2807   3CFC 00                  NOP
2808   3CFD 00                  NOP
2809   3CFE 00                  NOP
2810   3CFF 00                  NOP
2811   3D00 00                  NOP
2812   3D01 00                  NOP
2813   3D02 00                  NOP
2814   3D03 00                  NOP
2815   3D04 00                  NOP
2816   3D05 00                  NOP
2817   3D06 00                  NOP
2818   3D07 00                  NOP
2819   3D08 00                  NOP
2820   3D09 00                  NOP
2821   3D0A 00                  NOP
2822   3D0B 00                  NOP
2823   3D0C 00                  NOP
2824   3D0D 00                  NOP
2825   3D0E 00                  NOP
2826   3D0F 00                  NOP
2827   3D10 00                  NOP
2828   3D11 00                  NOP
2829   3D12 00                  NOP
2830   3D13 00                  NOP
2831   3D14 00                  NOP
2832   3D15 00                  NOP
2833   3D16 00                  NOP
2834   3D17 00                  NOP
2835   3D18 00                  NOP
2836   3D19 00                  NOP
2837   3D1A 00                  NOP
2838   3D1B 00                  NOP
2839   3D1C 00                  NOP
2840   3D1D 00                  NOP
2841   3D1E 00                  NOP
2842   3D1F 00                  NOP
2843   3D20 00                  NOP
2844   3D21 00                  NOP
2845   3D22 00                  NOP
2846   3D23 00                  NOP
2847   3D24 00                  NOP
2848   3D25 00                  NOP
2849   3D26 00                  NOP
2850   3D27 00                  NOP
2851   3D28 00                  NOP
2852   3D29 00                  NOP
2853   3D2A 00                  NOP
2854   3D2B 00                  NOP
2855   3D2C 00                  NOP
2856   3D2D 00                  NOP
2857   3D2E 00                  NOP
2858   3D2F 00                  NOP
2859   3D30 00                  NOP
2860   3D31 00                  NOP
2861   3D32 00                  NOP
2862   3D33 00                  NOP
2863   3D34 00                  NOP
2864   3D35 00                  NOP
2865   3D36 00                  NOP
2866   3D37 00                  NOP
2867   3D38 00                  NOP
2868   3D39 00                  NOP
2869   3D3A 00                  NOP
2870   3D3B 00                  NOP
2871   3D3C 00                  NOP
2872   3D3D 00                  NOP
2873   3D3E 00                  NOP
2874   3D3F 00                  NOP
2875   3D40 00                  NOP
2876   3D41 00                  NOP
2877   3D42 00                  NOP
2878   3D43 00                  NOP
2879   3D44 00                  NOP
2880   3D45 00                  NOP
2881   3D46 00                  NOP
2882   3D47 00                  NOP
2883   3D48 00                  NOP
2884   3D49 00                  NOP
2885   3D4A 00                  NOP
2886   3D4B 00                  NOP
2887   3D4C 00                  NOP
2888   3D4D 00                  NOP
2889   3D4E 00                  NOP
2890   3D4F 00                  NOP
2891   3D50 00                  NOP
2892   3D51 00                  NOP
2893   3D52 00                  NOP
2894   3D53 00                  NOP
2895   3D54 00                  NOP
2896   3D55 00                  NOP
2897   3D56 00                  NOP
2898   3D57 00                  NOP
2899   3D58 00                  NOP
2900   3D59 00                  NOP
2901   3D5A 00                  NOP
2902   3D5B 00                  NOP
2903   3D5C 00                  NOP
2904   3D5D 00                  NOP
2905   3D5E 00                  NOP
2906   3D5F 00                  NOP
2907   3D60 00                  NOP
2908   3D61 00                  NOP
2909   3D62 00                  NOP
2910   3D63 00                  NOP
2911   3D64 00                  NOP
2912   3D65 00                  NOP
2913   3D66 00                  NOP
2914   3D67 00                  NOP
2915   3D68 00                  NOP
2916   3D69 00                  NOP
2917   3D6A 00                  NOP
2918   3D6B 00                  NOP
2919   3D6C 00                  NOP
2920   3D6D 00                  NOP
2921   3D6E 00                  NOP
2922   3D6F 00                  NOP
2923   3D70 00                  NOP
2924   3D71 00                  NOP
2925   3D72 00                  NOP
2926   3D73 00                  NOP
2927   3D74 00                  NOP
2928   3D75 00                  NOP
2929   3D76 00                  NOP
2930   3D77 00                  NOP
2931   3D78 00                  NOP
2932   3D79 00                  NOP
2933   3D7A 00                  NOP
2934   3D7B 00                  NOP
2935   3D7C 00                  NOP
2936   3D7D 00                  NOP
2937   3D7E 00                  NOP
2938   3D7F 00                  NOP
2939   3D80 00                  NOP
2940   3D81 00                  NOP
2941   3D82 00                  NOP
2942   3D83 00                  NOP
2943   3D84 00                  NOP
2944   3D85 00                  NOP
2945   3D86 00                  NOP
2946   3D87 00                  NOP
2947   3D88 00                  NOP
2948   3D89 00                  NOP
2949   3D8A 00                  NOP
2950   3D8B 00                  NOP
2951   3D8C 00                  NOP
2952   3D8D 00                  NOP
2953   3D8E 00                  NOP
2954   3D8F 00                  NOP
2955   3D90 00                  NOP
2956   3D91 00                  NOP
2957   3D92 00                  NOP
2958   3D93 00                  NOP
2959   3D94 00                  NOP
2960   3D95 00                  NOP
2961   3D96 00                  NOP
2962   3D97 00                  NOP
2963   3D98 00                  NOP
2964   3D99 00                  NOP
2965   3D9A 00                  NOP
2966   3D9B 00                  NOP
2967   3D9C 00                  NOP
2968   3D9D 00                  NOP
2969   3D9E 00                  NOP
2970   3D9F 00                  NOP
2971   3DA0 00                  NOP
2972   3DA1 00                  NOP
2973   3DA2 00                  NOP
2974   3DA3 00                  NOP
2975   3DA4 00                  NOP
2976   3DA5 00                  NOP
2977   3DA6 00                  NOP
2978   3DA7 00                  NOP
2979   3DA8 00                  NOP
2980   3DA9 00                  NOP
2981   3DAA 00                  NOP
2982   3DAB 00                  NOP
2983   3DAC 00                  NOP
2984   3DAD 00                  NOP
2985   3DAE 00                  NOP
2986   3DAF 00                  NOP
2987   3DB0 00                  NOP
2988   3DB1 00                  NOP
2989   3DB2 00                  NOP
2990   3DB3 00                  NOP
2991   3DB4 00                  NOP
2992   3DB5 00                  NOP
2993   3DB6 00                  NOP
2994   3DB7 00                  NOP
2995   3DB8 00                  NOP
2996   3DB9 00                  NOP
2997   3DBA 00                  NOP
2998   3DBB 00                  NOP
2999   3DBC 00                  NOP
3000   3DBD 00                  NOP
3001   3DBE 00                  NOP
3002   3DBF 00                  NOP
3003   3DC0 00                  NOP
3004   3DC1 00                  NOP
3005   3DC2 00                  NOP
3006   3DC3 00                  NOP
3007   3DC4 00                  NOP
3008   3DC5 00                  NOP
3009   3DC6 00                  NOP
3010   3DC7 00                  NOP
3011   3DC8 00                  NOP
3012   3DC9 00                  NOP
3013   3DCA 00                  NOP
3014   3DCB 00                  NOP
3015   3DCC 00                  NOP
3016   3DCD 00                  NOP
3017   3DCE 00                  NOP
3018   3DCF 00                  NOP
3019   3DD0 00                  NOP
3020   3DD1 00                  NOP
3021   3DD2 00                  NOP
3022   3DD3 00                  NOP
3023   3DD4 00                  NOP
3024   3DD5 00                  NOP
3025   3DD6 00                  NOP
3026   3DD7 00                  NOP
3027   3DD8 00                  NOP
3028   3DD9 00                  NOP
3029   3DDA 00                  NOP
3030   3DDB 00                  NOP
3031   3DDC 00                  NOP
3032   3DDD 00                  NOP
3033   3DDE 00                  NOP
3034   3DDF 00                  NOP
3035   3DE0 00                  NOP
3036   3DE1 00                  NOP
3037   3DE2 00                  NOP
3038   3DE3 00                  NOP
3039   3DE4 00                  NOP
3040   3DE5 00                  NOP
3041   3DE6 00                  NOP
3042   3DE7 00                  NOP
3043   3DE8 00                  NOP
3044   3DE9 00                  NOP
3045   3DEA 00                  NOP
3046   3DEB 00                  NOP
3047   3DEC 00                  NOP
3048   3DED 00                  NOP
3049   3DEE 00                  NOP
3050   3DEF 00                  NOP
3051   3DF0 00                  NOP
3052   3DF1 00                  NOP
3053   3DF2 00                  NOP
3054   3DF3 00                  NOP
3055   3DF4 00                  NOP
3056   3DF5 00                  NOP
3057   3DF6 00                  NOP
3058   3DF7 00                  NOP
3059   3DF8 00                  NOP
3060   3DF9 00                  NOP
3061   3DFA 00                  NOP
3062   3DFB 00                  NOP
3063   3DFC 00                  NOP
3064   3DFD 00                  NOP
3065   3DFE 00                  NOP
3066   3DFF 00                  NOP
3067   3E00 00                  NOP
3068   3E01 00                  NOP
3069   3E02 00                  NOP
3070   3E03 00                  NOP
3071   3E04 00                  NOP
3072   3E05 00                  NOP
3073   3E06 00                  NOP
3074   3E07 00                  NOP
3075   3E08 00                  NOP
3076   3E09 00                  NOP
3077   3E0A 00                  NOP
3078   3E0B 00                  NOP
3079   3E0C 00                  NOP
3080   3E0D 00                  NOP
3081   3E0E 00                  NOP
3082   3E0F 00                  NOP
3083   3E10 00                  NOP
3084   3E11 00                  NOP
3085   3E12 00                  NOP
3086   3E13 00                  NOP
3087   3E14 00                  NOP
3088   3E15 00                  NOP
3089   3E16 00                  NOP
3090   3E17 00                  NOP
3091   3E18 00                  NOP
3092   3E19 00                  NOP
3093   3E1A 00                  NOP
3094   3E1B 00                  NOP
3095   3E1C 00                  NOP
3096   3E1D 00                  NOP
3097   3E1E 00                  NOP
3098   3E1F 00                  NOP
3099   3E20 00                  NOP
3100   3E21 00                  NOP
3101   3E22 00                  NOP
3102   3E23 00                  NOP
3103   3E24 00                  NOP
3104   3E25 00                  NOP
3105   3E26 00                  NOP
3106   3E27 00                  NOP
3107   3E28 00                  NOP
3108   3E29 00                  NOP
3109   3E2A 00                  NOP
3110   3E2B 00                  NOP
3111   3E2C 00                  NOP
3112   3E2D 00                  NOP
3113   3E2E 00                  NOP
3114   3E2F 00                  NOP
3115   3E30 00                  NOP
3116   3E31 00                  NOP
3117   3E32 00                  NOP
3118   3E33 00                  NOP
3119   3E34 00                  NOP
3120   3E35 00                  NOP
3121   3E36 00                  NOP
3122   3E37 00                  NOP
3123   3E38 00                  NOP
3124   3E39 00                  NOP
3125   3E3A 00                  NOP
3126   3E3B 00                  NOP
3127   3E3C 00                  NOP
3128   3E3D 00                  NOP
3129   3E3E 00                  NOP
3130   3E3F 00                  NOP
3131   3E40 00                  NOP
3132   3E41 00                  NOP
3133   3E42 00                  NOP
3134   3E43 00                  NOP
3135   3E44 00                  NOP
3136   3E45 00                  NOP
3137   3E46 00                  NOP
3138   3E47 00                  NOP
3139   3E48 00                  NOP
3140   3E49 00                  NOP
3141   3E4A 00                  NOP
3142   3E4B 00                  NOP
3143   3E4C 00                  NOP
3144   3E4D 00                  NOP
3145   3E4E 00                  NOP
3146   3E4F 00                  NOP
3147   3E50 00                  NOP
3148   3E51 00                  NOP
3149   3E52 00                  NOP
3150   3E53 00                  NOP
3151   3E54 00                  NOP
3152   3E55 00                  NOP
3153   3E56 00                  NOP
3154   3E57 00                  NOP
3155   3E58 00                  NOP
3156   3E59 00                  NOP
3157   3E5A 00                  NOP
3158   3E5B 00                  NOP
3159   3E5C 00                  NOP
3160   3E5D 00                  NOP
3161   3E5E 00                  NOP
3162   3E5F 00                  NOP
3163   3E60 00                  NOP
3164   3E61 00                  NOP
3165   3E62 00                  NOP
3166   3E63 00                  NOP
3167   3E64 00                  NOP
3168   3E65 00                  NOP
3169   3E66 00                  NOP
3170   3E67 00                  NOP
3171   3E68 00                  NOP
3172   3E69 00                  NOP
3173   3E6A 00                  NOP
3174   3E6B 00                  NOP
3175   3E6C 00                  NOP
3176   3E6D 00                  NOP
3177   3E6E 00                  NOP
3178   3E6F 00                  NOP
3179   3E70 00                  NOP
3180   3E71 00                  NOP
3181   3E72 00                  NOP
3182   3E73 00                  NOP
3183   3E74 00                  NOP
3184   3E75 00                  NOP
3185   3E76 00                  NOP
3186   3E77 00                  NOP
3187   3E78 00                  NOP
3188   3E79 00                  NOP
3189   3E7A 00                  NOP
3190   3E7B 00                  NOP
3191   3E7C 00                  NOP
3192   3E7D 00                  NOP
3193   3E7E 00                  NOP
3194   3E7F 00                  NOP
3195   3E80 00                  NOP
3196   3E81 00                  NOP
3197   3E82 00                  NOP
3198   3E83 00                  NOP
3199   3E84 00                  NOP
3200   3E85 00                  NOP
3201   3E86 00                  NOP
3202   3E87 00                  NOP
3203   3E88 00                  NOP
3204   3E89 00                  NOP
3205   3E8A 00                  NOP
3206   3E8B 00                  NOP
3207   3E8C 00                  NOP
3208   3E8D 00                  NOP
3209   3E8E 00                  NOP
3210   3E8F 00                  NOP
3211   3E90 00                  NOP
3212   3E91 00                  NOP
3213   3E92 00                  NOP
3214   3E93 00                  NOP
3215   3E94 00                  NOP
3216   3E95 00                  NOP
3217   3E96 00                  NOP
3218   3E97 00                  NOP
3219   3E98 00                  NOP
3220   3E99 00                  NOP
3221   3E9A 00                  NOP
3222   3E9B 00                  NOP
3223   3E9C 00                  NOP
3224   3E9D 00                  NOP
3225   3E9E 00                  NOP
3226   3E9F 00                  NOP
3227   3EA0 00                  NOP
3228   3EA1 00                  NOP
3229   3EA2 00                  NOP
3230   3EA3 00                  NOP
3231   3EA4 00                  NOP
3232   3EA5 00                  NOP
3233   3EA6 00                  NOP
3234   3EA7 00                  NOP
3235   3EA8 00                  NOP
3236   3EA9 00                  NOP
3237   3EAA 00                  NOP
3238   3EAB 00                  NOP
3239   3EAC 00                  NOP
3240   3EAD 00                  NOP
3241   3EAE 00                  NOP
3242   3EAF 00                  NOP
3243   3EB0 00                  NOP
3244   3EB1 00                  NOP
3245   3EB2 00                  NOP
3246   3EB3 00                  NOP
3247   3EB4 00                  NOP
3248   3EB5 00                  NOP
3249   3EB6 00                  NOP
3250   3EB7 00                  NOP
3251   3EB8 00                  NOP
3252   3EB9 00                  NOP
3253   3EBA 00                  NOP
3254   3EBB 00                  NOP
3255   3EBC 00                  NOP
3256   3EBD 00                  NOP
3257   3EBE 00                  NOP
3258   3EBF 00                  NOP
3259   3EC0 00                  NOP
3260   3EC1 00                  NOP
3261   3EC2 00                  NOP
3262   3EC3 00                  NOP
3263   3EC4 00                  NOP
3264   3EC5 00                  NOP
3265   3EC6 00                  NOP
3266   3EC7 00                  NOP
3267   3EC8 00                  NOP
3268   3EC9 00                  NOP
3269   3ECA 00                  NOP
3270   3ECB 00                  NOP
3271   3ECC 00                  NOP
3272   3ECD 00                  NOP
3273   3ECE 00                  NOP
3274   3ECF 00                  NOP
3275   3ED0 00                  NOP
3276   3ED1 00                  NOP
3277   3ED2 00                  NOP
3278   3ED3 00                  NOP
3279   3ED4 00                  NOP
3280   3ED5 00                  NOP
3281   3ED6 00                  NOP
3282   3ED7 00                  NOP
3283   3ED8 00                  NOP
3284   3ED9 00                  NOP
3285   3EDA 00                  NOP
3286   3EDB 00                  NOP
3287   3EDC 00                  NOP
3288   3EDD 00                  NOP
3289   3EDE 00                  NOP
3290   3EDF 00                  NOP
3291   3EE0 00                  NOP
3292   3EE1 00                  NOP
3293   3EE2 00                  NOP
3294   3EE3 00                  NOP
3295   3EE4 00                  NOP
3296   3EE5 00                  NOP
3297   3EE6 00                  NOP
3298   3EE7 00                  NOP
3299   3EE8 00                  NOP
3300   3EE9 00                  NOP
3301   3EEA 00                  NOP
3302   3EEB 00                  NOP
3303   3EEC 00                  NOP
3304   3EED 00                  NOP
3305   3EEE 00                  NOP
3306   3EEF 00                  NOP
3307   3EF0 00                  NOP
3308   3EF1 00                  NOP
3309   3EF2 00                  NOP
3310   3EF3 00                  NOP
3311   3EF4 00                  NOP
3312   3EF5 00                  NOP
3313   3EF6 00                  NOP
3314   3EF7 00                  NOP
3315   3EF8 00                  NOP
3316   3EF9 00                  NOP
3317   3EFA 00                  NOP
3318   3EFB 00                  NOP
3319   3EFC 00                  NOP
3320   3EFD 00                  NOP
3321   3EFE 00                  NOP
3322   3EFF 00                  NOP
3323   3F00 00                  NOP
3324   3F01 00                  NOP
3325   3F02 00                  NOP
3326   3F03 00                  NOP
3327   3F04 00                  NOP
3328   3F05 00                  NOP
3329   3F06 00                  NOP
3330   3F07 00                  NOP
3331   3F08 00                  NOP
3332   3F09 00                  NOP
3333   3F0A 00                  NOP
3334   3F0B 00                  NOP
3335   3F0C 00                  NOP
3336   3F0D 00                  NOP
3337   3F0E 00                  NOP
3338   3F0F 00                  NOP
3339   3F10 00                  NOP
3340   3F11 00                  NOP
3341   3F12 00                  NOP
3342   3F13 00                  NOP
3343   3F14 00                  NOP
3344   3F15 00                  NOP
3345   3F16 00                  NOP
3346   3F17 00                  NOP
3347   3F18 00                  NOP
3348   3F19 00                  NOP
3349   3F1A 00                  NOP
3350   3F1B 00                  NOP
3351   3F1C 00                  NOP
3352   3F1D 00                  NOP
3353   3F1E 00                  NOP
3354   3F1F 00                  NOP
3355   3F20 00                  NOP
3356   3F21 00                  NOP
3357   3F22 00                  NOP
3358   3F23 00                  NOP
3359   3F24 00                  NOP
3360   3F25 00                  NOP
3361   3F26 00                  NOP
3362   3F27 00                  NOP
3363   3F28 00                  NOP
3364   3F29 00                  NOP
3365   3F2A 00                  NOP
3366   3F2B 00                  NOP
3367   3F2C 00                  NOP
3368   3F2D 00                  NOP
3369   3F2E 00                  NOP
3370   3F2F 00                  NOP
3371   3F30 00                  NOP
3372   3F31 00                  NOP
3373   3F32 00                  NOP
3374   3F33 00                  NOP
3375   3F34 00                  NOP
3376   3F35 00                  NOP
3377   3F36 00                  NOP
3378   3F37 00                  NOP
3379   3F38 00                  NOP
3380   3F39 00                  NOP
3381   3F3A 00                  NOP
3382   3F3B 00                  NOP
3383   3F3C 00                  NOP
3384   3F3D 00                  NOP
3385   3F3E 00                  NOP
3386   3F3F 00                  NOP
3387   3F40 00                  NOP
3388   3F41 00                  NOP
3389   3F42 00                  NOP
3390   3F43 00                  NOP
3391   3F44 00                  NOP
3392   3F45 00                  NOP
3393   3F46 00                  NOP
3394   3F47 00                  NOP
3395   3F48 00                  NOP
3396   3F49 00                  NOP
3397   3F4A 00                  NOP
3398   3F4B 00                  NOP
3399   3F4C 00                  NOP
3400   3F4D 00                  NOP
3401   3F4E 00                  NOP
3402   3F4F 00                  NOP
3403   3F50 00                  NOP
3404   3F51 00                  NOP
3405   3F52 00                  NOP
3406   3F53 00                  NOP
3407   3F54 00                  NOP
3408   3F55 00                  NOP
3409   3F56 00                  NOP
3410   3F57 00                  NOP
3411   3F58 00                  NOP
3412   3F59 00                  NOP
3413   3F5A 00                  NOP
3414   3F5B 00                  NOP
3415   3F5C 00                  NOP
3416   3F5D 00                  NOP
3417   3F5E 00                  NOP
3418   3F5F 00                  NOP
3419   3F60 00                  NOP
3420   3F61 00                  NOP
3421   3F62 00                  NOP
3422   3F63 00                  NOP
3423   3F64 00                  NOP
3424   3F65 00                  NOP
3425   3F66 00                  NOP
3426   3F67 00                  NOP
3427   3F68 00                  NOP
3428   3F69 00                  NOP
3429   3F6A 00                  NOP
3430   3F6B 00                  NOP
3431   3F6C 00                  NOP
3432   3F6D 00                  NOP
3433   3F6E 00                  NOP
3434   3F6F 00                  NOP
3435   3F70 00                  NOP
3436   3F71 00                  NOP
3437   3F72 00                  NOP
3438   3F73 00                  NOP
3439   3F74 00                  NOP
3440   3F75 00                  NOP
3441   3F76 00                  NOP
3442   3F77 00                  NOP
3443   3F78 00                  NOP
3444   3F79 00                  NOP
3445   3F7A 00                  NOP
3446   3F7B 00                  NOP
3447   3F7C 00                  NOP
3448   3F7D 00                  NOP
3449   3F7E 00                  NOP
3450   3F7F 00                  NOP
3451   3F80 00                  NOP
3452   3F81 00                  NOP
3453   3F82 00                  NOP
3454   3F83 00                  NOP
3455   3F84 00                  NOP
3456   3F85 00                  NOP
3457   3F86 00                  NOP
3458   3F87 00                  NOP
3459   3F88 00                  NOP
3460   3F89 00                  NOP
3461   3F8A 00                  NOP
3462   3F8B 00                  NOP
3463   3F8C 00                  NOP
3464   3F8D 00                  NOP
3465   3F8E 00                  NOP
3466   3F8F 00                  NOP
3467   3F90 00                  NOP
3468   3F91 00                  NOP
3469   3F92 00                  NOP
3470   3F93 00                  NOP
3471   3F94 00                  NOP
3472   3F95 00                  NOP
3473   3F96 00                  NOP
3474   3F97 00                  NOP
3475   3F98 00                  NOP
3476   3F99 00                  NOP
3477   3F9A 00                  NOP
3478   3F9B 00                  NOP
3479   3F9C 00                  NOP
3480   3F9D 00                  NOP
3481   3F9E 00                  NOP
3482   3F9F 00                  NOP
3483   3FA0 00                  NOP
3484   3FA1 00                  NOP
3485   3FA2 00                  NOP
3486   3FA3 00                  NOP
3487   3FA4 00                  NOP
3488   3FA5 00                  NOP
3489   3FA6 00                  NOP
3490   3FA7 00                  NOP
3491   3FA8 00                  NOP
3492   3FA9 00                  NOP
3493   3FAA 00                  NOP
3494   3FAB 00                  NOP
3495   3FAC 00                  NOP
3496   3FAD 00                  NOP
3497   3FAE 00                  NOP
3498   3FAF 00                  NOP
3499   3FB0 00                  NOP
3500   3FB1 00                  NOP
3501   3FB2 00                  NOP
3502   3FB3 00                  NOP
3503   3FB4 00                  NOP
3504   3FB5 00                  NOP
3505   3FB6 00                  NOP
3506   3FB7 00                  NOP
3507   3FB8 00                  NOP
3508   3FB9 00                  NOP
3509   3FBA 00                  NOP
3510   3FBB 00                  NOP
3511   3FBC 00                  NOP
3512   3FBD 00                  NOP
3513   3FBE 00                  NOP
3514   3FBF 00                  NOP
3515   3FC0 00                  NOP
3516   3FC1 00                  NOP
3517   3FC2 00                  NOP
3518   3FC3 00                  NOP
3519   3FC4 00                  NOP
3520   3FC5 00                  NOP
3521   3FC6 00                  NOP
3522   3FC7 00                  NOP
3523   3FC8 00                  NOP
3524   3FC9 00                  NOP
3525   3FCA 00                  NOP
3526   3FCB 00                  NOP
3527   3FCC 00                  NOP
3528   3FCD 00                  NOP
3529   3FCE 00                  NOP
3530   3FCF 00                  NOP
3531   3FD0 00                  NOP
3532   3FD1 00                  NOP
3533   3FD2 00                  NOP
3534   3FD3 00                  NOP
3535   3FD4 00                  NOP
3536   3FD5 00                  NOP
3537   3FD6 00                  NOP
3538   3FD7 00                  NOP
3539   3FD8 00                  NOP
3540   3FD9 00                  NOP
3541   3FDA 00                  NOP
3542   3FDB 00                  NOP
3543   3FDC 00                  NOP
3544   3FDD 00                  NOP
3545   3FDE 00                  NOP
3546   3FDF 00                  NOP
3547   3FE0 00                  NOP
3548   3FE1 00                  NOP
3549   3FE2 00                  NOP
3550   3FE3 00                  NOP
3551   3FE4 00                  NOP
3552   3FE5 00                  NOP
3553   3FE6 00                  NOP
3554   3FE7 00                  NOP
3555   3FE8 00                  NOP
3556   3FE9 00                  NOP
3557   3FEA 00                  NOP
3558   3FEB 00                  NOP
3559   3FEC 00                  NOP
3560   3FED 00                  NOP
3561   3FEE 00                  NOP
3562   3FEF 00                  NOP
3563   3FF0 00                  NOP
3564   3FF1 00                  NOP
3565   3FF2 00                  NOP
3566   3FF3 00                  NOP
3567   3FF4 00                  NOP
3568   3FF5 00                  NOP
3569   3FF6 00                  NOP
3570   3FF7 00                  NOP
3571   3FF8 00                  NOP
3572   3FF9 00                  NOP
3573   3FFA 00                  NOP
3574   3FFB 00                  NOP
3575   3FFC 00                  NOP
3576   3FFD 00                  NOP
3577   3FFE 00                  NOP
3578   3FFF 00                  NOP
3579   4000 00                  NOP
3580   4001 00                  NOP
3581   4002 00                  NOP
3582   4003 00                  NOP
3583   4004 00                  NOP
3584   4005 00                  NOP
3585   4006 00                  NOP
3586   4007 00                  NOP
3587   4008 00                  NOP
3588   4009 00                  NOP
3589   400A 00                  NOP
3590   400B 00                  NOP
3591   400C 00                  NOP
3592   400D 00                  NOP
3593   400E 00                  NOP
3594   400F 00                  NOP
3595   4010 00                  NOP
3596   4011 00                  NOP
3597   4012 00                  NOP
3598   4013 00                  NOP
3599   4014 00                  NOP
3600   4015 00                  NOP
3601   4016 00                  NOP
3602   4017 00                  NOP
3603   4018 00                  NOP
3604   4019 00                  NOP
3605   401A 00                  NOP
3606   401B 00                  NOP
3607   401C 00                  NOP
3608   401D 00                  NOP
3609   401E 00                  NOP
3610   401F 00                  NOP
3611   4020 00                  NOP
3612   4021 00                  NOP
3613   4022 00                  NOP
3614   4023 00                  NOP
3615   4024 00                  NOP
3616   4025 00                  NOP
3617   4026 00                  NOP
3618   4027 00                  NOP
3619   4028 00                  NOP
3620   4029 00                  NOP
3621   402A 00                  NOP
3622   402B 00                  NOP
3623   402C 00                  NOP
3624   402D 00                  NOP
3625   402E 00                  NOP
3626   402F 00                  NOP
3627   4030 00                  NOP
3628   4031 00                  NOP
3629   4032 00                  NOP
3630   4033 00                  NOP
3631   4034 00                  NOP
3632   4035 00                  NOP
3633   4036 00                  NOP
3634   4037 00                  NOP
3635   4038 00                  NOP
3636   4039 00                  NOP
3637   403A 00                  NOP
3638   403B 00                  NOP
3639   403C 00                  NOP
3640   403D 00                  NOP
3641   403E 00                  NOP
3642   403F 00                  NOP
3643   4040 00                  NOP
3644   4041 00                  NOP
3645   4042 00                  NOP
3646   4043 00                  NOP
3647   4044 00                  NOP
3648   4045 00                  NOP
3649   4046 00                  NOP
3650   4047 00                  NOP
3651   4048 00                  NOP
3652   4049 00                  NOP
3653   404A 00                  NOP
3654   404B 00                  NOP
3655   404C 00                  NOP
3656   404D 00                  NOP
3657   404E 00                  NOP
3658   404F 00                  NOP
3659   4050 00                  NOP
3660   4051 00                  NOP
3661   4052 00                  NOP
3662   4053 00                  NOP
3663   4054 00                  NOP
3664   4055 00                  NOP
3665   4056 00                  NOP
3666   4057 00                  NOP
3667   4058 00                  NOP
3668   4059 00                  NOP
3669   405A 00                  NOP
3670   405B 00                  NOP
3671   405C 00                  NOP
3672   405D 00                  NOP
3673   405E 00                  NOP
3674   405F 00                  NOP
3675   4060 00                  NOP
3676   4061 00                  NOP
3677   4062 00                  NOP
3678   4063 00                  NOP
3679   4064 00                  NOP
3680   4065 00                  NOP
3681   4066 00                  NOP
3682   4067 00                  NOP
3683   4068 00                  NOP
3684   4069 00                  NOP
3685   406A 00                  NOP
3686   406B 00                  NOP
3687   406C 00                  NOP
3688   406D 00                  NOP
3689   406E 00                  NOP
3690   406F 00                  NOP
3691   4070 00                  NOP
3692   4071 00                  NOP
3693   4072 00                  NOP
3694   4073 00                  NOP
3695   4074 00                  NOP
3696   4075 00                  NOP
3697   4076 00                  NOP
3698   4077 00                  NOP
3699   4078 00                  NOP
3700   4079 00                  NOP
3701   407A 00                  NOP
3702   407B 00                  NOP
3703   407C 00                  NOP
3704   407D 00                  NOP
3705   407E 00                  NOP
3706   407F 00                  NOP
3707   4080 00                  NOP
3708   4081 00                  NOP
3709   4082 00                  NOP
3710   4083 00                  NOP
3711   4084 00                  NOP
3712   4085 00                  NOP
3713   4086 00                  NOP
3714   4087 00                  NOP
3715   4088 00                  NOP
3716   4089 00                  NOP
3717   408A 00                  NOP
3718   408B 00                  NOP
3719   408C 00                  NOP
3720   408D 00                  NOP
3721   408E 00                  NOP
3722   408F 00                  NOP
3723   4090 00                  NOP
3724   4091 00                  NOP
3725   4092 00                  NOP
3726   4093 00                  NOP
3727   4094 00                  NOP
3728   4095 00                  NOP
3729   4096 00                  NOP
3730   4097 00                  NOP
3731   4098 00                  NOP
3732   4099 00                  NOP
3733   409A 00                  NOP
3734   409B 00                  NOP
3735   409C 00                  NOP
3736   409D 00                  NOP
3737   409E 00                  NOP
3738   409F 00                  NOP
3739   40A0 00                  NOP
3740   40A1 00                  NOP
3741   40A2 00                  NOP
3742   40A3 00                  NOP
3743   40A4 00                  NOP
3744   40A5 00                  NOP
3745   40A6 00                  NOP
3746   40A7 00                  NOP
3747   40A8 00                  NOP
3748   40A9 00                  NOP
3749   40AA 00                  NOP
3750   40AB 00                  NOP
3751   40AC 00                  NOP
3752   40AD 00                  NOP
3753   40AE 00                  NOP
3754   40AF 00                  NOP
3755   40B0 00                  NOP
3756   40B1 00                  NOP
3757   40B2 00                  NOP
3758   40B3 00                  NOP
3759   40B4 00                  NOP
3760   40B5 00                  NOP
3761   40B6 00                  NOP
3762   40B7 00                  NOP
3763   40B8 00                  NOP
3764   40B9 00                  NOP
3765   40BA 00                  NOP
3766   40BB 00                  NOP
3767   40BC 00                  NOP
3768   40BD 00                  NOP
3769   40BE 00                  NOP
3770   40BF 00                  NOP
3771   40C0 00                  NOP
3772   40C1 00                  NOP
3773   40C2 00                  NOP
3774   40C3 00                  NOP
3775   40C4 00                  NOP
3776   40C5 00                  NOP
3777   40C6 00                  NOP
3778   40C7 00                  NOP
3779   40C8 00                  NOP
3780   40C9 00                  NOP
3781   40CA 00                  NOP
3782   40CB 00                  NOP
3783   40CC 00                  NOP
3784   40CD 00                  NOP
3785   40CE 00                  NOP
3786   40CF 00                  NOP
3787   40D0 00                  NOP
3788   40D1 00                  NOP
3789   40D2 00                  NOP
3790   40D3 00                  NOP
3791   40D4 00                  NOP
3792   40D5 00                  NOP
3793   40D6 00                  NOP
3794   40D7 00                  NOP
3795   40D8 00                  NOP
3796   40D9 00                  NOP
3797   40DA 00                  NOP
3798   40DB 00                  NOP
3799   40DC 00                  NOP
3800   40DD 00                  NOP
3801   40DE 00                  NOP
3802   40DF 00                  NOP
3803   40E0 00                  NOP
3804   40E1 00                  NOP
3805   40E2 00                  NOP
3806   40E3 00                  NOP
3807   40E4 00                  NOP
3808   40E5 00                  NOP
3809   40E6 00                  NOP
3810   40E7 00                  NOP
3811   40E8 00                  NOP
3812   40E9 00                  NOP
3813   40EA 00                  NOP
3814   40EB 00                  NOP
3815   40EC 00                  NOP
3816   40ED 00                  NOP
3817   40EE 00                  NOP
3818   40EF 00                  NOP
3819   40F0 00                  NOP
3820   40F1 00                  NOP
3821   40F2 00                  NOP
3822   40F3 00                  NOP
3823   40F4 00                  NOP
3824   40F5 00                  NOP
3825   40F6 00                  NOP
3826   40F7 00                  NOP
3827   40F8 00                  NOP
3828   40F9 00                  NOP
3829   40FA 00                  NOP
3830   40FB 00                  NOP
3831   40FC 00                  NOP
3832   40FD 00                  NOP
3833   40FE 00                  NOP
3834   40FF 00                  NOP
3835   4100 00                  NOP
3836   4101 00                  NOP
3837   4102 00                  NOP
3838   4103 00                  NOP
3839   4104 00                  NOP
3840   4105 00                  NOP
3841   4106 00                  NOP
3842   4107 00                  NOP
3843   4108 00                  NOP
3844   4109 00                  NOP
3845   410A 00                  NOP
3846   410B 00                  NOP
3847   410C 00                  NOP
3848   410D 00                  NOP
3849   410E 00                  NOP
3850   410F 00                  NOP
3851   4110 00                  NOP
3852   4111 00                  NOP
3853   4112 00                  NOP
3854   4113 00                  NOP
3855   4114 00                  NOP
3856   4115 00                  NOP
3857   4116 00                  NOP
3858   4117 00                  NOP
3859   4118 00                  NOP
3860   4119 00                  NOP
3861   411A 00                  NOP
3862   411B 00                  NOP
3863   411C 00                  NOP
3864   411D 00                  NOP
3865   411E 00                  NOP
3866   411F 00                  NOP
3867   4120 00                  NOP
3868   4121 00                  NOP
3869   4122 00                  NOP
3870   4123 00                  NOP
3871   4124 00                  NOP
3872   4125 00                  NOP
3873   4126 00                  NOP
3874   4127 00                  NOP
3875   4128 00                  NOP
3876   4129 00                  NOP
3877   412A 00                  NOP
3878   412B 00                  NOP
3879   412C 00                  NOP
3880   412D 00                  NOP
3881   412E 00                  NOP
3882   412F 00                  NOP
3883   4130 00                  NOP
3884   4131 00                  NOP
3885   4132 00                  NOP
3886   4133 00                  NOP
3887   4134 00                  NOP
3888   4135 00                  NOP
3889   4136 00                  NOP
3890   4137 00                  NOP
3891   4138 00                  NOP
3892   4139 00                  NOP
3893   413A 00                  NOP
3894   413B 00                  NOP
3895   413C 00                  NOP
3896   413D 00                  NOP
3897   413E 00                  NOP
3898   413F 00                  NOP
3899   4140 00                  NOP
3900   4141 00                  NOP
3901   4142 00                  NOP
3902   4143 00                  NOP
3903   4144 00                  NOP
3904   4145 00                  NOP
3905   4146 00                  NOP
3906   4147 00                  NOP
3907   4148 00                  NOP
3908   4149 00                  NOP
3909   414A 00                  NOP
3910   414B 00                  NOP
3911   414C 00                  NOP
3912   414D 00                  NOP
3913   414E 00                  NOP
3914   414F 00                  NOP
3915   4150 00                  NOP
3916   4151 00                  NOP
3917   4152 00                  NOP
3918   4153 00                  NOP
3919   4154 00                  NOP
3920   4155 00                  NOP
3921   4156 00                  NOP
3922   4157 00                  NOP
3923   4158 00                  NOP
3924   4159 00                  NOP
3925   415A 00                  NOP
3926   415B 00                  NOP
3927   415C 00                  NOP
3928   415D 00                  NOP
3929   415E 00                  NOP
3930   415F 00                  NOP
3931   4160 00                  NOP
3932   4161 00                  NOP
3933   4162 00                  NOP
3934   4163 00                  NOP
3935   4164 00                  NOP
3936   4165 00                  NOP
3937   4166 00                  NOP
3938   4167 00                  NOP
3939   4168 00                  NOP
3940   4169 00                  NOP
3941   416A 00                  NOP
3942   416B 00                  NOP
3943   416C 00                  NOP
3944   416D 00                  NOP
3945   416E 00                  NOP
3946   416F 00                  NOP
3947   4170 00                  NOP
3948   4171 00                  NOP
3949   4172 00                  NOP
3950   4173 00                  NOP
3951   4174 00                  NOP
3952   4175 00                  NOP
3953   4176 00                  NOP
3954   4177 00                  NOP
3955   4178 00                  NOP
3956   4179 00                  NOP
3957   417A 00                  NOP
3958   417B 00                  NOP
3959   417C 00                  NOP
3960   417D 00                  NOP
3961   417E 00                  NOP
3962   417F 00                  NOP
3963   4180 00                  NOP
3964   4181 00                  NOP
3965   4182 00                  NOP
3966   4183 00                  NOP
3967   4184 00                  NOP
3968   4185 00                  NOP
3969   4186 00                  NOP
3970   4187 00                  NOP
3971   4188 00                  NOP
3972   4189 00                  NOP
3973   418A 00                  NOP
3974   418B 00                  NOP
3975   418C 00                  NOP
3976   418D 00                  NOP
3977   418E 00                  NOP
3978   418F 00                  NOP
3979   4190 00                  NOP
3980   4191 00                  NOP
3981   4192 00                  NOP
3982   4193 00                  NOP
3983   4194 00                  NOP
3984   4195 00                  NOP
3985   4196 00                  NOP
3986   4197 00                  NOP
3987   4198 00                  NOP
3988   4199 00                  NOP
3989   419A 00                  NOP
3990   419B 00                  NOP
3991   419C 00                  NOP
3992   419D 00                  NOP
3993   419E 00                  NOP
3994   419F 00                  NOP
3995   41A0 00                  NOP
3996   41A1 00                  NOP
3997   41A2 00                  NOP
3998   41A3 00                  NOP
3999   41A4 00                  NOP
4000   41A5 00                  NOP
4001   41A6 00                  NOP
4002   41A7 00                  NOP
4003   41A8 00                  NOP
4004   41A9 00                  NOP
4005   41AA 00                  NOP
4006   41AB 00                  NOP
4007   41AC 00                  NOP
4008   41AD 00                  NOP
4009   41AE 00                  NOP
4010   41AF 00                  NOP
4011   41B0 00                  NOP
4012   41B1 00                  NOP
4013   41B2 00                  NOP
4014   41B3 00                  NOP
4015   41B4 00                  NOP
4016   41B5 00                  NOP
4017   41B6 00                  NOP
4018   41B7 00                  NOP
4019   41B8 00                  NOP
4020   41B9 00                  NOP
4021   41BA 00                  NOP
4022   41BB 00                  NOP
4023   41BC 00                  NOP
4024   41BD 00                  NOP
4025   41BE 00                  NOP
4026   41BF 00                  NOP
4027   41C0 00                  NOP
4028   41C1 00                  NOP
4029   41C2 00                  NOP
4030   41C3 00                  NOP
4031   41C4 00                  NOP
4032   41C5 00                  NOP
4033   41C6 00                  NOP
4034   41C7 00                  NOP
4035   41C8 00                  NOP
4036   41C9 00                  NOP
4037   41CA 00                  NOP
4038   41CB 00                  NOP
4039   41CC 00                  NOP
4040   41CD 00                  NOP
4041   41CE 00                  NOP
4042   41CF 00                  NOP
4043   41D0 00                  NOP
4044   41D1 00                  NOP
4045   41D2 00                  NOP
4046   41D3 00                  NOP
4047   41D4 00                  NOP
4048   41D5 00                  NOP
4049   41D6 00                  NOP
4050   41D7 00                  NOP
4051   41D8 00                  NOP
4052   41D9 00                  NOP
4053   41DA 00                  NOP
4054   41DB 00                  NOP
4055   41DC 00                  NOP
4056   41DD 00                  NOP
4057   41DE 00                  NOP
4058   41DF 00                  NOP
4059   41E0 00                  NOP
4060   41E1 00                  NOP
4061   41E2 00                  NOP
4062   41E3 00                  NOP
4063   41E4 00                  NOP
4064   41E5 00                  NOP
4065   41E6 00                  NOP
4066   41E7 00                  NOP
4067   41E8 00                  NOP
4068   41E9 00                  NOP
4069   41EA 00                  NOP
4070   41EB 00                  NOP
4071   41EC 00                  NOP
4072   41ED 00                  NOP
4073   41EE 00                  NOP
4074   41EF 00                  NOP
4075   41F0 00                  NOP
4076   41F1 00                  NOP
4077   41F2 00                  NOP
4078   41F3 00                  NOP
4079   41F4 00                  NOP
4080   41F5 00                  NOP
4081   41F6 00                  NOP
4082   41F7 00                  NOP
4083   41F8 00                  NOP
4084   41F9 00                  NOP
4085   41FA 00                  NOP
4086   41FB 00                  NOP
4087   41FC 00                  NOP
4088   41FD 00                  NOP
4089   41FE 00                  NOP
4090   41FF 00                  NOP
4091   4200 00                  NOP
4092   4201 00                  NOP
4093   4202 00                  NOP
4094   4203 00                  NOP
4095   4204 00                  NOP
4096   4205 00                  NOP
4097   4206 00                  NOP
4098   4207 00                  NOP
4099   4208 00                  NOP
4100   4209 00                  NOP
4101   420A 00                  NOP
4102   420B 00                  NOP
4103   420C 00                  NOP
4104   420D 00                  NOP
4105   420E 00                  NOP
4106   420F 00                  NOP
4107   4210 00                  NOP
4108   4211 00                  NOP
4109   4212 00                  NOP
4110   4213 00                  NOP
4111   4214 00                  NOP
4112   4215 00                  NOP
4113   4216 00                  NOP
4114   4217 00                  NOP
4115   4218 00                  NOP
4116   4219 00                  NOP
4117   421A 00                  NOP
4118   421B 00                  NOP
4119   421C 00                  NOP
4120   421D 00                  NOP
4121   421E 00                  NOP
4122   421F 00                  NOP
4123   4220 00                  NOP
4124   4221 00                  NOP
4125   4222 00                  NOP
4126   4223 00                  NOP
4127   4224 00                  NOP
4128   4225 00                  NOP
4129   4226 00                  NOP
4130   4227 00                  NOP
4131   4228 00                  NOP
4132   4229 00                  NOP
4133   422A 00                  NOP
4134   422B 00                  NOP
4135   422C 00                  NOP
4136   422D 00                  NOP
4137   422E 00                  NOP
4138   422F 00                  NOP
4139   4230 00                  NOP
4140   4231 00                  NOP
4141   4232 00                  NOP
4142   4233 00                  NOP
4143   4234 00                  NOP
4144   4235 00                  NOP
4145   4236 00                  NOP
4146   4237 00                  NOP
4147   4238 00                  NOP
4148   4239 00                  NOP
4149   423A 00                  NOP
4150   423B 00                  NOP
4151   423C 00                  NOP
4152   423D 00                  NOP
4153   423E 00                  NOP
4154   423F 00                  NOP
4155   4240 00                  NOP
4156   4241 00                  NOP
4157   4242 00                  NOP
4158   4243 00                  NOP
4159   4244 00                  NOP
4160   4245 00                  NOP
4161   4246 00                  NOP
4162   4247 00                  NOP
4163   4248 00                  NOP
4164   4249 00                  NOP
4165   424A 00                  NOP
4166   424B 00                  NOP
4167   424C 00                  NOP
4168   424D 00                  NOP
4169   424E 00                  NOP
4170   424F 00                  NOP
4171   4250 00                  NOP
4172   4251 00                  NOP
4173   4252 00                  NOP
4174   4253 00                  NOP
4175   4254 00                  NOP
4176   4255 00                  NOP
4177   4256 00                  NOP
4178   4257 00                  NOP
4179   4258 00                  NOP
4180   4259 00                  NOP
4181   425A 00                  NOP
4182   425B 00                  NOP
4183   425C 00                  NOP
4184   425D 00                  NOP
4185   425E 00                  NOP
4186   425F 00                  NOP
4187   4260 00                  NOP
4188   4261 00                  NOP
4189   4262 00                  NOP
4190   4263 00                  NOP
4191   4264 00                  NOP
4192   4265 00                  NOP
4193   4266 00                  NOP
4194   4267 00                  NOP
4195   4268 00                  NOP
4196   4269 00                  NOP
4197   426A 00                  NOP
4198   426B 00                  NOP
4199   426C 00                  NOP
4200   426D 00                  NOP
4201   426E 00                  NOP
4202   426F 00                  NOP
4203   4270 00                  NOP
4204   4271 00                  NOP
4205   4272 00                  NOP
4206   4273 00                  NOP
4207   4274 00                  NOP
4208   4275 00                  NOP
4209   4276 00                  NOP
4210   4277 00                  NOP
4211   4278 00                  NOP
4212   4279 00                  NOP
4213   427A 00                  NOP
4214   427B 00                  NOP
4215   427C 00                  NOP
4216   427D 00                  NOP
4217   427E 00                  NOP
4218   427F 00                  NOP
4219   4280 00                  NOP
4220   4281 00                  NOP
4221   4282 00                  NOP
4222   4283 00                  NOP
4223   4284 00                  NOP
4224   4285 00                  NOP
4225   4286 00                  NOP
4226   4287 00                  NOP
4227   4288 00                  NOP
4228   4289 00                  NOP
4229   428A 00                  NOP
4230   428B 00                  NOP
4231   428C 00                  NOP
4232   428D 00                  NOP
4233   428E 00                  NOP
4234   428F 00                  NOP
4235   4290 00                  NOP
4236   4291 00                  NOP
4237   4292 00                  NOP
4238   4293 00                  NOP
4239   4294 00                  NOP
4240   4295 00                  NOP
4241   4296 00                  NOP
4242   4297 00                  NOP
4243   4298 00                  NOP
4244   4299 00                  NOP
4245   429A 00                  NOP
4246   429B 00                  NOP
4247   429C 00                  NOP
4248   429D 00                  NOP
4249   429E 00                  NOP
4250   429F 00                  NOP
4251   42A0 00                  NOP
4252   42A1 00                  NOP
4253   42A2 00                  NOP
4254   42A3 00                  NOP
4255   42A4 00                  NOP
4256   42A5 00                  NOP
4257   42A6 00                  NOP
4258   42A7 00                  NOP
4259   42A8 00                  NOP
4260   42A9 00                  NOP
4261   42AA 00                  NOP
4262   42AB 00                  NOP
4263   42AC 00                  NOP
4264   42AD 00                  NOP
4265   42AE 00                  NOP
4266   42AF 00                  NOP
4267   42B0 00                  NOP
4268   42B1 00                  NOP
4269   42B2 00                  NOP
4270   42B3 00                  NOP
4271   42B4 00                  NOP
4272   42B5 00                  NOP
4273   42B6 00                  NOP
4274   42B7 00                  NOP
4275   42B8 00                  NOP
4276   42B9 00                  NOP
4277   42BA 00                  NOP
4278   42BB 00                  NOP
4279   42BC 00                  NOP
4280   42BD 00                  NOP
4281   42BE 00                  NOP
4282   42BF 00                  NOP
4283   42C0 00                  NOP
4284   42C1 00                  NOP
4285   42C2 00                  NOP
4286   42C3 00                  NOP
4287   42C4 00                  NOP
4288   42C5 00                  NOP
4289   42C6 00                  NOP
4290   42C7 00                  NOP
4291   42C8 00                  NOP
4292   42C9 00                  NOP
4293   42CA 00                  NOP
4294   42CB 00                  NOP
4295   42CC 00                  NOP
4296   42CD 00                  NOP
4297   42CE 00                  NOP
4298   42CF 00                  NOP
4299   42D0 00                  NOP
4300   42D1 00                  NOP
4301   42D2 00                  NOP
4302   42D3 00                  NOP
4303   42D4 00                  NOP
4304   42D5 00                  NOP
4305   42D6 00                  NOP
4306   42D7 00                  NOP
4307   42D8 00                  NOP
4308   42D9 00                  NOP
4309   42DA 00                  NOP
4310   42DB 00                  NOP
4311   42DC 00                  NOP
4312   42DD 00                  NOP
4313   42DE 00                  NOP
4314   42DF 00                  NOP
4315   42E0 00                  NOP
4316   42E1 00                  NOP
4317   42E2 00                  NOP
4318   42E3 00                  NOP
4319   42E4 00                  NOP
4320   42E5 00                  NOP
4321   42E6 00                  NOP
4322   42E7 00                  NOP
4323   42E8 00                  NOP
4324   42E9 00                  NOP
4325   42EA 00                  NOP
4326   42EB 00                  NOP
4327   42EC 00                  NOP
4328   42ED 00                  NOP
4329   42EE 00                  NOP
4330   42EF 00                  NOP
4331   42F0 00                  NOP
4332   42F1 00                  NOP
4333   42F2 00                  NOP
4334   42F3 00                  NOP
4335   42F4 00                  NOP
4336   42F5 00                  NOP
4337   42F6 00                  NOP
4338   42F7 00                  NOP
4339   42F8 00                  NOP
4340   42F9 00                  NOP
4341   42FA 00                  NOP
4342   42FB 00                  NOP
4343   42FC 00                  NOP
4344   42FD 00                  NOP
4345   42FE 00                  NOP
4346   42FF 00                  NOP
4347   4300 00                  NOP
4348   4301 00                  NOP
4349   4302 00                  NOP
4350   4303 00                  NOP
4351   4304 00                  NOP
4352   4305 00                  NOP
4353   4306 00                  NOP
4354   4307 00                  NOP
4355   4308 00                  NOP
4356   4309 00                  NOP
4357   430A 00                  NOP
4358   430B 00                  NOP
4359   430C 00                  NOP
4360   430D 00                  NOP
4361   430E 00                  NOP
4362   430F 00                  NOP
4363   4310 00                  NOP
4364   4311 00                  NOP
4365   4312 00                  NOP
4366   4313 00                  NOP
4367   4314 00                  NOP
4368   4315 00                  NOP
4369   4316 00                  NOP
4370   4317 00                  NOP
4371   4318 00                  NOP
4372   4319 00                  NOP
4373   431A 00                  NOP
4374   431B 00                  NOP
4375   431C 00                  NOP
4376   431D 00                  NOP
4377   431E 00                  NOP
4378   431F 00                  NOP
4379   4320 00                  NOP
4380   4321 00                  NOP
4381   4322 00                  NOP
4382   4323 00                  NOP
4383   4324 00                  NOP
4384   4325 00                  NOP
4385   4326 00                  NOP
4386   4327 00                  NOP
4387   4328 00                  NOP
4388   4329 00                  NOP
4389   432A 00                  NOP
4390   432B 00                  NOP
4391   432C 00                  NOP
4392   432D 00                  NOP
4393   432E 00                  NOP
4394   432F 00                  NOP
4395   4330 00                  NOP
4396   4331 00                  NOP
4397   4332 00                  NOP
4398   4333 00                  NOP
4399   4334 00                  NOP
4400   4335 00                  NOP
4401   4336 00                  NOP
4402   4337 00                  NOP
4403   4338 00                  NOP
4404   4339 00                  NOP
4405   433A 00                  NOP
4406   433B 00                  NOP
4407   433C 00                  NOP
4408   433D 00                  NOP
4409   433E 00                  NOP
4410   433F 00                  NOP
4411   4340 00                  NOP
4412   4341 00                  NOP
4413   4342 00                  NOP
4414   4343 00                  NOP
4415   4344 00                  NOP
4416   4345 00                  NOP
4417   4346 00                  NOP
4418   4347 00                  NOP
4419   4348 00                  NOP
4420   4349 00                  NOP
4421   434A 00                  NOP
4422   434B 00                  NOP
4423   434C 00                  NOP
4424   434D 00                  NOP
4425   434E 00                  NOP
4426   434F 00                  NOP
4427   4350 00                  NOP
4428   4351 00                  NOP
4429   4352 00                  NOP
4430   4353 00                  NOP
4431   4354 00                  NOP
4432   4355 00                  NOP
4433   4356 00                  NOP
4434   4357 00                  NOP
4435   4358 00                  NOP
4436   4359 00                  NOP
4437   435A 00                  NOP
4438   435B 00                  NOP
4439   435C 00                  NOP
4440   435D 00                  NOP
4441   435E 00                  NOP
4442   435F 00                  NOP
4443   4360 00                  NOP
4444   4361 00                  NOP
4445   4362 00                  NOP
4446   4363 00                  NOP
4447   4364 00                  NOP
4448   4365 00                  NOP
4449   4366 00                  NOP
4450   4367 00                  NOP
4451   4368 00                  NOP
4452   4369 00                  NOP
4453   436A 00                  NOP
4454   436B 00                  NOP
4455   436C 00                  NOP
4456   436D 00                  NOP
4457   436E 00                  NOP
4458   436F 00                  NOP
4459   4370 00                  NOP
4460   4371 00                  NOP
4461   4372 00                  NOP
4462   4373 00                  NOP
4463   4374 00                  NOP
4464   4375 00                  NOP
4465   4376 00                  NOP
4466   4377 00                  NOP
4467   4378 00                  NOP
4468   4379 00                  NOP
4469   437A 00                  NOP
4470   437B 00                  NOP
4471   437C 00                  NOP
4472   437D 00                  NOP
4473   437E 00                  NOP
4474   437F 00                  NOP
4475   4380 00                  NOP
4476   4381 00                  NOP
4477   4382 00                  NOP
4478   4383 00                  NOP
4479   4384 00                  NOP
4480   4385 00                  NOP
4481   4386 00                  NOP
4482   4387 00                  NOP
4483   4388 00                  NOP
4484   4389 00                  NOP
4485   438A 00                  NOP
4486   438B 00                  NOP
4487   438C 00                  NOP
4488   438D 00                  NOP
4489   438E 00                  NOP
4490   438F 00                  NOP
4491   4390 00                  NOP
4492   4391 00                  NOP
4493   4392 00                  NOP
4494   4393 00                  NOP
4495   4394 00                  NOP
4496   4395 00                  NOP
4497   4396 00                  NOP
4498   4397 00                  NOP
4499   4398 00                  NOP
4500   4399 00                  NOP
4501   439A 00                  NOP
4502   439B 00                  NOP
4503   439C 00                  NOP
4504   439D 00                  NOP
4505   439E 00                  NOP
4506   439F 00                  NOP
4507   43A0 00                  NOP
4508   43A1 00                  NOP
4509   43A2 00                  NOP
4510   43A3 00                  NOP
4511   43A4 00                  NOP
4512   43A5 00                  NOP
4513   43A6 00                  NOP
4514   43A7 00                  NOP
4515   43A8 00                  NOP
4516   43A9 00                  NOP
4517   43AA 00                  NOP
4518   43AB 00                  NOP
4519   43AC 00                  NOP
4520   43AD 00                  NOP
4521   43AE 00                  NOP
4522   43AF 00                  NOP
4523   43B0 00                  NOP
4524   43B1 00                  NOP
4525   43B2 00                  NOP
4526   43B3 00                  NOP
4527   43B4 00                  NOP
4528   43B5 00                  NOP
4529   43B6 00                  NOP
4530   43B7 00                  NOP
4531   43B8 00                  NOP
4532   43B9 00                  NOP
4533   43BA 00                  NOP
4534   43BB 00                  NOP
4535   43BC 00                  NOP
4536   43BD 00                  NOP
4537   43BE 00                  NOP
4538   43BF 00                  NOP
4539   43C0 00                  NOP
4540   43C1 00                  NOP
4541   43C2 00                  NOP
4542   43C3 00                  NOP
4543   43C4 00                  NOP
4544   43C5 00                  NOP
4545   43C6 00                  NOP
4546   43C7 00                  NOP
4547   43C8 00                  NOP
4548   43C9 00                  NOP
4549   43CA 00                  NOP
4550   43CB 00                  NOP
4551   43CC 00                  NOP
4552   43CD 00                  NOP
4553   43CE 00                  NOP
4554   43CF 00                  NOP
4555   43D0 00                  NOP
4556   43D1 00                  NOP
4557   43D2 00                  NOP
4558   43D3 00                  NOP
4559   43D4 00                  NOP
4560   43D5 00                  NOP
4561   43D6 00                  NOP
4562   43D7 00                  NOP
4563   43D8 00                  NOP
4564   43D9 00                  NOP
4565   43DA 00                  NOP
4566   43DB 00                  NOP
4567   43DC 00                  NOP
4568   43DD 00                  NOP
4569   43DE 00                  NOP
4570   43DF 00                  NOP
4571   43E0 00                  NOP
4572   43E1 00                  NOP
4573   43E2 00                  NOP
4574   43E3 00                  NOP
4575   43E4 00                  NOP
4576   43E5 00                  NOP
4577   43E6 00                  NOP
4578   43E7 00                  NOP
4579   43E8 00                  NOP
4580   43E9 00                  NOP
4581   43EA 00                  NOP
4582   43EB 00                  NOP
4583   43EC 00                  NOP
4584   43ED 00                  NOP
4585   43EE 00                  NOP
4586   43EF 00                  NOP
4587   43F0 00                  NOP
4588   43F1 00                  NOP
4589   43F2 00                  NOP
4590   43F3 00                  NOP
4591   43F4 00                  NOP
4592   43F5 00                  NOP
4593   43F6 00                  NOP
4594   43F7 00                  NOP
4595   43F8 00                  NOP
4596   43F9 00                  NOP
4597   43FA 00                  NOP
4598   43FB 00                  NOP
4599   43FC 00                  NOP
4600   43FD 00                  NOP
4601   43FE 00                  NOP
4602   43FF 00                  NOP
4603   4400 00                  NOP
4604   4401 00                  NOP
4605   4402 00                  NOP
4606   4403 00                  NOP
4607   4404 00                  NOP
4608   4405 00                  NOP
4609   4406 00                  NOP
4610   4407 00                  NOP
4611   4408 00                  NOP
4612   4409 00                  NOP
4613   440A 00                  NOP
4614   440B 00                  NOP
4615   440C 00                  NOP
4616   440D 00                  NOP
4617   440E 00                  NOP
4618   440F 00                  NOP
4619   4410 00                  NOP
4620   4411 00                  NOP
4621   4412 00                  NOP
4622   4413 00                  NOP
4623   4414 00                  NOP
4624   4415 00                  NOP
4625   4416 00                  NOP
4626   4417 00                  NOP
4627   4418 00                  NOP
4628   4419 00                  NOP
4629   441A 00                  NOP
4630   441B 00                  NOP
4631   441C 00                  NOP
4632   441D 00                  NOP
4633   441E 00                  NOP
4634   441F 00                  NOP
4635   4420 00                  NOP
4636   4421 00                  NOP
4637   4422 00                  NOP
4638   4423 00                  NOP
4639   4424 00                  NOP
4640   4425 00                  NOP
4641   4426 00                  NOP
4642   4427 00                  NOP
4643   4428 00                  NOP
4644   4429 00                  NOP
4645   442A 00                  NOP
4646   442B 00                  NOP
4647   442C 00                  NOP
4648   442D 00                  NOP
4649   442E 00                  NOP
4650   442F 00                  NOP
4651   4430 00                  NOP
4652   4431 00                  NOP
4653   4432 00                  NOP
4654   4433 00                  NOP
4655   4434 00                  NOP
4656   4435 00                  NOP
4657   4436 00                  NOP
4658   4437 00                  NOP
4659   4438 00                  NOP
4660   4439 00                  NOP
4661   443A 00                  NOP
4662   443B 00                  NOP
4663   443C 00                  NOP
4664   443D 00                  NOP
4665   443E 00                  NOP
4666   443F 00                  NOP
4667   4440 00                  NOP
4668   4441 00                  NOP
4669   4442 00                  NOP
4670   4443 00                  NOP
4671   4444 00                  NOP
4672   4445 00                  NOP
4673   4446 00                  NOP
4674   4447 00                  NOP
4675   4448 00                  NOP
4676   4449 00                  NOP
4677   444A 00                  NOP
4678   444B 00                  NOP
4679   444C 00                  NOP
4680   444D 00                  NOP
4681   444E 00                  NOP
4682   444F 00                  NOP
4683   4450 00                  NOP
4684   4451 00                  NOP
4685   4452 00                  NOP
4686   4453 00                  NOP
4687   4454 00                  NOP
4688   4455 00                  NOP
4689   4456 00                  NOP
4690   4457 00                  NOP
4691   4458 00                  NOP
4692   4459 00                  NOP
4693   445A 00                  NOP
4694   445B 00                  NOP
4695   445C 00                  NOP
4696   445D 00                  NOP
4697   445E 00                  NOP
4698   445F 00                  NOP
4699   4460 00                  NOP
4700   4461 00                  NOP
4701   4462 00                  NOP
4702   4463 00                  NOP
4703   4464 00                  NOP
4704   4465 00                  NOP
4705   4466 00                  NOP
4706   4467 00                  NOP
4707   4468 00                  NOP
4708   4469 00                  NOP
4709   446A 00                  NOP
4710   446B 00                  NOP
4711   446C 00                  NOP
4712   446D 00                  NOP
4713   446E 00                  NOP
4714   446F 00                  NOP
4715   4470 00                  NOP
4716   4471 00                  NOP
4717   4472 00                  NOP
4718   4473 00                  NOP
4719   4474 00                  NOP
4720   4475 00                  NOP
4721   4476 00                  NOP
4722   4477 00                  NOP
4723   4478 00                  NOP
4724   4479 00                  NOP
4725   447A 00                  NOP
4726   447B 00                  NOP
4727   447C 00                  NOP
4728   447D 00                  NOP
4729   447E 00                  NOP
4730   447F 00                  NOP
4731   4480 00                  NOP
4732   4481 00                  NOP
4733   4482 00                  NOP
4734   4483 00                  NOP
4735   4484 00                  NOP
4736   4485 00                  NOP
4737   4486 00                  NOP
4738   4487 00                  NOP
4739   4488 00                  NOP
4740   4489 00                  NOP
4741   448A 00                  NOP
4742   448B 00                  NOP
4743   448C 00                  NOP
4744   448D 00                  NOP
4745   448E 00                  NOP
4746   448F 00                  NOP
4747   4490 00                  NOP
4748   4491 00                  NOP
4749   4492 00                  NOP
4750   4493 00                  NOP
4751   4494 00                  NOP
4752   4495 00                  NOP
4753   4496 00                  NOP
4754   4497 00                  NOP
4755   4498 00                  NOP
4756   4499 00                  NOP
4757   449A 00                  NOP
4758   449B 00                  NOP
4759   449C 00                  NOP
4760   449D 00                  NOP
4761   449E 00                  NOP
4762   449F 00                  NOP
4763   44A0 00                  NOP
4764   44A1 00                  NOP
4765   44A2 00                  NOP
4766   44A3 00                  NOP
4767   44A4 00                  NOP
4768   44A5 00                  NOP
4769   44A6 00                  NOP
4770   44A7 00                  NOP
4771   44A8 00                  NOP
4772   44A9 00                  NOP
4773   44AA 00                  NOP
4774   44AB 00                  NOP
4775   44AC 00                  NOP
4776   44AD 00                  NOP
4777   44AE 00                  NOP
4778   44AF 00                  NOP
4779   44B0 00                  NOP
4780   44B1 00                  NOP
4781   44B2 00                  NOP
4782   44B3 00                  NOP
4783   44B4 00                  NOP
4784   44B5 00                  NOP
4785   44B6 00                  NOP
4786   44B7 00                  NOP
4787   44B8 00                  NOP
4788   44B9 00                  NOP
4789   44BA 00                  NOP
4790   44BB 00                  NOP
4791   44BC 00                  NOP
4792   44BD 00                  NOP
4793   44BE 00                  NOP
4794   44BF 00                  NOP
4795   44C0 00                  NOP
4796   44C1 00                  NOP
4797   44C2 00                  NOP
4798   44C3 00                  NOP
4799   44C4 00                  NOP
4800   44C5 00                  NOP
4801   44C6 00                  NOP
4802   44C7 00                  NOP
4803   44C8 00                  NOP
4804   44C9 00                  NOP
4805   44CA 00                  NOP
4806   44CB 00                  NOP
4807   44CC 00                  NOP
4808   44CD 00                  NOP
4809   44CE 00                  NOP
4810   44CF 00                  NOP
4811   44D0 00                  NOP
4812   44D1 00                  NOP
4813   44D2 00                  NOP
4814   44D3 00                  NOP
4815   44D4 00                  NOP
4816   44D5 00                  NOP
4817   44D6 00                  NOP
4818   44D7 00                  NOP
4819   44D8 00                  NOP
4820   44D9 00                  NOP
4821   44DA 00                  NOP
4822   44DB 00                  NOP
4823   44DC 00                  NOP
4824   44DD 00                  NOP
4825   44DE 00                  NOP
4826   44DF 00                  NOP
4827   44E0 00                  NOP
4828   44E1 00                  NOP
4829   44E2 00                  NOP
4830   44E3 00                  NOP
4831   44E4 00                  NOP
4832   44E5 00                  NOP
4833   44E6 00                  NOP
4834   44E7 00                  NOP
4835   44E8 00                  NOP
4836   44E9 00                  NOP
4837   44EA 00                  NOP
4838   44EB 00                  NOP
4839   44EC 00                  NOP
4840   44ED 00                  NOP
4841   44EE 00                  NOP
4842   44EF 00                  NOP
4843   44F0 00                  NOP
4844   44F1 00                  NOP
4845   44F2 00                  NOP
4846   44F3 00                  NOP
4847   44F4 00                  NOP
4848   44F5 00                  NOP
4849   44F6 00                  NOP
4850   44F7 00                  NOP
4851   44F8 00                  NOP
4852   44F9 00                  NOP
4853   44FA 00                  NOP
4854   44FB 00                  NOP
4855   44FC 00                  NOP
4856   44FD 00                  NOP
4857   44FE 00                  NOP
4858   44FF 00                  NOP
4859   4500 00                  NOP
4860   4501 00                  NOP
4861   4502 00                  NOP
4862   4503 00                  NOP
4863   4504 00                  NOP
4864   4505 00                  NOP
4865   4506 00                  NOP
4866   4507 00                  NOP
4867   4508 00                  NOP
4868   4509 00                  NOP
4869   450A 00                  NOP
4870   450B 00                  NOP
4871   450C 00                  NOP
4872   450D 00                  NOP
4873   450E 00                  NOP
4874   450F 00                  NOP
4875   4510 00                  NOP
4876   4511 00                  NOP
4877   4512 00                  NOP
4878   4513 00                  NOP
4879   4514 00          L0374:  NOP
4880   4515 00                  NOP
4881   4516 00                  NOP
4882   4517 00                  NOP
4883   4518 00                  NOP
4884   4519 00                  NOP
4885   451A 00                  NOP
4886   451B 00                  NOP
4887   451C 00                  NOP
4888   451D 00                  NOP
4889   451E 00                  NOP
4890   451F 00                  NOP
4891   4520 00                  NOP
4892   4521 00                  NOP
4893   4522 00                  NOP
4894   4523 00                  NOP
4895   4524 00                  NOP
4896   4525 00                  NOP
4897   4526 00                  NOP
4898   4527 00                  NOP
4899   4528 00                  NOP
4900   4529 00                  NOP
4901   452A 00                  NOP
4902   452B 00                  NOP
4903   452C 00                  NOP
4904   452D 00                  NOP
4905   452E 00                  NOP
4906   452F 00                  NOP
4907   4530 00                  NOP
4908   4531 00                  NOP
4909   4532 00                  NOP
4910   4533 00                  NOP
4911   4534 00                  NOP
4912   4535 00                  NOP
4913   4536 00                  NOP
4914   4537 00                  NOP
4915   4538 00                  NOP
4916   4539 00                  NOP
4917   453A 00                  NOP
4918   453B 00                  NOP
4919   453C 00                  NOP
4920   453D 00                  NOP
4921   453E 00                  NOP
4922   453F 00                  NOP
4923   4540 00                  NOP
4924   4541 00                  NOP
4925   4542 00                  NOP
4926   4543 00                  NOP
4927   4544 00                  NOP
4928   4545 00                  NOP
4929   4546 00                  NOP
4930   4547 00                  NOP
4931   4548 00                  NOP
4932   4549 00                  NOP
4933   454A 00                  NOP
4934   454B 00                  NOP
4935   454C 00                  NOP
4936   454D 00                  NOP
4937   454E 00                  NOP
4938   454F 00                  NOP
4939   4550 00                  NOP
4940   4551 00                  NOP
4941   4552 00                  NOP
4942   4553 00                  NOP
4943   4554 00                  NOP
4944   4555 00                  NOP
4945   4556 00                  NOP
4946   4557 00                  NOP
4947   4558 00                  NOP
4948   4559 00                  NOP
4949   455A 00                  NOP
4950   455B 00                  NOP
4951   455C 00                  NOP
4952   455D 00                  NOP
4953   455E 00                  NOP
4954   455F 00                  NOP
4955   4560 00                  NOP
4956   4561 00                  NOP
4957   4562 00                  NOP
4958   4563 00                  NOP
4959   4564 00                  NOP
4960   4565 00                  NOP
4961   4566 00                  NOP
4962   4567 00                  NOP
4963   4568 00                  NOP
4964   4569 00                  NOP
4965   456A 00                  NOP
4966   456B 00                  NOP
4967   456C 00                  NOP
4968   456D 00                  NOP
4969   456E 00                  NOP
4970   456F 00                  NOP
4971   4570 00                  NOP
4972   4571 00                  NOP
4973   4572 00                  NOP
4974   4573 00                  NOP
4975   4574 00                  NOP
4976   4575 00                  NOP
4977   4576 00                  NOP
4978   4577 00                  NOP
4979   4578 00                  NOP
4980   4579 00                  NOP
4981   457A 00                  NOP
4982   457B 00                  NOP
4983   457C 00                  NOP
4984   457D 00                  NOP
4985   457E 00                  NOP
4986   457F 00                  NOP
4987   4580 00                  NOP
4988   4581 00                  NOP
4989   4582 00                  NOP
4990   4583 00                  NOP
4991   4584 00                  NOP
4992   4585 00                  NOP
4993   4586 00                  NOP
4994   4587 00                  NOP
4995   4588 00                  NOP
4996   4589 00                  NOP
4997   458A 00                  NOP
4998   458B 00                  NOP
4999   458C 00                  NOP
5000   458D 00                  NOP
5001   458E 00                  NOP
5002   458F 00                  NOP
5003   4590 00                  NOP
5004   4591 00                  NOP
5005   4592 00                  NOP
5006   4593 00                  NOP
5007   4594 00                  NOP
5008   4595 00                  NOP
5009   4596 00                  NOP
5010   4597 00                  NOP
5011   4598 00                  NOP
5012   4599 00                  NOP
5013   459A 00                  NOP
5014   459B 00                  NOP
5015   459C 00                  NOP
5016   459D 00                  NOP
5017   459E 00                  NOP
5018   459F 00                  NOP
5019   45A0 00                  NOP
5020   45A1 00                  NOP
5021   45A2 00                  NOP
5022   45A3 00                  NOP
5023   45A4 00                  NOP
5024   45A5 00                  NOP
5025   45A6 00                  NOP
5026   45A7 00                  NOP
5027   45A8 00                  NOP
5028   45A9 00                  NOP
5029   45AA 00                  NOP
5030   45AB 00                  NOP
5031   45AC 00                  NOP
5032   45AD 00                  NOP
5033   45AE 00                  NOP
5034   45AF 00                  NOP
5035   45B0 00                  NOP
5036   45B1 00                  NOP
5037   45B2 00                  NOP
5038   45B3 00                  NOP
5039   45B4 00                  NOP
5040   45B5 00                  NOP
5041   45B6 00                  NOP
5042   45B7 00                  NOP
5043   45B8 00                  NOP
5044   45B9 00                  NOP
5045   45BA 00                  NOP
5046   45BB 00                  NOP
5047   45BC 00                  NOP
5048   45BD 00                  NOP
5049   45BE 00                  NOP
5050   45BF 00                  NOP
5051   45C0 00                  NOP
5052   45C1 00                  NOP
5053   45C2 00                  NOP
5054   45C3 00                  NOP
5055   45C4 00                  NOP
5056   45C5 00                  NOP
5057   45C6 00                  NOP
5058   45C7 00                  NOP
5059   45C8 00                  NOP
5060   45C9 00                  NOP
5061   45CA 00                  NOP
5062   45CB 00                  NOP
5063   45CC 00                  NOP
5064   45CD 00                  NOP
5065   45CE 00                  NOP
5066   45CF 00                  NOP
5067   45D0 00                  NOP
5068   45D1 00                  NOP
5069   45D2 00                  NOP
5070   45D3 00                  NOP
5071   45D4 00                  NOP
5072   45D5 00                  NOP
5073   45D6 00                  NOP
5074   45D7 00                  NOP
5075   45D8 00                  NOP
5076   45D9 00                  NOP
5077   45DA 00                  NOP
5078   45DB 00                  NOP
5079   45DC 00                  NOP
5080   45DD 00                  NOP
5081   45DE 00                  NOP
5082   45DF 00                  NOP
5083   45E0 00                  NOP
5084   45E1 00                  NOP
5085   45E2 00                  NOP
5086   45E3 00                  NOP
5087   45E4 00                  NOP
5088   45E5 00                  NOP
5089   45E6 00                  NOP
5090   45E7 00                  NOP
5091   45E8 00                  NOP
5092   45E9 00                  NOP
5093   45EA 00                  NOP
5094   45EB 00                  NOP
5095   45EC 00                  NOP
5096   45ED 00                  NOP
5097   45EE 00                  NOP
5098   45EF 00                  NOP
5099   45F0 00                  NOP
5100   45F1 00                  NOP
5101   45F2 00                  NOP
5102   45F3 00                  NOP
5103   45F4 00                  NOP
5104   45F5 00                  NOP
5105   45F6 00                  NOP
5106   45F7 00                  NOP
5107   45F8 00                  NOP
5108   45F9 00                  NOP
5109   45FA 00                  NOP
5110   45FB 00                  NOP
5111   45FC 00                  NOP
5112   45FD 00                  NOP
5113   45FE 00                  NOP
5114   45FF 00                  NOP
5115   4600 00                  NOP
5116   4601 00                  NOP
5117   4602 00                  NOP
5118   4603 00                  NOP
5119   4604 00                  NOP
5120   4605 00                  NOP
5121   4606 00                  NOP
5122   4607 00                  NOP
5123   4608 00                  NOP
5124   4609 00                  NOP
5125   460A 00                  NOP
5126   460B 00                  NOP
5127   460C 00                  NOP
5128   460D 00                  NOP
5129   460E 00                  NOP
5130   460F 00                  NOP
5131   4610 00                  NOP
5132   4611 00                  NOP
5133   4612 00                  NOP
5134   4613 00                  NOP
5135   4614 00                  NOP
5136   4615 00                  NOP
5137   4616 00                  NOP
5138   4617 00                  NOP
5139   4618 00                  NOP
5140   4619 00                  NOP
5141   461A 00                  NOP
5142   461B 00                  NOP
5143   461C 00                  NOP
5144   461D 00                  NOP
5145   461E 00                  NOP
5146   461F 00                  NOP
5147   4620 00                  NOP
5148   4621 00                  NOP
5149   4622 00                  NOP
5150   4623 00                  NOP
5151   4624 00                  NOP
5152   4625 00                  NOP
5153   4626 00                  NOP
5154   4627 00                  NOP
5155   4628 00                  NOP
5156   4629 00                  NOP
5157   462A 00                  NOP
5158   462B 00                  NOP
5159   462C 00                  NOP
5160   462D 00                  NOP
5161   462E 00                  NOP
5162   462F 00                  NOP
5163   4630 00                  NOP
5164   4631 00                  NOP
5165   4632 00                  NOP
5166   4633 00                  NOP
5167   4634 00                  NOP
5168   4635 00                  NOP
5169   4636 00                  NOP
5170   4637 00                  NOP
5171   4638 00                  NOP
5172   4639 00                  NOP
5173   463A 00                  NOP
5174   463B 00                  NOP
5175   463C 00                  NOP
5176   463D 00                  NOP
5177   463E 00                  NOP
5178   463F 00                  NOP
5179   4640 00                  NOP
5180   4641 00                  NOP
5181   4642 00                  NOP
5182   4643 00                  NOP
5183   4644 00                  NOP
5184   4645 00                  NOP
5185   4646 00                  NOP
5186   4647 00                  NOP
5187   4648 00                  NOP
5188   4649 00                  NOP
5189   464A 00                  NOP
5190   464B 00                  NOP
5191   464C 00                  NOP
5192   464D 00                  NOP
5193   464E 00                  NOP
5194   464F 00                  NOP
5195   4650 00                  NOP
5196   4651 00                  NOP
5197   4652 00                  NOP
5198   4653 00                  NOP
5199   4654 00                  NOP
5200   4655 00                  NOP
5201   4656 00                  NOP
5202   4657 00                  NOP
5203   4658 00                  NOP
5204   4659 00                  NOP
5205   465A 00                  NOP
5206   465B 00                  NOP
5207   465C 00                  NOP
5208   465D 00                  NOP
5209   465E 00                  NOP
5210   465F 00                  NOP
5211   4660 00                  NOP
5212   4661 00                  NOP
5213   4662 00                  NOP
5214   4663 00                  NOP
5215   4664 00                  NOP
5216   4665 00                  NOP
5217   4666 00                  NOP
5218   4667 00                  NOP
5219   4668 00                  NOP
5220   4669 00                  NOP
5221   466A 00                  NOP
5222   466B 00                  NOP
5223   466C 00                  NOP
5224   466D 00                  NOP
5225   466E 00                  NOP
5226   466F 00                  NOP
5227   4670 00                  NOP
5228   4671 00                  NOP
5229   4672 00                  NOP
5230   4673 00                  NOP
5231   4674 00                  NOP
5232   4675 00                  NOP
5233   4676 00                  NOP
5234   4677 00                  NOP
5235   4678 00                  NOP
5236   4679 00                  NOP
5237   467A 00                  NOP
5238   467B 00                  NOP
5239   467C 00                  NOP
5240   467D 00                  NOP
5241   467E 00                  NOP
5242   467F 00                  NOP
5243   4680 00                  NOP
5244   4681 00                  NOP
5245   4682 00                  NOP
5246   4683 00                  NOP
5247   4684 00                  NOP
5248   4685 00                  NOP
5249   4686 00                  NOP
5250   4687 00                  NOP
5251   4688 00                  NOP
5252   4689 00                  NOP
5253   468A 00                  NOP
5254   468B 00                  NOP
5255   468C 00                  NOP
5256   468D 00                  NOP
5257   468E 00                  NOP
5258   468F 00                  NOP
5259   4690 00                  NOP
5260   4691 00                  NOP
5261   4692 00                  NOP
5262   4693 00                  NOP
5263   4694 00                  NOP
5264   4695 00                  NOP
5265   4696 00                  NOP
5266   4697 00                  NOP
5267   4698 00                  NOP
5268   4699 00                  NOP
5269   469A 00                  NOP
5270   469B 00                  NOP
5271   469C 00                  NOP
5272   469D 00                  NOP
5273   469E 00                  NOP
5274   469F 00                  NOP
5275   46A0 00                  NOP
5276   46A1 00                  NOP
5277   46A2 00                  NOP
5278   46A3 00                  NOP
5279   46A4 00                  NOP
5280   46A5 00                  NOP
5281   46A6 00                  NOP
5282   46A7 00                  NOP
5283   46A8 00                  NOP
5284   46A9 00                  NOP
5285   46AA 00                  NOP
5286   46AB 00                  NOP
5287   46AC 00                  NOP
5288   46AD 00                  NOP
5289   46AE 00                  NOP
5290   46AF 00                  NOP
5291   46B0 00                  NOP
5292   46B1 00                  NOP
5293   46B2 00                  NOP
5294   46B3 00                  NOP
5295   46B4 00                  NOP
5296   46B5 00                  NOP
5297   46B6 00                  NOP
5298   46B7 00                  NOP
5299   46B8 00                  NOP
5300   46B9 00                  NOP
5301   46BA 00                  NOP
5302   46BB 00                  NOP
5303   46BC 00                  NOP
5304   46BD 00                  NOP
5305   46BE 00                  NOP
5306   46BF 00                  NOP
5307   46C0 00                  NOP
5308   46C1 00                  NOP
5309   46C2 00                  NOP
5310   46C3 00                  NOP
5311   46C4 00                  NOP
5312   46C5 00                  NOP
5313   46C6 00                  NOP
5314   46C7 00                  NOP
5315   46C8 00                  NOP
5316   46C9 00                  NOP
5317   46CA 00                  NOP
5318   46CB 00                  NOP
5319   46CC 00                  NOP
5320   46CD 00                  NOP
5321   46CE 00                  NOP
5322   46CF 00                  NOP
5323   46D0 00                  NOP
5324   46D1 00                  NOP
5325   46D2 00                  NOP
5326   46D3 00                  NOP
5327   46D4 00                  NOP
5328   46D5 00                  NOP
5329   46D6 00                  NOP
5330   46D7 00                  NOP
5331   46D8 00                  NOP
5332   46D9 00                  NOP
5333   46DA 00                  NOP
5334   46DB 00                  NOP
5335   46DC 00                  NOP
5336   46DD 00                  NOP
5337   46DE 00                  NOP
5338   46DF 00                  NOP
5339   46E0 00                  NOP
5340   46E1 00                  NOP
5341   46E2 00                  NOP
5342   46E3 00                  NOP
5343   46E4 00                  NOP
5344   46E5 00                  NOP
5345   46E6 00                  NOP
5346   46E7 00                  NOP
5347   46E8 00                  NOP
5348   46E9 00                  NOP
5349   46EA 00                  NOP
5350   46EB 00                  NOP
5351   46EC 00                  NOP
5352   46ED 00                  NOP
5353   46EE 00                  NOP
5354   46EF 00                  NOP
5355   46F0 00                  NOP
5356   46F1 00                  NOP
5357   46F2 00                  NOP
5358   46F3 00                  NOP
5359   46F4 00                  NOP
5360   46F5 00                  NOP
5361   46F6 00                  NOP
5362   46F7 00                  NOP
5363   46F8 00                  NOP
5364   46F9 00                  NOP
5365   46FA 00                  NOP
5366   46FB 00                  NOP
5367   46FC 00                  NOP
5368   46FD 00                  NOP
5369   46FE 00                  NOP
5370   46FF 00                  NOP
5371   4700 00                  NOP
5372   4701 00                  NOP
5373   4702 00                  NOP
5374   4703 00                  NOP
5375   4704 00                  NOP
5376   4705 00                  NOP
5377   4706 00                  NOP
5378   4707 00                  NOP
5379   4708 00                  NOP
5380   4709 00                  NOP
5381   470A 00                  NOP
5382   470B 00                  NOP
5383   470C 00                  NOP
5384   470D 00                  NOP
5385   470E 00                  NOP
5386   470F 00                  NOP
5387   4710 00                  NOP
5388   4711 00                  NOP
5389   4712 00                  NOP
5390   4713 00                  NOP
5391   4714 00                  NOP
5392   4715 00                  NOP
5393   4716 00                  NOP
5394   4717 00                  NOP
5395   4718 00                  NOP
5396   4719 00                  NOP
5397   471A 00                  NOP
5398   471B 00                  NOP
5399   471C 00                  NOP
5400   471D 00                  NOP
5401   471E 00                  NOP
5402   471F 00                  NOP
5403   4720 00                  NOP
5404   4721 00                  NOP
5405   4722 00                  NOP
5406   4723 00                  NOP
5407   4724 00                  NOP
5408   4725 00                  NOP
5409   4726 00                  NOP
5410   4727 00                  NOP
5411   4728 00                  NOP
5412   4729 00                  NOP
5413   472A 00                  NOP
5414   472B 00                  NOP
5415   472C 00                  NOP
5416   472D 00                  NOP
5417   472E 00                  NOP
5418   472F 00                  NOP
5419   4730 00                  NOP
5420   4731 00                  NOP
5421   4732 00                  NOP
5422   4733 00                  NOP
5423   4734 00                  NOP
5424   4735 00                  NOP
5425   4736 00                  NOP
5426   4737 00                  NOP
5427   4738 00                  NOP
5428   4739 00                  NOP
5429   473A 00                  NOP
5430   473B 00                  NOP
5431   473C 00                  NOP
5432   473D 00                  NOP
5433   473E 00                  NOP
5434   473F 00                  NOP
5435   4740 00                  NOP
5436   4741 00                  NOP
5437   4742 00                  NOP
5438   4743 00                  NOP
5439   4744 00                  NOP
5440   4745 00                  NOP
5441   4746 00                  NOP
5442   4747 00                  NOP
5443   4748 00                  NOP
5444   4749 00                  NOP
5445   474A 00                  NOP
5446   474B 00                  NOP
5447   474C 00                  NOP
5448   474D 00                  NOP
5449   474E 00                  NOP
5450   474F 00                  NOP
5451   4750 00                  NOP
5452   4751 00                  NOP
5453   4752 00                  NOP
5454   4753 00                  NOP
5455   4754 00                  NOP
5456   4755 00                  NOP
5457   4756 00                  NOP
5458   4757 00                  NOP
5459   4758 00                  NOP
5460   4759 00                  NOP
5461   475A 00                  NOP
5462   475B 00                  NOP
5463   475C 00                  NOP
5464   475D 00                  NOP
5465   475E 00                  NOP
5466   475F 00                  NOP
5467   4760 00                  NOP
5468   4761 00                  NOP
5469   4762 00                  NOP
5470   4763 00                  NOP
5471   4764 00                  NOP
5472   4765 00                  NOP
5473   4766 00                  NOP
5474   4767 00                  NOP
5475   4768 00                  NOP
5476   4769 00                  NOP
5477   476A 00                  NOP
5478   476B 00                  NOP
5479   476C 00                  NOP
5480   476D 00                  NOP
5481   476E 00                  NOP
5482   476F 00                  NOP
5483   4770 00                  NOP
5484   4771 00                  NOP
5485   4772 00                  NOP
5486   4773 00                  NOP
5487   4774 00                  NOP
5488   4775 00                  NOP
5489   4776 00                  NOP
5490   4777 00                  NOP
5491   4778 00                  NOP
5492   4779 00                  NOP
5493   477A 00                  NOP
5494   477B 00                  NOP
5495   477C 00                  NOP
5496   477D 00                  NOP
5497   477E 00                  NOP
5498   477F 00                  NOP
5499   4780 00                  NOP
5500   4781 00                  NOP
5501   4782 00                  NOP
5502   4783 00                  NOP
5503   4784 00                  NOP
5504   4785 00                  NOP
5505   4786 00                  NOP
5506   4787 00                  NOP
5507   4788 00                  NOP
5508   4789 00                  NOP
5509   478A 00                  NOP
5510   478B 00                  NOP
5511   478C 00                  NOP
5512   478D 00                  NOP
5513   478E 00                  NOP
5514   478F 00                  NOP
5515   4790 00                  NOP
5516   4791 00                  NOP
5517   4792 00                  NOP
5518   4793 00                  NOP
5519   4794 00                  NOP
5520   4795 00                  NOP
5521   4796 00                  NOP
5522   4797 00                  NOP
5523   4798 00                  NOP
5524   4799 00                  NOP
5525   479A 00                  NOP
5526   479B 00                  NOP
5527   479C 00                  NOP
5528   479D 00                  NOP
5529   479E 00                  NOP
5530   479F 00                  NOP
5531   47A0 00                  NOP
5532   47A1 00                  NOP
5533   47A2 00                  NOP
5534   47A3 00                  NOP
5535   47A4 00                  NOP
5536   47A5 00                  NOP
5537   47A6 00                  NOP
5538   47A7 00                  NOP
5539   47A8 00                  NOP
5540   47A9 00                  NOP
5541   47AA 00                  NOP
5542   47AB 00                  NOP
5543   47AC 00                  NOP
5544   47AD 00                  NOP
5545   47AE 00                  NOP
5546   47AF 00                  NOP
5547   47B0 00                  NOP
5548   47B1 00                  NOP
5549   47B2 00                  NOP
5550   47B3 00                  NOP
5551   47B4 00                  NOP
5552   47B5 00                  NOP
5553   47B6 00                  NOP
5554   47B7 00                  NOP
5555   47B8 00                  NOP
5556   47B9 00                  NOP
5557   47BA 00                  NOP
5558   47BB 00                  NOP
5559   47BC 00                  NOP
5560   47BD 00                  NOP
5561   47BE 00                  NOP
5562   47BF 00                  NOP
5563   47C0 00                  NOP
5564   47C1 00                  NOP
5565   47C2 00                  NOP
5566   47C3 00                  NOP
5567   47C4 00                  NOP
5568   47C5 00                  NOP
5569   47C6 00                  NOP
5570   47C7 00                  NOP
5571   47C8 00                  NOP
5572   47C9 00                  NOP
5573   47CA 00                  NOP
5574   47CB 00                  NOP
5575   47CC 00                  NOP
5576   47CD 00                  NOP
5577   47CE 00                  NOP
5578   47CF 00                  NOP
5579   47D0 00                  NOP
5580   47D1 00                  NOP
5581   47D2 00                  NOP
5582   47D3 00                  NOP
5583   47D4 00                  NOP
5584   47D5 00                  NOP
5585   47D6 00                  NOP
5586   47D7 00                  NOP
5587   47D8 00                  NOP
5588   47D9 00                  NOP
5589   47DA 00                  NOP
5590   47DB 00                  NOP
5591   47DC 00                  NOP
5592   47DD 00                  NOP
5593   47DE 00                  NOP
5594   47DF 00                  NOP
5595   47E0 00                  NOP
5596   47E1 00                  NOP
5597   47E2 00                  NOP
5598   47E3 00                  NOP
5599   47E4 00                  NOP
5600   47E5 00                  NOP
5601   47E6 00                  NOP
5602   47E7 00                  NOP
5603   47E8 00                  NOP
5604   47E9 00                  NOP
5605   47EA 00                  NOP
5606   47EB 00                  NOP
5607   47EC 00                  NOP
5608   47ED 00                  NOP
5609   47EE 00                  NOP
5610   47EF 00                  NOP
5611   47F0 00                  NOP
5612   47F1 00                  NOP
5613   47F2 00                  NOP
5614   47F3 00                  NOP
5615   47F4 00                  NOP
5616   47F5 00                  NOP
5617   47F6 00                  NOP
5618   47F7 00                  NOP
5619   47F8 00                  NOP
5620   47F9 00                  NOP
5621   47FA 00                  NOP
5622   47FB 00                  NOP
5623   47FC 00                  NOP
5624   47FD 00                  NOP
5625   47FE 00                  NOP
5626   47FF 00                  NOP
5627   4800 00                  NOP
5628   4801 00                  NOP
5629   4802 00                  NOP
5630   4803 00                  NOP
5631   4804 00                  NOP
5632   4805 00                  NOP
5633   4806 00                  NOP
5634   4807 00                  NOP
5635   4808 00                  NOP
5636   4809 00                  NOP
5637   480A 00                  NOP
5638   480B 00                  NOP
5639   480C 00                  NOP
5640   480D 00                  NOP
5641   480E 00                  NOP
5642   480F 00                  NOP
5643   4810 00                  NOP
5644   4811 00                  NOP
5645   4812 00                  NOP
5646   4813 00                  NOP
5647   4814 00                  NOP
5648   4815 00                  NOP
5649   4816 00                  NOP
5650   4817 00                  NOP
5651   4818 00                  NOP
5652   4819 00                  NOP
5653   481A 00                  NOP
5654   481B 00                  NOP
5655   481C 00                  NOP
5656   481D 00                  NOP
5657   481E 00                  NOP
5658   481F 00                  NOP
5659   4820 00                  NOP
5660   4821 00                  NOP
5661   4822 00                  NOP
5662   4823 00                  NOP
5663   4824 00                  NOP
5664   4825 00                  NOP
5665   4826 00                  NOP
5666   4827 00                  NOP
5667   4828 00                  NOP
5668   4829 00                  NOP
5669   482A 00                  NOP
5670   482B 00                  NOP
5671   482C 00                  NOP
5672   482D 00                  NOP
5673   482E 00                  NOP
5674   482F 00                  NOP
5675   4830 00                  NOP
5676   4831 00                  NOP
5677   4832 00                  NOP
5678   4833 00                  NOP
5679   4834 00                  NOP
5680   4835 00                  NOP
5681   4836 00                  NOP
5682   4837 00                  NOP
5683   4838 00                  NOP
5684   4839 00                  NOP
5685   483A 00                  NOP
5686   483B 00                  NOP
5687   483C 00                  NOP
5688   483D 00                  NOP
5689   483E 00                  NOP
5690   483F 00                  NOP
5691   4840 00                  NOP
5692   4841 00                  NOP
5693   4842 00                  NOP
5694   4843 00                  NOP
5695   4844 00                  NOP
5696   4845 00                  NOP
5697   4846 00                  NOP
5698   4847 00                  NOP
5699   4848 00                  NOP
5700   4849 00                  NOP
5701   484A 00                  NOP
5702   484B 00                  NOP
5703   484C 00                  NOP
5704   484D 00                  NOP
5705   484E 00                  NOP
5706   484F 00                  NOP
5707   4850 00                  NOP
5708   4851 00                  NOP
5709   4852 00                  NOP
5710   4853 00                  NOP
5711   4854 00                  NOP
5712   4855 00                  NOP
5713   4856 00                  NOP
5714   4857 00                  NOP
5715   4858 00                  NOP
5716   4859 00                  NOP
5717   485A 00                  NOP
5718   485B 00                  NOP
5719   485C 00                  NOP
5720   485D 00                  NOP
5721   485E 00                  NOP
5722   485F 00                  NOP
5723   4860 00                  NOP
5724   4861 00                  NOP
5725   4862 00                  NOP
5726   4863 00                  NOP
5727   4864 00                  NOP
5728   4865 00                  NOP
5729   4866 00                  NOP
5730   4867 00                  NOP
5731   4868 00                  NOP
5732   4869 00                  NOP
5733   486A 00                  NOP
5734   486B 00                  NOP
5735   486C 00                  NOP
5736   486D 00                  NOP
5737   486E 00                  NOP
5738   486F 00                  NOP
5739   4870 00                  NOP
5740   4871 00                  NOP
5741   4872 00                  NOP
5742   4873 00                  NOP
5743   4874 00                  NOP
5744   4875 00                  NOP
5745   4876 00                  NOP
5746   4877 00                  NOP
5747   4878 00                  NOP
5748   4879 00                  NOP
5749   487A 00                  NOP
5750   487B 00                  NOP
5751   487C 00                  NOP
5752   487D 00                  NOP
5753   487E 00                  NOP
5754   487F 00                  NOP
5755   4880 00                  NOP
5756   4881 00                  NOP
5757   4882 00                  NOP
5758   4883 00                  NOP
5759   4884 00                  NOP
5760   4885 00                  NOP
5761   4886 00                  NOP
5762   4887 00                  NOP
5763   4888 00                  NOP
5764   4889 00                  NOP
5765   488A 00                  NOP
5766   488B 00                  NOP
5767   488C 00                  NOP
5768   488D 00                  NOP
5769   488E 00                  NOP
5770   488F 00                  NOP
5771   4890 00                  NOP
5772   4891 00                  NOP
5773   4892 00                  NOP
5774   4893 00                  NOP
5775   4894 00                  NOP
5776   4895 00                  NOP
5777   4896 00                  NOP
5778   4897 00                  NOP
5779   4898 00                  NOP
5780   4899 00                  NOP
5781   489A 00                  NOP
5782   489B 00                  NOP
5783   489C 00                  NOP
5784   489D 00                  NOP
5785   489E 00                  NOP
5786   489F 00                  NOP
5787   48A0 00                  NOP
5788   48A1 00                  NOP
5789   48A2 00                  NOP
5790   48A3 00                  NOP
5791   48A4 00                  NOP
5792   48A5 00                  NOP
5793   48A6 00                  NOP
5794   48A7 00                  NOP
5795   48A8 00                  NOP
5796   48A9 00                  NOP
5797   48AA 00                  NOP
5798   48AB 00                  NOP
5799   48AC 00                  NOP
5800   48AD 00                  NOP
5801   48AE 00                  NOP
5802   48AF 00                  NOP
5803   48B0 00                  NOP
5804   48B1 00                  NOP
5805   48B2 00                  NOP
5806   48B3 00                  NOP
5807   48B4 00                  NOP
5808   48B5 00                  NOP
5809   48B6 00                  NOP
5810   48B7 00                  NOP
5811   48B8 00                  NOP
5812   48B9 00                  NOP
5813   48BA 00                  NOP
5814   48BB 00                  NOP
5815   48BC 00                  NOP
5816   48BD 00                  NOP
5817   48BE 00                  NOP
5818   48BF 00                  NOP
5819   48C0 00                  NOP
5820   48C1 00                  NOP
5821   48C2 00                  NOP
5822   48C3 00                  NOP
5823   48C4 00                  NOP
5824   48C5 00                  NOP
5825   48C6 00                  NOP
5826   48C7 00                  NOP
5827   48C8 00                  NOP
5828   48C9 00                  NOP
5829   48CA 00                  NOP
5830   48CB 00                  NOP
5831   48CC 00                  NOP
5832   48CD 00                  NOP
5833   48CE 00                  NOP
5834   48CF 00                  NOP
5835   48D0 00                  NOP
5836   48D1 00                  NOP
5837   48D2 00                  NOP
5838   48D3 00                  NOP
5839   48D4 00                  NOP
5840   48D5 00                  NOP
5841   48D6 00                  NOP
5842   48D7 00                  NOP
5843   48D8 00                  NOP
5844   48D9 00                  NOP
5845   48DA 00                  NOP
5846   48DB 00                  NOP
5847   48DC 00                  NOP
5848   48DD 00                  NOP
5849   48DE 00                  NOP
5850   48DF 00                  NOP
5851   48E0 00                  NOP
5852   48E1 00                  NOP
5853   48E2 00                  NOP
5854   48E3 00                  NOP
5855   48E4 00                  NOP
5856   48E5 00                  NOP
5857   48E6 00                  NOP
5858   48E7 00                  NOP
5859   48E8 00                  NOP
5860   48E9 00                  NOP
5861   48EA 00                  NOP
5862   48EB 00                  NOP
5863   48EC 00                  NOP
5864   48ED 00                  NOP
5865   48EE 00                  NOP
5866   48EF 00                  NOP
5867   48F0 00                  NOP
5868   48F1 00                  NOP
5869   48F2 00                  NOP
5870   48F3 00                  NOP
5871   48F4 00                  NOP
5872   48F5 00                  NOP
5873   48F6 00                  NOP
5874   48F7 00                  NOP
5875   48F8 00                  NOP
5876   48F9 00                  NOP
5877   48FA 00                  NOP
5878   48FB 00                  NOP
5879   48FC 00                  NOP
5880   48FD 00                  NOP
5881   48FE 00                  NOP
5882   48FF 00                  NOP
5883   4900 00                  NOP
5884   4901 00                  NOP
5885   4902 00                  NOP
5886   4903 00                  NOP
5887   4904 00                  NOP
5888   4905 00                  NOP
5889   4906 00                  NOP
5890   4907 00                  NOP
5891   4908 00                  NOP
5892   4909 00                  NOP
5893   490A 00                  NOP
5894   490B 00                  NOP
5895   490C 00                  NOP
5896   490D 00                  NOP
5897   490E 00                  NOP
5898   490F 00                  NOP
5899   4910 00                  NOP
5900   4911 00                  NOP
5901   4912 00                  NOP
5902   4913 00                  NOP
5903   4914 00                  NOP
5904   4915 00                  NOP
5905   4916 00                  NOP
5906   4917 00                  NOP
5907   4918 00                  NOP
5908   4919 00                  NOP
5909   491A 00                  NOP
5910   491B 00                  NOP
5911   491C 00                  NOP
5912   491D 00                  NOP
5913   491E 00                  NOP
5914   491F 00                  NOP
5915   4920 00                  NOP
5916   4921 00                  NOP
5917   4922 00                  NOP
5918   4923 00                  NOP
5919   4924 00                  NOP
5920   4925 00                  NOP
5921   4926 00                  NOP
5922   4927 00                  NOP
5923   4928 00                  NOP
5924   4929 00                  NOP
5925   492A 00                  NOP
5926   492B 00                  NOP
5927   492C 00                  NOP
5928   492D 00                  NOP
5929   492E 00                  NOP
5930   492F 00                  NOP
5931   4930 00                  NOP
5932   4931 00                  NOP
5933   4932 00                  NOP
5934   4933 00                  NOP
5935   4934 00                  NOP
5936   4935 00                  NOP
5937   4936 00                  NOP
5938   4937 00                  NOP
5939   4938 00                  NOP
5940   4939 00                  NOP
5941   493A 00                  NOP
5942   493B 00                  NOP
5943   493C 00                  NOP
5944   493D 00                  NOP
5945   493E 00                  NOP
5946   493F 00                  NOP
5947   4940 00                  NOP
5948   4941 00                  NOP
5949   4942 00                  NOP
5950   4943 00                  NOP
5951   4944 00                  NOP
5952   4945 00                  NOP
5953   4946 00                  NOP
5954   4947 00                  NOP
5955   4948 00                  NOP
5956   4949 00                  NOP
5957   494A 00                  NOP
5958   494B 00                  NOP
5959   494C 00                  NOP
5960   494D 00                  NOP
5961   494E 00                  NOP
5962   494F 00                  NOP
5963   4950 00                  NOP
5964   4951 00                  NOP
5965   4952 00                  NOP
5966   4953 00                  NOP
5967   4954 00                  NOP
5968   4955 00                  NOP
5969   4956 00                  NOP
5970   4957 00                  NOP
5971   4958 00                  NOP
5972   4959 00                  NOP
5973   495A 00                  NOP
5974   495B 00                  NOP
5975   495C 00                  NOP
5976   495D 00                  NOP
5977   495E 00                  NOP
5978   495F 00                  NOP
5979   4960 00                  NOP
5980   4961 00                  NOP
5981   4962 00                  NOP
5982   4963 00                  NOP
5983   4964 00                  NOP
5984   4965 00                  NOP
5985   4966 00                  NOP
5986   4967 00                  NOP
5987   4968 00                  NOP
5988   4969 00                  NOP
5989   496A 00                  NOP
5990   496B 00                  NOP
5991   496C 00                  NOP
5992   496D 00                  NOP
5993   496E 00                  NOP
5994   496F 00                  NOP
5995   4970 00                  NOP
5996   4971 00                  NOP
5997   4972 00                  NOP
5998   4973 00                  NOP
5999   4974 00                  NOP
6000   4975 00                  NOP
6001   4976 00                  NOP
6002   4977 00                  NOP
6003   4978 00                  NOP
6004   4979 00                  NOP
6005   497A 00                  NOP
6006   497B 00                  NOP
6007   497C 00                  NOP
6008   497D 00                  NOP
6009   497E 00                  NOP
6010   497F 00                  NOP
6011   4980 00                  NOP
6012   4981 00                  NOP
6013   4982 00                  NOP
6014   4983 00                  NOP
6015   4984 00                  NOP
6016   4985 00                  NOP
6017   4986 00                  NOP
6018   4987 00                  NOP
6019   4988 00                  NOP
6020   4989 00                  NOP
6021   498A 00                  NOP
6022   498B 00                  NOP
6023   498C 00                  NOP
6024   498D 00                  NOP
6025   498E 00                  NOP
6026   498F 00                  NOP
6027   4990 00                  NOP
6028   4991 00                  NOP
6029   4992 00                  NOP
6030   4993 00                  NOP
6031   4994 00                  NOP
6032   4995 00                  NOP
6033   4996 00                  NOP
6034   4997 00                  NOP
6035   4998 00                  NOP
6036   4999 00                  NOP
6037   499A 00                  NOP
6038   499B 00                  NOP
6039   499C 00                  NOP
6040   499D 00                  NOP
6041   499E 00                  NOP
6042   499F 00                  NOP
6043   49A0 00                  NOP
6044   49A1 00                  NOP
6045   49A2 00                  NOP
6046   49A3 00                  NOP
6047   49A4 00                  NOP
6048   49A5 00                  NOP
6049   49A6 00                  NOP
6050   49A7 00                  NOP
6051   49A8 00                  NOP
6052   49A9 00                  NOP
6053   49AA 00                  NOP
6054   49AB 00                  NOP
6055   49AC 00                  NOP
6056   49AD 00                  NOP
6057   49AE 00                  NOP
6058   49AF 00                  NOP
6059   49B0 00                  NOP
6060   49B1 00                  NOP
6061   49B2 00                  NOP
6062   49B3 00                  NOP
6063   49B4 00                  NOP
6064   49B5 00                  NOP
6065   49B6 00                  NOP
6066   49B7 00                  NOP
6067   49B8 00                  NOP
6068   49B9 00                  NOP
6069   49BA 00                  NOP
6070   49BB 00                  NOP
6071   49BC 00                  NOP
6072   49BD 00                  NOP
6073   49BE 00                  NOP
6074   49BF 00                  NOP
6075   49C0 00                  NOP
6076   49C1 00                  NOP
6077   49C2 00                  NOP
6078   49C3 00                  NOP
6079   49C4 00                  NOP
6080   49C5 00                  NOP
6081   49C6 00                  NOP
6082   49C7 00                  NOP
6083   49C8 00                  NOP
6084   49C9 00                  NOP
6085   49CA 00                  NOP
6086   49CB 00                  NOP
6087   49CC 00                  NOP
6088   49CD 00                  NOP
6089   49CE 00                  NOP
6090   49CF 00                  NOP
6091   49D0 00                  NOP
6092   49D1 00                  NOP
6093   49D2 00                  NOP
6094   49D3 00                  NOP
6095   49D4 00                  NOP
6096   49D5 00                  NOP
6097   49D6 00                  NOP
6098   49D7 00                  NOP
6099   49D8 00                  NOP
6100   49D9 00                  NOP
6101   49DA 00                  NOP
6102   49DB 00                  NOP
6103   49DC 00                  NOP
6104   49DD 00                  NOP
6105   49DE 00                  NOP
6106   49DF 00                  NOP
6107   49E0 00                  NOP
6108   49E1 00                  NOP
6109   49E2 00                  NOP
6110   49E3 00                  NOP
6111   49E4 00                  NOP
6112   49E5 00                  NOP
6113   49E6 00                  NOP
6114   49E7 00                  NOP
6115   49E8 00                  NOP
6116   49E9 00                  NOP
6117   49EA 00                  NOP
6118   49EB 00                  NOP
6119   49EC 00                  NOP
6120   49ED 00                  NOP
6121   49EE 00                  NOP
6122   49EF 00                  NOP
6123   49F0 00                  NOP
6124   49F1 00                  NOP
6125   49F2 00                  NOP
6126   49F3 00                  NOP
6127   49F4 00                  NOP
6128   49F5 00                  NOP
6129   49F6 00                  NOP
6130   49F7 00                  NOP
6131   49F8 00                  NOP
6132   49F9 00                  NOP
6133   49FA 00                  NOP
6134   49FB 00                  NOP
6135   49FC 00                  NOP
6136   49FD 00                  NOP
6137   49FE 00                  NOP
6138   49FF 00                  NOP
6139   4A00 00                  NOP
6140   4A01 00                  NOP
6141   4A02 00                  NOP
6142   4A03 00                  NOP
6143   4A04 00                  NOP
6144   4A05 00                  NOP
6145   4A06 00                  NOP
6146   4A07 00                  NOP
6147   4A08 00                  NOP
6148   4A09 00                  NOP
6149   4A0A 00                  NOP
6150   4A0B 00                  NOP
6151   4A0C 00                  NOP
6152   4A0D 00                  NOP
6153   4A0E 00                  NOP
6154   4A0F 00                  NOP
6155   4A10 00                  NOP
6156   4A11 00                  NOP
6157   4A12 00                  NOP
6158   4A13 00                  NOP
6159   4A14 00                  NOP
6160   4A15 00                  NOP
6161   4A16 00                  NOP
6162   4A17 00                  NOP
6163   4A18 00                  NOP
6164   4A19 00                  NOP
6165   4A1A 00                  NOP
6166   4A1B 00                  NOP
6167   4A1C 00                  NOP
6168   4A1D 00                  NOP
6169   4A1E 00                  NOP
6170   4A1F 00                  NOP
6171   4A20 00                  NOP
6172   4A21 00                  NOP
6173   4A22 00                  NOP
6174   4A23 00                  NOP
6175   4A24 00                  NOP
6176   4A25 00                  NOP
6177   4A26 00                  NOP
6178   4A27 00                  NOP
6179   4A28 00                  NOP
6180   4A29 00                  NOP
6181   4A2A 00                  NOP
6182   4A2B 00                  NOP
6183   4A2C 00                  NOP
6184   4A2D 00                  NOP
6185   4A2E 00                  NOP
6186   4A2F 00                  NOP
6187   4A30 00                  NOP
6188   4A31 00                  NOP
6189   4A32 00                  NOP
6190   4A33 00                  NOP
6191   4A34 00                  NOP
6192   4A35 00                  NOP
6193   4A36 00                  NOP
6194   4A37 00                  NOP
6195   4A38 00                  NOP
6196   4A39 00                  NOP
6197   4A3A 00                  NOP
6198   4A3B 00                  NOP
6199   4A3C 00                  NOP
6200   4A3D 00                  NOP
6201   4A3E 00                  NOP
6202   4A3F 00                  NOP
6203   4A40 00                  NOP
6204   4A41 00                  NOP
6205   4A42 00                  NOP
6206   4A43 00                  NOP
6207   4A44 00                  NOP
6208   4A45 00                  NOP
6209   4A46 00                  NOP
6210   4A47 00                  NOP
6211   4A48 00                  NOP
6212   4A49 00                  NOP
6213   4A4A 00                  NOP
6214   4A4B 00                  NOP
6215   4A4C 00                  NOP
6216   4A4D 00                  NOP
6217   4A4E 00                  NOP
6218   4A4F 00                  NOP
6219   4A50 00                  NOP
6220   4A51 00                  NOP
6221   4A52 00                  NOP
6222   4A53 00                  NOP
6223   4A54 00                  NOP
6224   4A55 00                  NOP
6225   4A56 00                  NOP
6226   4A57 00                  NOP
6227   4A58 00                  NOP
6228   4A59 00                  NOP
6229   4A5A 00                  NOP
6230   4A5B 00                  NOP
6231   4A5C 00                  NOP
6232   4A5D 00                  NOP
6233   4A5E 00                  NOP
6234   4A5F 00                  NOP
6235   4A60 00                  NOP
6236   4A61 00                  NOP
6237   4A62 00                  NOP
6238   4A63 00                  NOP
6239   4A64 00                  NOP
6240   4A65 00                  NOP
6241   4A66 00                  NOP
6242   4A67 00                  NOP
6243   4A68 00                  NOP
6244   4A69 00                  NOP
6245   4A6A 00                  NOP
6246   4A6B 00                  NOP
6247   4A6C 00                  NOP
6248   4A6D 00                  NOP
6249   4A6E 00                  NOP
6250   4A6F 00                  NOP
6251   4A70 00                  NOP
6252   4A71 00                  NOP
6253   4A72 00                  NOP
6254   4A73 00                  NOP
6255   4A74 00                  NOP
6256   4A75 00                  NOP
6257   4A76 00                  NOP
6258   4A77 00                  NOP
6259   4A78 00                  NOP
6260   4A79 00                  NOP
6261   4A7A 00                  NOP
6262   4A7B 00                  NOP
6263   4A7C 00                  NOP
6264   4A7D 00                  NOP
6265   4A7E 00                  NOP
6266   4A7F 00                  NOP
6267   4A80 00                  NOP
6268   4A81 00                  NOP
6269   4A82 00                  NOP
6270   4A83 00                  NOP
6271   4A84 00                  NOP
6272   4A85 00                  NOP
6273   4A86 00                  NOP
6274   4A87 00                  NOP
6275   4A88 00                  NOP
6276   4A89 00                  NOP
6277   4A8A 00                  NOP
6278   4A8B 00                  NOP
6279   4A8C 00                  NOP
6280   4A8D 00                  NOP
6281   4A8E 00                  NOP
6282   4A8F 00                  NOP
6283   4A90 00                  NOP
6284   4A91 00                  NOP
6285   4A92 00                  NOP
6286   4A93 00                  NOP
6287   4A94 00                  NOP
6288   4A95 00                  NOP
6289   4A96 00                  NOP
6290   4A97 00                  NOP
6291   4A98 00                  NOP
6292   4A99 00                  NOP
6293   4A9A 00                  NOP
6294   4A9B 00                  NOP
6295   4A9C 00                  NOP
6296   4A9D 00                  NOP
6297   4A9E 00                  NOP
6298   4A9F 00                  NOP
6299   4AA0 00                  NOP
6300   4AA1 00                  NOP
6301   4AA2 00                  NOP
6302   4AA3 00                  NOP
6303   4AA4 00                  NOP
6304   4AA5 00                  NOP
6305   4AA6 00                  NOP
6306   4AA7 00                  NOP
6307   4AA8 00                  NOP
6308   4AA9 00                  NOP
6309   4AAA 00                  NOP
6310   4AAB 00                  NOP
6311   4AAC 00                  NOP
6312   4AAD 00                  NOP
6313   4AAE 00                  NOP
6314   4AAF 00                  NOP
6315   4AB0 00                  NOP
6316   4AB1 00                  NOP
6317   4AB2 00                  NOP
6318   4AB3 00                  NOP
6319   4AB4 00                  NOP
6320   4AB5 00                  NOP
6321   4AB6 00                  NOP
6322   4AB7 00                  NOP
6323   4AB8 00                  NOP
6324   4AB9 00                  NOP
6325   4ABA 00                  NOP
6326   4ABB 00                  NOP
6327   4ABC 00                  NOP
6328   4ABD 00                  NOP
6329   4ABE 00                  NOP
6330   4ABF 00                  NOP
6331   4AC0 00                  NOP
6332   4AC1 00                  NOP
6333   4AC2 00                  NOP
6334   4AC3 00                  NOP
6335   4AC4 00                  NOP
6336   4AC5 00                  NOP
6337   4AC6 00                  NOP
6338   4AC7 00                  NOP
6339   4AC8 00                  NOP
6340   4AC9 00                  NOP
6341   4ACA 00                  NOP
6342   4ACB 00                  NOP
6343   4ACC 00                  NOP
6344   4ACD 00                  NOP
6345   4ACE 00                  NOP
6346   4ACF 00                  NOP
6347   4AD0 00                  NOP
6348   4AD1 00                  NOP
6349   4AD2 00                  NOP
6350   4AD3 00                  NOP
6351   4AD4 00                  NOP
6352   4AD5 00                  NOP
6353   4AD6 00                  NOP
6354   4AD7 00                  NOP
6355   4AD8 00                  NOP
6356   4AD9 00                  NOP
6357   4ADA 00                  NOP
6358   4ADB 00                  NOP
6359   4ADC 00                  NOP
6360   4ADD 00                  NOP
6361   4ADE 00                  NOP
6362   4ADF 00                  NOP
6363   4AE0 00                  NOP
6364   4AE1 00                  NOP
6365   4AE2 00                  NOP
6366   4AE3 00                  NOP
6367   4AE4 00                  NOP
6368   4AE5 00                  NOP
6369   4AE6 00                  NOP
6370   4AE7 00                  NOP
6371   4AE8 00                  NOP
6372   4AE9 00                  NOP
6373   4AEA 00                  NOP
6374   4AEB 00                  NOP
6375   4AEC 00                  NOP
6376   4AED 00                  NOP
6377   4AEE 00                  NOP
6378   4AEF 00                  NOP
6379   4AF0 00                  NOP
6380   4AF1 00                  NOP
6381   4AF2 00                  NOP
6382   4AF3 00                  NOP
6383   4AF4 00                  NOP
6384   4AF5 00                  NOP
6385   4AF6 00                  NOP
6386   4AF7 00                  NOP
6387   4AF8 00                  NOP
6388   4AF9 00                  NOP
6389   4AFA 00                  NOP
6390   4AFB 00                  NOP
6391   4AFC 00                  NOP
6392   4AFD 00                  NOP
6393   4AFE 00                  NOP
6394   4AFF 00                  NOP
6395   4B00 00                  NOP
6396   4B01 00                  NOP
6397   4B02 00                  NOP
6398   4B03 00                  NOP
6399   4B04 00                  NOP
6400   4B05 00                  NOP
6401   4B06 00                  NOP
6402   4B07 00                  NOP
6403   4B08 00                  NOP
6404   4B09 00                  NOP
6405   4B0A 00                  NOP
6406   4B0B 00                  NOP
6407   4B0C 00                  NOP
6408   4B0D 00                  NOP
6409   4B0E 00                  NOP
6410   4B0F 00                  NOP
6411   4B10 00                  NOP
6412   4B11 00                  NOP
6413   4B12 00                  NOP
6414   4B13 00                  NOP
6415   4B14 00                  NOP
6416   4B15 00                  NOP
6417   4B16 00                  NOP
6418   4B17 00                  NOP
6419   4B18 00                  NOP
6420   4B19 00                  NOP
6421   4B1A 00                  NOP
6422   4B1B 00                  NOP
6423   4B1C 00                  NOP
6424   4B1D 00                  NOP
6425   4B1E 00                  NOP
6426   4B1F 00                  NOP
6427   4B20 00                  NOP
6428   4B21 00                  NOP
6429   4B22 00                  NOP
6430   4B23 00                  NOP
6431   4B24 00                  NOP
6432   4B25 00                  NOP
6433   4B26 00                  NOP
6434   4B27 00                  NOP
6435   4B28 00                  NOP
6436   4B29 00                  NOP
6437   4B2A 00                  NOP
6438   4B2B 00                  NOP
6439   4B2C 00                  NOP
6440   4B2D 00                  NOP
6441   4B2E 00                  NOP
6442   4B2F 00                  NOP
6443   4B30 00                  NOP
6444   4B31 00                  NOP
6445   4B32 00                  NOP
6446   4B33 00                  NOP
6447   4B34 00                  NOP
6448   4B35 00                  NOP
6449   4B36 00                  NOP
6450   4B37 00                  NOP
6451   4B38 00                  NOP
6452   4B39 00                  NOP
6453   4B3A 00                  NOP
6454   4B3B 00                  NOP
6455   4B3C 00                  NOP
6456   4B3D 00                  NOP
6457   4B3E 00                  NOP
6458   4B3F 00                  NOP
6459   4B40 00                  NOP
6460   4B41 00                  NOP
6461   4B42 00                  NOP
6462   4B43 00                  NOP
6463   4B44 00                  NOP
6464   4B45 00                  NOP
6465   4B46 00                  NOP
6466   4B47 00                  NOP
6467   4B48 00                  NOP
6468   4B49 00                  NOP
6469   4B4A 00                  NOP
6470   4B4B 00                  NOP
6471   4B4C 00                  NOP
6472   4B4D 00                  NOP
6473   4B4E 00                  NOP
6474   4B4F 00                  NOP
6475   4B50 00                  NOP
6476   4B51 00                  NOP
6477   4B52 00                  NOP
6478   4B53 00                  NOP
6479   4B54 00                  NOP
6480   4B55 00                  NOP
6481   4B56 00                  NOP
6482   4B57 00                  NOP
6483   4B58 00                  NOP
6484   4B59 00                  NOP
6485   4B5A 00                  NOP
6486   4B5B 00                  NOP
6487   4B5C 00                  NOP
6488   4B5D 00                  NOP
6489   4B5E 00                  NOP
6490   4B5F 00                  NOP
6491   4B60 00                  NOP
6492   4B61 00                  NOP
6493   4B62 00                  NOP
6494   4B63 00                  NOP
6495   4B64 00                  NOP
6496   4B65 00                  NOP
6497   4B66 00                  NOP
6498   4B67 00                  NOP
6499   4B68 00                  NOP
6500   4B69 00                  NOP
6501   4B6A 00                  NOP
6502   4B6B 00                  NOP
6503   4B6C 00                  NOP
6504   4B6D 00                  NOP
6505   4B6E 00                  NOP
6506   4B6F 00                  NOP
6507   4B70 00                  NOP
6508   4B71 00                  NOP
6509   4B72 00                  NOP
6510   4B73 00                  NOP
6511   4B74 00                  NOP
6512   4B75 00                  NOP
6513   4B76 00                  NOP
6514   4B77 00                  NOP
6515   4B78 00                  NOP
6516   4B79 00                  NOP
6517   4B7A 00                  NOP
6518   4B7B 00                  NOP
6519   4B7C 00                  NOP
6520   4B7D 00                  NOP
6521   4B7E 00                  NOP
6522   4B7F 00                  NOP
6523   4B80 00                  NOP
6524   4B81 00                  NOP
6525   4B82 00                  NOP
6526   4B83 00                  NOP
6527   4B84 00                  NOP
6528   4B85 00                  NOP
6529   4B86 00                  NOP
6530   4B87 00                  NOP
6531   4B88 00                  NOP
6532   4B89 00                  NOP
6533   4B8A 00                  NOP
6534   4B8B 00                  NOP
6535   4B8C 00                  NOP
6536   4B8D 00                  NOP
6537   4B8E 00                  NOP
6538   4B8F 00                  NOP
6539   4B90 00                  NOP
6540   4B91 00                  NOP
6541   4B92 00                  NOP
6542   4B93 00                  NOP
6543   4B94 00                  NOP
6544   4B95 00                  NOP
6545   4B96 00                  NOP
6546   4B97 00                  NOP
6547   4B98 00                  NOP
6548   4B99 00                  NOP
6549   4B9A 00                  NOP
6550   4B9B 00                  NOP
6551   4B9C 00                  NOP
6552   4B9D 00                  NOP
6553   4B9E 00                  NOP
6554   4B9F 00                  NOP
6555   4BA0 00                  NOP
6556   4BA1 00                  NOP
6557   4BA2 00                  NOP
6558   4BA3 00                  NOP
6559   4BA4 00                  NOP
6560   4BA5 00                  NOP
6561   4BA6 00                  NOP
6562   4BA7 00                  NOP
6563   4BA8 00                  NOP
6564   4BA9 00                  NOP
6565   4BAA 00                  NOP
6566   4BAB 00                  NOP
6567   4BAC 00                  NOP
6568   4BAD 00                  NOP
6569   4BAE 00                  NOP
6570   4BAF 00                  NOP
6571   4BB0 00                  NOP
6572   4BB1 00                  NOP
6573   4BB2 00                  NOP
6574   4BB3 00                  NOP
6575   4BB4 00                  NOP
6576   4BB5 00                  NOP
6577   4BB6 00                  NOP
6578   4BB7 00                  NOP
6579   4BB8 00                  NOP
6580   4BB9 00                  NOP
6581   4BBA 00                  NOP
6582   4BBB 00                  NOP
6583   4BBC 00                  NOP
6584   4BBD 00                  NOP
6585   4BBE 00                  NOP
6586   4BBF 00                  NOP
6587   4BC0 00                  NOP
6588   4BC1 00                  NOP
6589   4BC2 00                  NOP
6590   4BC3 00                  NOP
6591   4BC4 00                  NOP
6592   4BC5 00                  NOP
6593   4BC6 00                  NOP
6594   4BC7 00                  NOP
6595   4BC8 00                  NOP
6596   4BC9 00                  NOP
6597   4BCA 00                  NOP
6598   4BCB 00                  NOP
6599   4BCC 00                  NOP
6600   4BCD 00                  NOP
6601   4BCE 00                  NOP
6602   4BCF 00                  NOP
6603   4BD0 00                  NOP
6604   4BD1 00                  NOP
6605   4BD2 00                  NOP
6606   4BD3 00                  NOP
6607   4BD4 00                  NOP
6608   4BD5 00                  NOP
6609   4BD6 00                  NOP
6610   4BD7 00                  NOP
6611   4BD8 00                  NOP
6612   4BD9 00                  NOP
6613   4BDA 00                  NOP
6614   4BDB 00                  NOP
6615   4BDC 00                  NOP
6616   4BDD 00                  NOP
6617   4BDE 00                  NOP
6618   4BDF 00                  NOP
6619   4BE0 00                  NOP
6620   4BE1 00                  NOP
6621   4BE2 00                  NOP
6622   4BE3 00                  NOP
6623   4BE4 00                  NOP
6624   4BE5 00                  NOP
6625   4BE6 00                  NOP
6626   4BE7 00                  NOP
6627   4BE8 00                  NOP
6628   4BE9 00                  NOP
6629   4BEA 00                  NOP
6630   4BEB 00                  NOP
6631   4BEC 00                  NOP
6632   4BED 00                  NOP
6633   4BEE 00                  NOP
6634   4BEF 00                  NOP
6635   4BF0 00                  NOP
6636   4BF1 00                  NOP
6637   4BF2 00                  NOP
6638   4BF3 00                  NOP
6639   4BF4 00                  NOP
6640   4BF5 00                  NOP
6641   4BF6 00                  NOP
6642   4BF7 00                  NOP
6643   4BF8 00                  NOP
6644   4BF9 00                  NOP
6645   4BFA 00                  NOP
6646   4BFB 00                  NOP
6647   4BFC 00                  NOP
6648   4BFD 00                  NOP
6649   4BFE 00                  NOP
6650   4BFF 00                  NOP
6651   4C00 00                  NOP
6652   4C01 00                  NOP
6653   4C02 00                  NOP
6654   4C03 00                  NOP
6655   4C04 00                  NOP
6656   4C05 00                  NOP
6657   4C06 00                  NOP
6658   4C07 00                  NOP
6659   4C08 00                  NOP
6660   4C09 00                  NOP
6661   4C0A 00                  NOP
6662   4C0B 00                  NOP
6663   4C0C 00                  NOP
6664   4C0D 00                  NOP
6665   4C0E 00                  NOP
6666   4C0F 00                  NOP
6667   4C10 00                  NOP
6668   4C11 00                  NOP
6669   4C12 00                  NOP
6670   4C13 00                  NOP
6671   4C14 00                  NOP
6672   4C15 00                  NOP
6673   4C16 00                  NOP
6674   4C17 00                  NOP
6675   4C18 00                  NOP
6676   4C19 00                  NOP
6677   4C1A 00                  NOP
6678   4C1B 00                  NOP
6679   4C1C 00                  NOP
6680   4C1D 00                  NOP
6681   4C1E 00                  NOP
6682   4C1F 00                  NOP
6683   4C20 00                  NOP
6684   4C21 00                  NOP
6685   4C22 00                  NOP
6686   4C23 00                  NOP
6687   4C24 00                  NOP
6688   4C25 00                  NOP
6689   4C26 00                  NOP
6690   4C27 00                  NOP
6691   4C28 00                  NOP
6692   4C29 00                  NOP
6693   4C2A 00                  NOP
6694   4C2B 00                  NOP
6695   4C2C 00                  NOP
6696   4C2D 00                  NOP
6697   4C2E 00                  NOP
6698   4C2F 00                  NOP
6699   4C30 00                  NOP
6700   4C31 00                  NOP
6701   4C32 00                  NOP
6702   4C33 00                  NOP
6703   4C34 00                  NOP
6704   4C35 00                  NOP
6705   4C36 00                  NOP
6706   4C37 00                  NOP
6707   4C38 00                  NOP
6708   4C39 00                  NOP
6709   4C3A 00                  NOP
6710   4C3B 00                  NOP
6711   4C3C 00                  NOP
6712   4C3D 00                  NOP
6713   4C3E 00                  NOP
6714   4C3F 00                  NOP
6715   4C40 00                  NOP
6716   4C41 00                  NOP
6717   4C42 00                  NOP
6718   4C43 00                  NOP
6719   4C44 00                  NOP
6720   4C45 00                  NOP
6721   4C46 00                  NOP
6722   4C47 00                  NOP
6723   4C48 00                  NOP
6724   4C49 00                  NOP
6725   4C4A 00                  NOP
6726   4C4B 00                  NOP
6727   4C4C 00                  NOP
6728   4C4D 00                  NOP
6729   4C4E 00                  NOP
6730   4C4F 00                  NOP
6731   4C50 00                  NOP
6732   4C51 00                  NOP
6733   4C52 00                  NOP
6734   4C53 00                  NOP
6735   4C54 00                  NOP
6736   4C55 00                  NOP
6737   4C56 00                  NOP
6738   4C57 00                  NOP
6739   4C58 00                  NOP
6740   4C59 00                  NOP
6741   4C5A 00                  NOP
6742   4C5B 00                  NOP
6743   4C5C 00                  NOP
6744   4C5D 00                  NOP
6745   4C5E 00                  NOP
6746   4C5F 00                  NOP
6747   4C60 00                  NOP
6748   4C61 00                  NOP
6749   4C62 00                  NOP
6750   4C63 00                  NOP
6751   4C64 00                  NOP
6752   4C65 00                  NOP
6753   4C66 00                  NOP
6754   4C67 00                  NOP
6755   4C68 00                  NOP
6756   4C69 00                  NOP
6757   4C6A 00                  NOP
6758   4C6B 00                  NOP
6759   4C6C 00                  NOP
6760   4C6D 00                  NOP
6761   4C6E 00                  NOP
6762   4C6F 00                  NOP
6763   4C70 00                  NOP
6764   4C71 00                  NOP
6765   4C72 00                  NOP
6766   4C73 00                  NOP
6767   4C74 00                  NOP
6768   4C75 00                  NOP
6769   4C76 00                  NOP
6770   4C77 00                  NOP
6771   4C78 00                  NOP
6772   4C79 00                  NOP
6773   4C7A 00                  NOP
6774   4C7B 00                  NOP
6775   4C7C 00                  NOP
6776   4C7D 00                  NOP
6777   4C7E 00                  NOP
6778   4C7F 00                  NOP
6779   4C80 00                  NOP
6780   4C81 00                  NOP
6781   4C82 00                  NOP
6782   4C83 00                  NOP
6783   4C84 00                  NOP
6784   4C85 00                  NOP
6785   4C86 00                  NOP
6786   4C87 00                  NOP
6787   4C88 00                  NOP
6788   4C89 00                  NOP
6789   4C8A 00                  NOP
6790   4C8B 00                  NOP
6791   4C8C 00                  NOP
6792   4C8D 00                  NOP
6793   4C8E 00                  NOP
6794   4C8F 00                  NOP
6795   4C90 00                  NOP
6796   4C91 00                  NOP
6797   4C92 00                  NOP
6798   4C93 00                  NOP
6799   4C94 00                  NOP
6800   4C95 00                  NOP
6801   4C96 00                  NOP
6802   4C97 00                  NOP
6803   4C98 00                  NOP
6804   4C99 00                  NOP
6805   4C9A 00                  NOP
6806   4C9B 00                  NOP
6807   4C9C 00                  NOP
6808   4C9D 00                  NOP
6809   4C9E 00                  NOP
6810   4C9F 00                  NOP
6811   4CA0 00                  NOP
6812   4CA1 00                  NOP
6813   4CA2 00                  NOP
6814   4CA3 00                  NOP
6815   4CA4 00                  NOP
6816   4CA5 00                  NOP
6817   4CA6 00                  NOP
6818   4CA7 00                  NOP
6819   4CA8 00                  NOP
6820   4CA9 00                  NOP
6821   4CAA 00                  NOP
6822   4CAB 00                  NOP
6823   4CAC 00                  NOP
6824   4CAD 00                  NOP
6825   4CAE 00                  NOP
6826   4CAF 00                  NOP
6827   4CB0 00                  NOP
6828   4CB1 00                  NOP
6829   4CB2 00                  NOP
6830   4CB3 00                  NOP
6831   4CB4 00                  NOP
6832   4CB5 00                  NOP
6833   4CB6 00                  NOP
6834   4CB7 00                  NOP
6835   4CB8 00                  NOP
6836   4CB9 00                  NOP
6837   4CBA 00                  NOP
6838   4CBB 00                  NOP
6839   4CBC 00                  NOP
6840   4CBD 00                  NOP
6841   4CBE 00                  NOP
6842   4CBF 00                  NOP
6843   4CC0 00                  NOP
6844   4CC1 00                  NOP
6845   4CC2 00                  NOP
6846   4CC3 00                  NOP
6847   4CC4 00                  NOP
6848   4CC5 00                  NOP
6849   4CC6 00                  NOP
6850   4CC7 00                  NOP
6851   4CC8 00                  NOP
6852   4CC9 00                  NOP
6853   4CCA 00                  NOP
6854   4CCB 00                  NOP
6855   4CCC 00                  NOP
6856   4CCD 00                  NOP
6857   4CCE 00                  NOP
6858   4CCF 00                  NOP
6859   4CD0 00                  NOP
6860   4CD1 00                  NOP
6861   4CD2 00                  NOP
6862   4CD3 00                  NOP
6863   4CD4 00                  NOP
6864   4CD5 00                  NOP
6865   4CD6 00                  NOP
6866   4CD7 00                  NOP
6867   4CD8 00                  NOP
6868   4CD9 00                  NOP
6869   4CDA 00                  NOP
6870   4CDB 00                  NOP
6871   4CDC 00                  NOP
6872   4CDD 00                  NOP
6873   4CDE 00                  NOP
6874   4CDF 00                  NOP
6875   4CE0 00                  NOP
6876   4CE1 00                  NOP
6877   4CE2 00                  NOP
6878   4CE3 00                  NOP
6879   4CE4 00                  NOP
6880   4CE5 00                  NOP
6881   4CE6 00                  NOP
6882   4CE7 00                  NOP
6883   4CE8 00                  NOP
6884   4CE9 00                  NOP
6885   4CEA 00                  NOP
6886   4CEB 00                  NOP
6887   4CEC 00                  NOP
6888   4CED 00                  NOP
6889   4CEE 00                  NOP
6890   4CEF 00                  NOP
6891   4CF0 00                  NOP
6892   4CF1 00                  NOP
6893   4CF2 00                  NOP
6894   4CF3 00                  NOP
6895   4CF4 00                  NOP
6896   4CF5 00                  NOP
6897   4CF6 00                  NOP
6898   4CF7 00                  NOP
6899   4CF8 00                  NOP
6900   4CF9 00                  NOP
6901   4CFA 00                  NOP
6902   4CFB 00                  NOP
6903   4CFC 00                  NOP
6904   4CFD 00                  NOP
6905   4CFE 00                  NOP
6906   4CFF 00                  NOP
6907   4D00 00                  NOP
6908   4D01 00                  NOP
6909   4D02 00                  NOP
6910   4D03 00                  NOP
6911   4D04 00                  NOP
6912   4D05 00                  NOP
6913   4D06 00                  NOP
6914   4D07 00                  NOP
6915   4D08 00                  NOP
6916   4D09 00                  NOP
6917   4D0A 00                  NOP
6918   4D0B 00                  NOP
6919   4D0C 00                  NOP
6920   4D0D 00                  NOP
6921   4D0E 00                  NOP
6922   4D0F 00                  NOP
6923   4D10 00                  NOP
6924   4D11 00                  NOP
6925   4D12 00                  NOP
6926   4D13 00                  NOP
6927   4D14 00                  NOP
6928   4D15 00                  NOP
6929   4D16 00                  NOP
6930   4D17 00                  NOP
6931   4D18 00                  NOP
6932   4D19 00                  NOP
6933   4D1A 00                  NOP
6934   4D1B 00                  NOP
6935   4D1C 00                  NOP
6936   4D1D 00                  NOP
6937   4D1E 00                  NOP
6938   4D1F 00                  NOP
6939   4D20 00                  NOP
6940   4D21 00                  NOP
6941   4D22 00                  NOP
6942   4D23 00                  NOP
6943   4D24 00                  NOP
6944   4D25 00                  NOP
6945   4D26 00                  NOP
6946   4D27 00                  NOP
6947   4D28 00                  NOP
6948   4D29 00                  NOP
6949   4D2A 00                  NOP
6950   4D2B 00                  NOP
6951   4D2C 00                  NOP
6952   4D2D 00                  NOP
6953   4D2E 00                  NOP
6954   4D2F 00                  NOP
6955   4D30 00                  NOP
6956   4D31 00                  NOP
6957   4D32 00                  NOP
6958   4D33 00                  NOP
6959   4D34 00                  NOP
6960   4D35 00                  NOP
6961   4D36 00                  NOP
6962   4D37 00                  NOP
6963   4D38 00                  NOP
6964   4D39 00                  NOP
6965   4D3A 00                  NOP
6966   4D3B 00                  NOP
6967   4D3C 00                  NOP
6968   4D3D 00                  NOP
6969   4D3E 00                  NOP
6970   4D3F 00                  NOP
6971   4D40 00                  NOP
6972   4D41 00                  NOP
6973   4D42 00                  NOP
6974   4D43 00                  NOP
6975   4D44 00                  NOP
6976   4D45 00                  NOP
6977   4D46 00                  NOP
6978   4D47 00                  NOP
6979   4D48 00                  NOP
6980   4D49 00                  NOP
6981   4D4A 00                  NOP
6982   4D4B 00                  NOP
6983   4D4C 00                  NOP
6984   4D4D 00                  NOP
6985   4D4E 00                  NOP
6986   4D4F 00                  NOP
6987   4D50 00                  NOP
6988   4D51 00                  NOP
6989   4D52 00                  NOP
6990   4D53 00                  NOP
6991   4D54 00                  NOP
6992   4D55 00                  NOP
6993   4D56 00                  NOP
6994   4D57 00                  NOP
6995   4D58 00                  NOP
6996   4D59 00                  NOP
6997   4D5A 00                  NOP
6998   4D5B 00                  NOP
6999   4D5C 00                  NOP
7000   4D5D 00                  NOP
7001   4D5E 00                  NOP
7002   4D5F 00                  NOP
7003   4D60 00                  NOP
7004   4D61 00                  NOP
7005   4D62 00                  NOP
7006   4D63 00                  NOP
7007   4D64 00                  NOP
7008   4D65 00                  NOP
7009   4D66 00                  NOP
7010   4D67 00                  NOP
7011   4D68 00                  NOP
7012   4D69 00                  NOP
7013   4D6A 00                  NOP
7014   4D6B 00                  NOP
7015   4D6C 00                  NOP
7016   4D6D 00                  NOP
7017   4D6E 00                  NOP
7018   4D6F 00                  NOP
7019   4D70 00                  NOP
7020   4D71 00                  NOP
7021   4D72 00                  NOP
7022   4D73 00                  NOP
7023   4D74 00                  NOP
7024   4D75 00                  NOP
7025   4D76 00                  NOP
7026   4D77 00                  NOP
7027   4D78 00                  NOP
7028   4D79 00                  NOP
7029   4D7A 00                  NOP
7030   4D7B 00                  NOP
7031   4D7C 00                  NOP
7032   4D7D 00                  NOP
7033   4D7E 00                  NOP
7034   4D7F 00                  NOP
7035   4D80 00                  NOP
7036   4D81 00                  NOP
7037   4D82 00                  NOP
7038   4D83 00                  NOP
7039   4D84 00                  NOP
7040   4D85 00                  NOP
7041   4D86 00                  NOP
7042   4D87 00                  NOP
7043   4D88 00                  NOP
7044   4D89 00                  NOP
7045   4D8A 00                  NOP
7046   4D8B 00                  NOP
7047   4D8C 00                  NOP
7048   4D8D 00                  NOP
7049   4D8E 00                  NOP
7050   4D8F 00                  NOP
7051   4D90 00                  NOP
7052   4D91 00                  NOP
7053   4D92 00                  NOP
7054   4D93 00                  NOP
7055   4D94 00                  NOP
7056   4D95 00                  NOP
7057   4D96 00                  NOP
7058   4D97 00                  NOP
7059   4D98 00                  NOP
7060   4D99 00                  NOP
7061   4D9A 00                  NOP
7062   4D9B 00                  NOP
7063   4D9C 00                  NOP
7064   4D9D 00                  NOP
7065   4D9E 00                  NOP
7066   4D9F 00                  NOP
7067   4DA0 00                  NOP
7068   4DA1 00                  NOP
7069   4DA2 00                  NOP
7070   4DA3 00                  NOP
7071   4DA4 00                  NOP
7072   4DA5 00                  NOP
7073   4DA6 00                  NOP
7074   4DA7 00                  NOP
7075   4DA8 00                  NOP
7076   4DA9 00                  NOP
7077   4DAA 00                  NOP
7078   4DAB 00                  NOP
7079   4DAC 00                  NOP
7080   4DAD 00                  NOP
7081   4DAE 00                  NOP
7082   4DAF 00                  NOP
7083   4DB0 00                  NOP
7084   4DB1 00                  NOP
7085   4DB2 00                  NOP
7086   4DB3 00                  NOP
7087   4DB4 00                  NOP
7088   4DB5 00                  NOP
7089   4DB6 00                  NOP
7090   4DB7 00                  NOP
7091   4DB8 00                  NOP
7092   4DB9 00                  NOP
7093   4DBA 00                  NOP
7094   4DBB 00                  NOP
7095   4DBC 00                  NOP
7096   4DBD 00                  NOP
7097   4DBE 00                  NOP
7098   4DBF 00                  NOP
7099   4DC0 00                  NOP
7100   4DC1 00                  NOP
7101   4DC2 00                  NOP
7102   4DC3 00                  NOP
7103   4DC4 00                  NOP
7104   4DC5 00                  NOP
7105   4DC6 00                  NOP
7106   4DC7 00                  NOP
7107   4DC8 00                  NOP
7108   4DC9 00                  NOP
7109   4DCA 00                  NOP
7110   4DCB 00                  NOP
7111   4DCC 00                  NOP
7112   4DCD 00                  NOP
7113   4DCE 00                  NOP
7114   4DCF 00                  NOP
7115   4DD0 00                  NOP
7116   4DD1 00                  NOP
7117   4DD2 00                  NOP
7118   4DD3 00                  NOP
7119   4DD4 00                  NOP
7120   4DD5 00                  NOP
7121   4DD6 00                  NOP
7122   4DD7 00                  NOP
7123   4DD8 00                  NOP
7124   4DD9 00                  NOP
7125   4DDA 00                  NOP
7126   4DDB 00                  NOP
7127   4DDC 00                  NOP
7128   4DDD 00                  NOP
7129   4DDE 00                  NOP
7130   4DDF 00                  NOP
7131   4DE0 00                  NOP
7132   4DE1 00                  NOP
7133   4DE2 00                  NOP
7134   4DE3 00                  NOP
7135   4DE4 00                  NOP
7136   4DE5 00                  NOP
7137   4DE6 00                  NOP
7138   4DE7 00                  NOP
7139   4DE8 00                  NOP
7140   4DE9 00                  NOP
7141   4DEA 00                  NOP
7142   4DEB 00                  NOP
7143   4DEC 00                  NOP
7144   4DED 00                  NOP
7145   4DEE 00                  NOP
7146   4DEF 00                  NOP
7147   4DF0 00                  NOP
7148   4DF1 00                  NOP
7149   4DF2 00                  NOP
7150   4DF3 00                  NOP
7151   4DF4 00                  NOP
7152   4DF5 00                  NOP
7153   4DF6 00                  NOP
7154   4DF7 00                  NOP
7155   4DF8 00                  NOP
7156   4DF9 00                  NOP
7157   4DFA 00                  NOP
7158   4DFB 00                  NOP
7159   4DFC 00                  NOP
7160   4DFD 00                  NOP
7161   4DFE 00                  NOP
7162   4DFF 00                  NOP
7163   4E00 00                  NOP
7164   4E01 00                  NOP
7165   4E02 00                  NOP
7166   4E03 00                  NOP
7167   4E04 00                  NOP
7168   4E05 00                  NOP
7169   4E06 00                  NOP
7170   4E07 00                  NOP
7171   4E08 00                  NOP
7172   4E09 00                  NOP
7173   4E0A 00                  NOP
7174   4E0B 00                  NOP
7175   4E0C 00                  NOP
7176   4E0D 00                  NOP
7177   4E0E 00                  NOP
7178   4E0F 00                  NOP
7179   4E10 00                  NOP
7180   4E11 00                  NOP
7181   4E12 00                  NOP
7182   4E13 00                  NOP
7183   4E14 00                  NOP
7184   4E15 00                  NOP
7185   4E16 00                  NOP
7186   4E17 00                  NOP
7187   4E18 00                  NOP
7188   4E19 00                  NOP
7189   4E1A 00                  NOP
7190   4E1B 00                  NOP
7191   4E1C 00                  NOP
7192   4E1D 00                  NOP
7193   4E1E 00                  NOP
7194   4E1F 00                  NOP
7195   4E20 00                  NOP
7196   4E21 00                  NOP
7197   4E22 00                  NOP
7198   4E23 00                  NOP
7199   4E24 00                  NOP
7200   4E25 00                  NOP
7201   4E26 00                  NOP
7202   4E27 00                  NOP
7203   4E28 00                  NOP
7204   4E29 00                  NOP
7205   4E2A 00                  NOP
7206   4E2B 00                  NOP
7207   4E2C 00                  NOP
7208   4E2D 00                  NOP
7209   4E2E 00                  NOP
7210   4E2F 00                  NOP
7211   4E30 00                  NOP
7212   4E31 00                  NOP
7213   4E32 00                  NOP
7214   4E33 00                  NOP
7215   4E34 00                  NOP
7216   4E35 00                  NOP
7217   4E36 00                  NOP
7218   4E37 00                  NOP
7219   4E38 00                  NOP
7220   4E39 00                  NOP
7221   4E3A 00                  NOP
7222   4E3B 00                  NOP
7223   4E3C 00                  NOP
7224   4E3D 00                  NOP
7225   4E3E 00                  NOP
7226   4E3F 00                  NOP
7227   4E40 00                  NOP
7228   4E41 00                  NOP
7229   4E42 00                  NOP
7230   4E43 00                  NOP
7231   4E44 00                  NOP
7232   4E45 00                  NOP
7233   4E46 00                  NOP
7234   4E47 00                  NOP
7235   4E48 00                  NOP
7236   4E49 00                  NOP
7237   4E4A 00                  NOP
7238   4E4B 00                  NOP
7239   4E4C 00                  NOP
7240   4E4D 00                  NOP
7241   4E4E 00                  NOP
7242   4E4F 00                  NOP
7243   4E50 00                  NOP
7244   4E51 00                  NOP
7245   4E52 00                  NOP
7246   4E53 00                  NOP
7247   4E54 00                  NOP
7248   4E55 00                  NOP
7249   4E56 00                  NOP
7250   4E57 00                  NOP
7251   4E58 00                  NOP
7252   4E59 00                  NOP
7253   4E5A 00                  NOP
7254   4E5B 00                  NOP
7255   4E5C 00                  NOP
7256   4E5D 00                  NOP
7257   4E5E 00                  NOP
7258   4E5F 00                  NOP
7259   4E60 00                  NOP
7260   4E61 00                  NOP
7261   4E62 00                  NOP
7262   4E63 00                  NOP
7263   4E64 00                  NOP
7264   4E65 00                  NOP
7265   4E66 00                  NOP
7266   4E67 00                  NOP
7267   4E68 00                  NOP
7268   4E69 00                  NOP
7269   4E6A 00                  NOP
7270   4E6B 00                  NOP
7271   4E6C 00                  NOP
7272   4E6D 00                  NOP
7273   4E6E 00                  NOP
7274   4E6F 00                  NOP
7275   4E70 00                  NOP
7276   4E71 00                  NOP
7277   4E72 00                  NOP
7278   4E73 00                  NOP
7279   4E74 00                  NOP
7280   4E75 00                  NOP
7281   4E76 00                  NOP
7282   4E77 00                  NOP
7283   4E78 00                  NOP
7284   4E79 00                  NOP
7285   4E7A 00                  NOP
7286   4E7B 00                  NOP
7287   4E7C 00                  NOP
7288   4E7D 00                  NOP
7289   4E7E 00                  NOP
7290   4E7F 00                  NOP
7291   4E80 00                  NOP
7292   4E81 00                  NOP
7293   4E82 00                  NOP
7294   4E83 00                  NOP
7295   4E84 00                  NOP
7296   4E85 00                  NOP
7297   4E86 00                  NOP
7298   4E87 00                  NOP
7299   4E88 00                  NOP
7300   4E89 00                  NOP
7301   4E8A 00                  NOP
7302   4E8B 00                  NOP
7303   4E8C 00                  NOP
7304   4E8D 00                  NOP
7305   4E8E 00                  NOP
7306   4E8F 00                  NOP
7307   4E90 00                  NOP
7308   4E91 00                  NOP
7309   4E92 00                  NOP
7310   4E93 00                  NOP
7311   4E94 00                  NOP
7312   4E95 00                  NOP
7313   4E96 00                  NOP
7314   4E97 00                  NOP
7315   4E98 00                  NOP
7316   4E99 00                  NOP
7317   4E9A 00                  NOP
7318   4E9B 00                  NOP
7319   4E9C 00                  NOP
7320   4E9D 00                  NOP
7321   4E9E 00                  NOP
7322   4E9F 00                  NOP
7323   4EA0 00                  NOP
7324   4EA1 00                  NOP
7325   4EA2 00                  NOP
7326   4EA3 00                  NOP
7327   4EA4 00                  NOP
7328   4EA5 00                  NOP
7329   4EA6 00                  NOP
7330   4EA7 00                  NOP
7331   4EA8 00                  NOP
7332   4EA9 00                  NOP
7333   4EAA 00                  NOP
7334   4EAB 00                  NOP
7335   4EAC 00                  NOP
7336   4EAD 00                  NOP
7337   4EAE 00                  NOP
7338   4EAF 00                  NOP
7339   4EB0 00                  NOP
7340   4EB1 00                  NOP
7341   4EB2 00                  NOP
7342   4EB3 00                  NOP
7343   4EB4 00                  NOP
7344   4EB5 00                  NOP
7345   4EB6 00                  NOP
7346   4EB7 00                  NOP
7347   4EB8 00                  NOP
7348   4EB9 00                  NOP
7349   4EBA 00                  NOP
7350   4EBB 00                  NOP
7351   4EBC 00                  NOP
7352   4EBD 00                  NOP
7353   4EBE 00                  NOP
7354   4EBF 00                  NOP
7355   4EC0 00                  NOP
7356   4EC1 00                  NOP
7357   4EC2 00                  NOP
7358   4EC3 00                  NOP
7359   4EC4 00                  NOP
7360   4EC5 00                  NOP
7361   4EC6 00                  NOP
7362   4EC7 00                  NOP
7363   4EC8 00                  NOP
7364   4EC9 00                  NOP
7365   4ECA 00                  NOP
7366   4ECB 00                  NOP
7367   4ECC 00                  NOP
7368   4ECD 00                  NOP
7369   4ECE 00                  NOP
7370   4ECF 00                  NOP
7371   4ED0 00                  NOP
7372   4ED1 00                  NOP
7373   4ED2 00                  NOP
7374   4ED3 00                  NOP
7375   4ED4 00                  NOP
7376   4ED5 00                  NOP
7377   4ED6 00                  NOP
7378   4ED7 00                  NOP
7379   4ED8 00                  NOP
7380   4ED9 00                  NOP
7381   4EDA 00                  NOP
7382   4EDB 00                  NOP
7383   4EDC 00                  NOP
7384   4EDD 00                  NOP
7385   4EDE 00                  NOP
7386   4EDF 00                  NOP
7387   4EE0 00                  NOP
7388   4EE1 00                  NOP
7389   4EE2 00                  NOP
7390   4EE3 00                  NOP
7391   4EE4 00                  NOP
7392   4EE5 00                  NOP
7393   4EE6 00                  NOP
7394   4EE7 00                  NOP
7395   4EE8 00                  NOP
7396   4EE9 00                  NOP
7397   4EEA 00                  NOP
7398   4EEB 00                  NOP
7399   4EEC 00                  NOP
7400   4EED 00                  NOP
7401   4EEE 00                  NOP
7402   4EEF 00                  NOP
7403   4EF0 00                  NOP
7404   4EF1 00                  NOP
7405   4EF2 00                  NOP
7406   4EF3 00                  NOP
7407   4EF4 00                  NOP
7408   4EF5 00                  NOP
7409   4EF6 00                  NOP
7410   4EF7 00                  NOP
7411   4EF8 00                  NOP
7412   4EF9 00                  NOP
7413   4EFA 00                  NOP
7414   4EFB 00                  NOP
7415   4EFC 00                  NOP
7416   4EFD 00                  NOP
7417   4EFE 00                  NOP
7418   4EFF 00                  NOP
7419   4F00 00                  NOP
7420   4F01 00                  NOP
7421   4F02 00                  NOP
7422   4F03 00                  NOP
7423   4F04 00                  NOP
7424   4F05 00                  NOP
7425   4F06 00                  NOP
7426   4F07 00                  NOP
7427   4F08 00                  NOP
7428   4F09 00                  NOP
7429   4F0A 00                  NOP
7430   4F0B 00                  NOP
7431   4F0C 00                  NOP
7432   4F0D 00                  NOP
7433   4F0E 00                  NOP
7434   4F0F 00                  NOP
7435   4F10 00                  NOP
7436   4F11 00                  NOP
7437   4F12 00                  NOP
7438   4F13 00                  NOP
7439   4F14 00                  NOP
7440   4F15 00                  NOP
7441   4F16 00                  NOP
7442   4F17 00                  NOP
7443   4F18 00                  NOP
7444   4F19 00                  NOP
7445   4F1A 00                  NOP
7446   4F1B 00                  NOP
7447   4F1C 00                  NOP
7448   4F1D 00                  NOP
7449   4F1E 00                  NOP
7450   4F1F 00                  NOP
7451   4F20 00                  NOP
7452   4F21 00                  NOP
7453   4F22 00                  NOP
7454   4F23 00                  NOP
7455   4F24 00                  NOP
7456   4F25 00                  NOP
7457   4F26 00                  NOP
7458   4F27 00                  NOP
7459   4F28 00                  NOP
7460   4F29 00                  NOP
7461   4F2A 00                  NOP
7462   4F2B 00                  NOP
7463   4F2C 00                  NOP
7464   4F2D 00                  NOP
7465   4F2E 00                  NOP
7466   4F2F 00                  NOP
7467   4F30 00                  NOP
7468   4F31 00                  NOP
7469   4F32 00                  NOP
7470   4F33 00                  NOP
7471   4F34 00                  NOP
7472   4F35 00                  NOP
7473   4F36 00                  NOP
7474   4F37 00                  NOP
7475   4F38 00                  NOP
7476   4F39 00                  NOP
7477   4F3A 00                  NOP
7478   4F3B 00                  NOP
7479   4F3C 00                  NOP
7480   4F3D 00                  NOP
7481   4F3E 00                  NOP
7482   4F3F 00                  NOP
7483   4F40 00                  NOP
7484   4F41 00                  NOP
7485   4F42 00                  NOP
7486   4F43 00                  NOP
7487   4F44 00                  NOP
7488   4F45 00                  NOP
7489   4F46 00                  NOP
7490   4F47 00                  NOP
7491   4F48 00                  NOP
7492   4F49 00                  NOP
7493   4F4A 00                  NOP
7494   4F4B 00                  NOP
7495   4F4C 00                  NOP
7496   4F4D 00                  NOP
7497   4F4E 00                  NOP
7498   4F4F 00                  NOP
7499   4F50 00                  NOP
7500   4F51 00                  NOP
7501   4F52 00                  NOP
7502   4F53 00                  NOP
7503   4F54 00                  NOP
7504   4F55 00                  NOP
7505   4F56 00                  NOP
7506   4F57 00                  NOP
7507   4F58 00                  NOP
7508   4F59 00                  NOP
7509   4F5A 00                  NOP
7510   4F5B 00                  NOP
7511   4F5C 00                  NOP
7512   4F5D 00                  NOP
7513   4F5E 00                  NOP
7514   4F5F 00                  NOP
7515   4F60 00                  NOP
7516   4F61 00                  NOP
7517   4F62 00                  NOP
7518   4F63 00                  NOP
7519   4F64 00                  NOP
7520   4F65 00                  NOP
7521   4F66 00                  NOP
7522   4F67 00                  NOP
7523   4F68 00                  NOP
7524   4F69 00                  NOP
7525   4F6A 00                  NOP
7526   4F6B 00                  NOP
7527   4F6C 00                  NOP
7528   4F6D 00                  NOP
7529   4F6E 00                  NOP
7530   4F6F 00                  NOP
7531   4F70 00                  NOP
7532   4F71 00                  NOP
7533   4F72 00                  NOP
7534   4F73 00                  NOP
7535   4F74 00                  NOP
7536   4F75 00                  NOP
7537   4F76 00                  NOP
7538   4F77 00                  NOP
7539   4F78 00                  NOP
7540   4F79 00                  NOP
7541   4F7A 00                  NOP
7542   4F7B 00                  NOP
7543   4F7C 00                  NOP
7544   4F7D 00                  NOP
7545   4F7E 00                  NOP
7546   4F7F 00                  NOP
7547   4F80 00                  NOP
7548   4F81 00                  NOP
7549   4F82 00                  NOP
7550   4F83 00                  NOP
7551   4F84 00                  NOP
7552   4F85 00                  NOP
7553   4F86 00                  NOP
7554   4F87 00                  NOP
7555   4F88 00                  NOP
7556   4F89 00                  NOP
7557   4F8A 00                  NOP
7558   4F8B 00                  NOP
7559   4F8C 00                  NOP
7560   4F8D 00                  NOP
7561   4F8E 00                  NOP
7562   4F8F 00                  NOP
7563   4F90 00                  NOP
7564   4F91 00                  NOP
7565   4F92 00                  NOP
7566   4F93 00                  NOP
7567   4F94 00                  NOP
7568   4F95 00                  NOP
7569   4F96 00                  NOP
7570   4F97 00                  NOP
7571   4F98 00                  NOP
7572   4F99 00                  NOP
7573   4F9A 00                  NOP
7574   4F9B 00                  NOP
7575   4F9C 00                  NOP
7576   4F9D 00                  NOP
7577   4F9E 00                  NOP
7578   4F9F 00                  NOP
7579   4FA0 00                  NOP
7580   4FA1 00                  NOP
7581   4FA2 00                  NOP
7582   4FA3 00                  NOP
7583   4FA4 00                  NOP
7584   4FA5 00                  NOP
7585   4FA6 00                  NOP
7586   4FA7 00                  NOP
7587   4FA8 00                  NOP
7588   4FA9 00                  NOP
7589   4FAA 00                  NOP
7590   4FAB 00                  NOP
7591   4FAC 00                  NOP
7592   4FAD 00                  NOP
7593   4FAE 00                  NOP
7594   4FAF 00                  NOP
7595   4FB0 00                  NOP
7596   4FB1 00                  NOP
7597   4FB2 00                  NOP
7598   4FB3 00                  NOP
7599   4FB4 00                  NOP
7600   4FB5 00                  NOP
7601   4FB6 00                  NOP
7602   4FB7 00                  NOP
7603   4FB8 00                  NOP
7604   4FB9 00                  NOP
7605   4FBA 00                  NOP
7606   4FBB 00                  NOP
7607   4FBC 00                  NOP
7608   4FBD 00                  NOP
7609   4FBE 00                  NOP
7610   4FBF 00                  NOP
7611   4FC0 00                  NOP
7612   4FC1 00                  NOP
7613   4FC2 00                  NOP
7614   4FC3 00                  NOP
7615   4FC4 00                  NOP
7616   4FC5 00                  NOP
7617   4FC6 00                  NOP
7618   4FC7 00                  NOP
7619   4FC8 00                  NOP
7620   4FC9 00                  NOP
7621   4FCA 00                  NOP
7622   4FCB 00                  NOP
7623   4FCC 00                  NOP
7624   4FCD 00                  NOP
7625   4FCE 00                  NOP
7626   4FCF 00                  NOP
7627   4FD0 00                  NOP
7628   4FD1 00                  NOP
7629   4FD2 00                  NOP
7630   4FD3 00                  NOP
7631   4FD4 00                  NOP
7632   4FD5 00                  NOP
7633   4FD6 00                  NOP
7634   4FD7 00                  NOP
7635   4FD8 00                  NOP
7636   4FD9 00                  NOP
7637   4FDA 00                  NOP
7638   4FDB 00                  NOP
7639   4FDC 00                  NOP
7640   4FDD 00                  NOP
7641   4FDE 00                  NOP
7642   4FDF 00                  NOP
7643   4FE0 00                  NOP
7644   4FE1 00                  NOP
7645   4FE2 00                  NOP
7646   4FE3 00                  NOP
7647   4FE4 00                  NOP
7648   4FE5 00                  NOP
7649   4FE6 00                  NOP
7650   4FE7 00                  NOP
7651   4FE8 00                  NOP
7652   4FE9 00                  NOP
7653   4FEA 00                  NOP
7654   4FEB 00                  NOP
7655   4FEC 00                  NOP
7656   4FED 00                  NOP
7657   4FEE 00                  NOP
7658   4FEF 00                  NOP
7659   4FF0 00                  NOP
7660   4FF1 00                  NOP
7661   4FF2 00                  NOP
7662   4FF3 00                  NOP
7663   4FF4 00                  NOP
7664   4FF5 00                  NOP
7665   4FF6 00                  NOP
7666   4FF7 00                  NOP
7667   4FF8 00                  NOP
7668   4FF9 00                  NOP
7669   4FFA 00                  NOP
7670   4FFB 00                  NOP
7671   4FFC 00                  NOP
7672   4FFD 00                  NOP
7673   4FFE 00                  NOP
7674   4FFF 00                  NOP
7675   5000 00                  NOP
7676   5001 00                  NOP
7677   5002 00                  NOP
7678   5003 00                  NOP
7679   5004 00                  NOP
7680   5005 00                  NOP
7681   5006 00                  NOP
7682   5007 00                  NOP
7683   5008 00                  NOP
7684   5009 00                  NOP
7685   500A 00                  NOP
7686   500B 00                  NOP
7687   500C 00                  NOP
7688   500D 00                  NOP
7689   500E 00                  NOP
7690   500F 00                  NOP
7691   5010 00                  NOP
7692   5011 00                  NOP
7693   5012 00                  NOP
7694   5013 00                  NOP
7695   5014 00                  NOP
7696   5015 00                  NOP
7697   5016 00                  NOP
7698   5017 00                  NOP
7699   5018 00                  NOP
7700   5019 00                  NOP
7701   501A 00                  NOP
7702   501B 00                  NOP
7703   501C 00                  NOP
7704   501D 00                  NOP
7705   501E 00                  NOP
7706   501F 00                  NOP
7707   5020 00                  NOP
7708   5021 00                  NOP
7709   5022 00                  NOP
7710   5023 00                  NOP
7711   5024 00                  NOP
7712   5025 00                  NOP
7713   5026 00                  NOP
7714   5027 00                  NOP
7715   5028 00                  NOP
7716   5029 00                  NOP
7717   502A 00                  NOP
7718   502B 00                  NOP
7719   502C 00                  NOP
7720   502D 00                  NOP
7721   502E 00                  NOP
7722   502F 00                  NOP
7723   5030 00                  NOP
7724   5031 00                  NOP
7725   5032 00                  NOP
7726   5033 00                  NOP
7727   5034 00                  NOP
7728   5035 00                  NOP
7729   5036 00                  NOP
7730   5037 00                  NOP
7731   5038 00                  NOP
7732   5039 00                  NOP
7733   503A 00                  NOP
7734   503B 00                  NOP
7735   503C 00                  NOP
7736   503D 00                  NOP
7737   503E 00                  NOP
7738   503F 00                  NOP
7739   5040 00                  NOP
7740   5041 00                  NOP
7741   5042 00                  NOP
7742   5043 00                  NOP
7743   5044 00                  NOP
7744   5045 00                  NOP
7745   5046 00                  NOP
7746   5047 00                  NOP
7747   5048 00                  NOP
7748   5049 00                  NOP
7749   504A 00                  NOP
7750   504B 00                  NOP
7751   504C 00                  NOP
7752   504D 00                  NOP
7753   504E 00                  NOP
7754   504F 00                  NOP
7755   5050 00                  NOP
7756   5051 00                  NOP
7757   5052 00                  NOP
7758   5053 00                  NOP
7759   5054 00                  NOP
7760   5055 00                  NOP
7761   5056 00                  NOP
7762   5057 00                  NOP
7763   5058 00                  NOP
7764   5059 00                  NOP
7765   505A 00                  NOP
7766   505B 00                  NOP
7767   505C 00                  NOP
7768   505D 00                  NOP
7769   505E 00                  NOP
7770   505F 00                  NOP
7771   5060 00                  NOP
7772   5061 00                  NOP
7773   5062 00                  NOP
7774   5063 00                  NOP
7775   5064 00                  NOP
7776   5065 00                  NOP
7777   5066 00                  NOP
7778   5067 00                  NOP
7779   5068 00                  NOP
7780   5069 00                  NOP
7781   506A 00                  NOP
7782   506B 00                  NOP
7783   506C 00                  NOP
7784   506D 00                  NOP
7785   506E 00                  NOP
7786   506F 00                  NOP
7787   5070 00                  NOP
7788   5071 00                  NOP
7789   5072 00                  NOP
7790   5073 00                  NOP
7791   5074 00                  NOP
7792   5075 00                  NOP
7793   5076 00                  NOP
7794   5077 00                  NOP
7795   5078 00                  NOP
7796   5079 00                  NOP
7797   507A 00                  NOP
7798   507B 00                  NOP
7799   507C 00                  NOP
7800   507D 00                  NOP
7801   507E 00                  NOP
7802   507F 00                  NOP
7803   5080 00                  NOP
7804   5081 00                  NOP
7805   5082 00                  NOP
7806   5083 00                  NOP
7807   5084 00                  NOP
7808   5085 00                  NOP
7809   5086 00                  NOP
7810   5087 00                  NOP
7811   5088 00                  NOP
7812   5089 00                  NOP
7813   508A 00                  NOP
7814   508B 00                  NOP
7815   508C 00                  NOP
7816   508D 00                  NOP
7817   508E 00                  NOP
7818   508F 00                  NOP
7819   5090 00                  NOP
7820   5091 00                  NOP
7821   5092 00                  NOP
7822   5093 00                  NOP
7823   5094 00                  NOP
7824   5095 00                  NOP
7825   5096 00                  NOP
7826   5097 00                  NOP
7827   5098 00                  NOP
7828   5099 00                  NOP
7829   509A 00                  NOP
7830   509B 00                  NOP
7831   509C 00                  NOP
7832   509D 00                  NOP
7833   509E 00                  NOP
7834   509F 00                  NOP
7835   50A0 00                  NOP
7836   50A1 00                  NOP
7837   50A2 00                  NOP
7838   50A3 00                  NOP
7839   50A4 00                  NOP
7840   50A5 00                  NOP
7841   50A6 00                  NOP
7842   50A7 00                  NOP
7843   50A8 00                  NOP
7844   50A9 00                  NOP
7845   50AA 00                  NOP
7846   50AB 00                  NOP
7847   50AC 00                  NOP
7848   50AD 00                  NOP
7849   50AE 00                  NOP
7850   50AF 00                  NOP
7851   50B0 00                  NOP
7852   50B1 00                  NOP
7853   50B2 00                  NOP
7854   50B3 00                  NOP
7855   50B4 00                  NOP
7856   50B5 00                  NOP
7857   50B6 00                  NOP
7858   50B7 00                  NOP
7859   50B8 00                  NOP
7860   50B9 00                  NOP
7861   50BA 00                  NOP
7862   50BB 00                  NOP
7863   50BC 00                  NOP
7864   50BD 00                  NOP
7865   50BE 00                  NOP
7866   50BF 00                  NOP
7867   50C0 00                  NOP
7868   50C1 00                  NOP
7869   50C2 00                  NOP
7870   50C3 00                  NOP
7871   50C4 00                  NOP
7872   50C5 00                  NOP
7873   50C6 00                  NOP
7874   50C7 00                  NOP
7875   50C8 00                  NOP
7876   50C9 00                  NOP
7877   50CA 00                  NOP
7878   50CB 00                  NOP
7879   50CC 00                  NOP
7880   50CD 00                  NOP
7881   50CE 00                  NOP
7882   50CF 00                  NOP
7883   50D0 00                  NOP
7884   50D1 00                  NOP
7885   50D2 00                  NOP
7886   50D3 00                  NOP
7887   50D4 00                  NOP
7888   50D5 00                  NOP
7889   50D6 00                  NOP
7890   50D7 00                  NOP
7891   50D8 00                  NOP
7892   50D9 00                  NOP
7893   50DA 00                  NOP
7894   50DB 00                  NOP
7895   50DC 00                  NOP
7896   50DD 00                  NOP
7897   50DE 00                  NOP
7898   50DF 00                  NOP
7899   50E0 00                  NOP
7900   50E1 00                  NOP
7901   50E2 00                  NOP
7902   50E3 00                  NOP
7903   50E4 00                  NOP
7904   50E5 00                  NOP
7905   50E6 00                  NOP
7906   50E7 00                  NOP
7907   50E8 00                  NOP
7908   50E9 00                  NOP
7909   50EA 00                  NOP
7910   50EB 00                  NOP
7911   50EC 00                  NOP
7912   50ED 00                  NOP
7913   50EE 00                  NOP
7914   50EF 00                  NOP
7915   50F0 00                  NOP
7916   50F1 00                  NOP
7917   50F2 00                  NOP
7918   50F3 00                  NOP
7919   50F4 00                  NOP
7920   50F5 00                  NOP
7921   50F6 00                  NOP
7922   50F7 00                  NOP
7923   50F8 00                  NOP
7924   50F9 00                  NOP
7925   50FA 00                  NOP
7926   50FB 00                  NOP
7927   50FC 00                  NOP
7928   50FD 00                  NOP
7929   50FE 00                  NOP
7930   50FF 00                  NOP
7931   5100 00                  NOP
7932   5101 00                  NOP
7933   5102 00                  NOP
7934   5103 00                  NOP
7935   5104 00                  NOP
7936   5105 00                  NOP
7937   5106 00                  NOP
7938   5107 00                  NOP
7939   5108 00                  NOP
7940   5109 00                  NOP
7941   510A 00                  NOP
7942   510B 00                  NOP
7943   510C 00                  NOP
7944   510D 00                  NOP
7945   510E 00                  NOP
7946   510F 00                  NOP
7947   5110 00                  NOP
7948   5111 00                  NOP
7949   5112 00                  NOP
7950   5113 00                  NOP
7951   5114 00                  NOP
7952   5115 00                  NOP
7953   5116 00                  NOP
7954   5117 00                  NOP
7955   5118 00                  NOP
7956   5119 00                  NOP
7957   511A 00                  NOP
7958   511B 00                  NOP
7959   511C 00                  NOP
7960   511D 00                  NOP
7961   511E 00                  NOP
7962   511F 00                  NOP
7963   5120 00                  NOP
7964   5121 00                  NOP
7965   5122 00                  NOP
7966   5123 00                  NOP
7967   5124 00                  NOP
7968   5125 00                  NOP
7969   5126 00                  NOP
7970   5127 00                  NOP
7971   5128 00                  NOP
7972   5129 00                  NOP
7973   512A 00                  NOP
7974   512B 00                  NOP
7975   512C 00                  NOP
7976   512D 00                  NOP
7977   512E 00                  NOP
7978   512F 00                  NOP
7979   5130 00                  NOP
7980   5131 00                  NOP
7981   5132 00                  NOP
7982   5133 00                  NOP
7983   5134 00                  NOP
7984   5135 00                  NOP
7985   5136 00                  NOP
7986   5137 00                  NOP
7987   5138 00                  NOP
7988   5139 00                  NOP
7989   513A 00                  NOP
7990   513B 00                  NOP
7991   513C 00                  NOP
7992   513D 00                  NOP
7993   513E 00                  NOP
7994   513F 00                  NOP
7995   5140 00                  NOP
7996   5141 00                  NOP
7997   5142 00                  NOP
7998   5143 00                  NOP
7999   5144 00                  NOP
8000   5145 00                  NOP
8001   5146 00                  NOP
8002   5147 00                  NOP
8003   5148 00                  NOP
8004   5149 00                  NOP
8005   514A 00                  NOP
8006   514B 00                  NOP
8007   514C 00                  NOP
8008   514D 00                  NOP
8009   514E 00                  NOP
8010   514F 00                  NOP
8011   5150 00                  NOP
8012   5151 00                  NOP
8013   5152 00                  NOP
8014   5153 00                  NOP
8015   5154 00                  NOP
8016   5155 00                  NOP
8017   5156 00                  NOP
8018   5157 00                  NOP
8019   5158 00                  NOP
8020   5159 00                  NOP
8021   515A 00                  NOP
8022   515B 00                  NOP
8023   515C 00                  NOP
8024   515D 00                  NOP
8025   515E 00                  NOP
8026   515F 00                  NOP
8027   5160 00                  NOP
8028   5161 00                  NOP
8029   5162 00                  NOP
8030   5163 00                  NOP
8031   5164 00                  NOP
8032   5165 00                  NOP
8033   5166 00                  NOP
8034   5167 00                  NOP
8035   5168 00                  NOP
8036   5169 00                  NOP
8037   516A 00                  NOP
8038   516B 00                  NOP
8039   516C 00                  NOP
8040   516D 00                  NOP
8041   516E 00                  NOP
8042   516F 00                  NOP
8043   5170 00                  NOP
8044   5171 00                  NOP
8045   5172 00                  NOP
8046   5173 00                  NOP
8047   5174 00                  NOP
8048   5175 00                  NOP
8049   5176 00                  NOP
8050   5177 00                  NOP
8051   5178 00                  NOP
8052   5179 00                  NOP
8053   517A 00                  NOP
8054   517B 00                  NOP
8055   517C 00                  NOP
8056   517D 00                  NOP
8057   517E 00                  NOP
8058   517F 00                  NOP
8059   5180 00                  NOP
8060   5181 00                  NOP
8061   5182 00                  NOP
8062   5183 00                  NOP
8063   5184 00                  NOP
8064   5185 00                  NOP
8065   5186 00                  NOP
8066   5187 00                  NOP
8067   5188 00                  NOP
8068   5189 00                  NOP
8069   518A 00                  NOP
8070   518B 00                  NOP
8071   518C 00                  NOP
8072   518D 00                  NOP
8073   518E 00                  NOP
8074   518F 00                  NOP
8075   5190 00                  NOP
8076   5191 00                  NOP
8077   5192 00                  NOP
8078   5193 00                  NOP
8079   5194 00                  NOP
8080   5195 00                  NOP
8081   5196 00                  NOP
8082   5197 00                  NOP
8083   5198 00                  NOP
8084   5199 00                  NOP
8085   519A 00                  NOP
8086   519B 00                  NOP
8087   519C 00                  NOP
8088   519D 00                  NOP
8089   519E 00                  NOP
8090   519F 00                  NOP
8091   51A0 00                  NOP
8092   51A1 00                  NOP
8093   51A2 00                  NOP
8094   51A3 00                  NOP
8095   51A4 00                  NOP
8096   51A5 00                  NOP
8097   51A6 00                  NOP
8098   51A7 00                  NOP
8099   51A8 00                  NOP
8100   51A9 00                  NOP
8101   51AA 00                  NOP
8102   51AB 00                  NOP
8103   51AC 00                  NOP
8104   51AD 00                  NOP
8105   51AE 00                  NOP
8106   51AF 00                  NOP
8107   51B0 00                  NOP
8108   51B1 00                  NOP
8109   51B2 00                  NOP
8110   51B3 00                  NOP
8111   51B4 00                  NOP
8112   51B5 00                  NOP
8113   51B6 00                  NOP
8114   51B7 00                  NOP
8115   51B8 00                  NOP
8116   51B9 00                  NOP
8117   51BA 00                  NOP
8118   51BB 00                  NOP
8119   51BC 00                  NOP
8120   51BD 00                  NOP
8121   51BE 00                  NOP
8122   51BF 00                  NOP
8123   51C0 00                  NOP
8124   51C1 00                  NOP
8125   51C2 00                  NOP
8126   51C3 00                  NOP
8127   51C4 00                  NOP
8128   51C5 00                  NOP
8129   51C6 00                  NOP
8130   51C7 00                  NOP
8131   51C8 00                  NOP
8132   51C9 00                  NOP
8133   51CA 00                  NOP
8134   51CB 00                  NOP
8135   51CC 00                  NOP
8136   51CD 00                  NOP
8137   51CE 00                  NOP
8138   51CF 00                  NOP
8139   51D0 00                  NOP
8140   51D1 00                  NOP
8141   51D2 00                  NOP
8142   51D3 00                  NOP
8143   51D4 00                  NOP
8144   51D5 00                  NOP
8145   51D6 00                  NOP
8146   51D7 00                  NOP
8147   51D8 00                  NOP
8148   51D9 00                  NOP
8149   51DA 00                  NOP
8150   51DB 00                  NOP
8151   51DC 00                  NOP
8152   51DD 00                  NOP
8153   51DE 00                  NOP
8154   51DF 00                  NOP
8155   51E0 00                  NOP
8156   51E1 00                  NOP
8157   51E2 00                  NOP
8158   51E3 00                  NOP
8159   51E4 00                  NOP
8160   51E5 00                  NOP
8161   51E6 00                  NOP
8162   51E7 00                  NOP
8163   51E8 00                  NOP
8164   51E9 00                  NOP
8165   51EA 00                  NOP
8166   51EB 00                  NOP
8167   51EC 00                  NOP
8168   51ED 00                  NOP
8169   51EE 00                  NOP
8170   51EF 00                  NOP
8171   51F0 00                  NOP
8172   51F1 00                  NOP
8173   51F2 00                  NOP
8174   51F3 00                  NOP
8175   51F4 00                  NOP
8176   51F5 00                  NOP
8177   51F6 00                  NOP
8178   51F7 00                  NOP
8179   51F8 00                  NOP
8180   51F9 00                  NOP
8181   51FA 00                  NOP
8182   51FB 00                  NOP
8183   51FC 00                  NOP
8184   51FD 00                  NOP
8185   51FE 00                  NOP
8186   51FF 00                  NOP
8187   5200 00                  NOP
8188   5201 00                  NOP
8189   5202 00                  NOP
8190   5203 00                  NOP
8191   5204 00                  NOP
8192   5205 00                  NOP
8193   5206 00                  NOP
8194   5207 00                  NOP
8195   5208 00                  NOP
8196   5209 00                  NOP
8197   520A 00                  NOP
8198   520B 00                  NOP
8199   520C 00                  NOP
8200   520D 00                  NOP
8201   520E 00                  NOP
8202   520F 00                  NOP
8203   5210 00                  NOP
8204   5211 00                  NOP
8205   5212 00                  NOP
8206   5213 00                  NOP
8207   5214 00                  NOP
8208   5215 00                  NOP
8209   5216 00                  NOP
8210   5217 00                  NOP
8211   5218 00                  NOP
8212   5219 00                  NOP
8213   521A 00                  NOP
8214   521B 00                  NOP
8215   521C 00                  NOP
8216   521D 00                  NOP
8217   521E 00                  NOP
8218   521F 00                  NOP
8219   5220 00                  NOP
8220   5221 00                  NOP
8221   5222 00                  NOP
8222   5223 00                  NOP
8223   5224 00                  NOP
8224   5225 00                  NOP
8225   5226 00                  NOP
8226   5227 00                  NOP
8227   5228 00                  NOP
8228   5229 00                  NOP
8229   522A 00                  NOP
8230   522B 00                  NOP
8231   522C 00                  NOP
8232   522D 00                  NOP
8233   522E 00                  NOP
8234   522F 00                  NOP
8235   5230 00                  NOP
8236   5231 00                  NOP
8237   5232 00                  NOP
8238   5233 00                  NOP
8239   5234 00                  NOP
8240   5235 00                  NOP
8241   5236 00                  NOP
8242   5237 00                  NOP
8243   5238 00                  NOP
8244   5239 00                  NOP
8245   523A 00                  NOP
8246   523B 00                  NOP
8247   523C 00                  NOP
8248   523D 00                  NOP
8249   523E 00                  NOP
8250   523F 00                  NOP
8251   5240 00                  NOP
8252   5241 00                  NOP
8253   5242 00                  NOP
8254   5243 00                  NOP
8255   5244 00                  NOP
8256   5245 00                  NOP
8257   5246 00                  NOP
8258   5247 00                  NOP
8259   5248 00                  NOP
8260   5249 00                  NOP
8261   524A 00                  NOP
8262   524B 00                  NOP
8263   524C 00                  NOP
8264   524D 00                  NOP
8265   524E 00                  NOP
8266   524F 00                  NOP
8267   5250 00                  NOP
8268   5251 00                  NOP
8269   5252 00                  NOP
8270   5253 00                  NOP
8271   5254 00                  NOP
8272   5255 00                  NOP
8273   5256 00                  NOP
8274   5257 00                  NOP
8275   5258 00                  NOP
8276   5259 00                  NOP
8277   525A 00                  NOP
8278   525B 00                  NOP
8279   525C 00                  NOP
8280   525D 00                  NOP
8281   525E 00                  NOP
8282   525F 00                  NOP
8283   5260 00                  NOP
8284   5261 00                  NOP
8285   5262 00                  NOP
8286   5263 00                  NOP
8287   5264 00                  NOP
8288   5265 00                  NOP
8289   5266 00                  NOP
8290   5267 00                  NOP
8291   5268 00                  NOP
8292   5269 00                  NOP
8293   526A 00                  NOP
8294   526B 00                  NOP
8295   526C 00                  NOP
8296   526D 00                  NOP
8297   526E 00                  NOP
8298   526F 00                  NOP
8299   5270 00                  NOP
8300   5271 00                  NOP
8301   5272 00                  NOP
8302   5273 00                  NOP
8303   5274 00                  NOP
8304   5275 00                  NOP
8305   5276 00                  NOP
8306   5277 00                  NOP
8307   5278 00                  NOP
8308   5279 00                  NOP
8309   527A 00                  NOP
8310   527B 00                  NOP
8311   527C 00                  NOP
8312   527D 00                  NOP
8313   527E 00                  NOP
8314   527F 00                  NOP
8315   5280 00                  NOP
8316   5281 00                  NOP
8317   5282 00                  NOP
8318   5283 00                  NOP
8319   5284 00                  NOP
8320   5285 00                  NOP
8321   5286 00                  NOP
8322   5287 00                  NOP
8323   5288 00                  NOP
8324   5289 00                  NOP
8325   528A 00                  NOP
8326   528B 00                  NOP
8327   528C 00                  NOP
8328   528D 00                  NOP
8329   528E 00                  NOP
8330   528F 00                  NOP
8331   5290 00                  NOP
8332   5291 00                  NOP
8333   5292 00                  NOP
8334   5293 00                  NOP
8335   5294 00                  NOP
8336   5295 00                  NOP
8337   5296 00                  NOP
8338   5297 00                  NOP
8339   5298 00                  NOP
8340   5299 00                  NOP
8341   529A 00                  NOP
8342   529B 00                  NOP
8343   529C 00                  NOP
8344   529D 00                  NOP
8345   529E 00                  NOP
8346   529F 00                  NOP
8347   52A0 00                  NOP
8348   52A1 00                  NOP
8349   52A2 00                  NOP
8350   52A3 00                  NOP
8351   52A4 00                  NOP
8352   52A5 00                  NOP
8353   52A6 00                  NOP
8354   52A7 00                  NOP
8355   52A8 00                  NOP
8356   52A9 00                  NOP
8357   52AA 00                  NOP
8358   52AB 00                  NOP
8359   52AC 00                  NOP
8360   52AD 00                  NOP
8361   52AE 00                  NOP
8362   52AF 00                  NOP
8363   52B0 00                  NOP
8364   52B1 00                  NOP
8365   52B2 00                  NOP
8366   52B3 00                  NOP
8367   52B4 00                  NOP
8368   52B5 00                  NOP
8369   52B6 00                  NOP
8370   52B7 00                  NOP
8371   52B8 00                  NOP
8372   52B9 00                  NOP
8373   52BA 00                  NOP
8374   52BB 00                  NOP
8375   52BC 00                  NOP
8376   52BD 00                  NOP
8377   52BE 00                  NOP
8378   52BF 00                  NOP
8379   52C0 00                  NOP
8380   52C1 00                  NOP
8381   52C2 00                  NOP
8382   52C3 00                  NOP
8383   52C4 00                  NOP
8384   52C5 00                  NOP
8385   52C6 00                  NOP
8386   52C7 00                  NOP
8387   52C8 00                  NOP
8388   52C9 00                  NOP
8389   52CA 00                  NOP
8390   52CB 00                  NOP
8391   52CC 00                  NOP
8392   52CD 00                  NOP
8393   52CE 00                  NOP
8394   52CF 00                  NOP
8395   52D0 00                  NOP
8396   52D1 00                  NOP
8397   52D2 00                  NOP
8398   52D3 00                  NOP
8399   52D4 00                  NOP
8400   52D5 00                  NOP
8401   52D6 00                  NOP
8402   52D7 00                  NOP
8403   52D8 00                  NOP
8404   52D9 00                  NOP
8405   52DA 00                  NOP
8406   52DB 00                  NOP
8407   52DC 00                  NOP
8408   52DD 00                  NOP
8409   52DE 00                  NOP
8410   52DF 00                  NOP
8411   52E0 00                  NOP
8412   52E1 00                  NOP
8413   52E2 00                  NOP
8414   52E3 00                  NOP
8415   52E4 00                  NOP
8416   52E5 00                  NOP
8417   52E6 00                  NOP
8418   52E7 00                  NOP
8419   52E8 00                  NOP
8420   52E9 00                  NOP
8421   52EA 00                  NOP
8422   52EB 00                  NOP
8423   52EC 00                  NOP
8424   52ED 00                  NOP
8425   52EE 00                  NOP
8426   52EF 00                  NOP
8427   52F0 00                  NOP
8428   52F1 00                  NOP
8429   52F2 00                  NOP
8430   52F3 00                  NOP
8431   52F4 00                  NOP
8432   52F5 00                  NOP
8433   52F6 00                  NOP
8434   52F7 00                  NOP
8435   52F8 00                  NOP
8436   52F9 00                  NOP
8437   52FA 00                  NOP
8438   52FB 00                  NOP
8439   52FC 00                  NOP
8440   52FD 00                  NOP
8441   52FE 00                  NOP
8442   52FF 00                  NOP
8443   5300 00                  NOP
8444   5301 00                  NOP
8445   5302 00                  NOP
8446   5303 00                  NOP
8447   5304 00                  NOP
8448   5305 00                  NOP
8449   5306 00                  NOP
8450   5307 00                  NOP
8451   5308 00                  NOP
8452   5309 00                  NOP
8453   530A 00                  NOP
8454   530B 00                  NOP
8455   530C 00                  NOP
8456   530D 00                  NOP
8457   530E 00                  NOP
8458   530F 00                  NOP
8459   5310 00                  NOP
8460   5311 00                  NOP
8461   5312 00                  NOP
8462   5313 00                  NOP
8463   5314 00                  NOP
8464   5315 00                  NOP
8465   5316 00                  NOP
8466   5317 00                  NOP
8467   5318 00                  NOP
8468   5319 00                  NOP
8469   531A 00                  NOP
8470   531B 00                  NOP
8471   531C 00                  NOP
8472   531D 00                  NOP
8473   531E 00                  NOP
8474   531F 00                  NOP
8475   5320 00                  NOP
8476   5321 00                  NOP
8477   5322 00                  NOP
8478   5323 00                  NOP
8479   5324 00                  NOP
8480   5325 00                  NOP
8481   5326 00                  NOP
8482   5327 00                  NOP
8483   5328 00                  NOP
8484   5329 00                  NOP
8485   532A 00                  NOP
8486   532B 00                  NOP
8487   532C 00                  NOP
8488   532D 00                  NOP
8489   532E 00                  NOP
8490   532F 00                  NOP
8491   5330 00                  NOP
8492   5331 00                  NOP
8493   5332 00                  NOP
8494   5333 00                  NOP
8495   5334 00                  NOP
8496   5335 00                  NOP
8497   5336 00                  NOP
8498   5337 00                  NOP
8499   5338 00                  NOP
8500   5339 00                  NOP
8501   533A 00                  NOP
8502   533B 00                  NOP
8503   533C 00                  NOP
8504   533D 00                  NOP
8505   533E 00                  NOP
8506   533F 00                  NOP
8507   5340 00                  NOP
8508   5341 00                  NOP
8509   5342 00                  NOP
8510   5343 00                  NOP
8511   5344 00                  NOP
8512   5345 00                  NOP
8513   5346 00                  NOP
8514   5347 00                  NOP
8515   5348 00                  NOP
8516   5349 00                  NOP
8517   534A 00                  NOP
8518   534B 00                  NOP
8519   534C 00                  NOP
8520   534D 00                  NOP
8521   534E 00                  NOP
8522   534F 00                  NOP
8523   5350 00                  NOP
8524   5351 00                  NOP
8525   5352 00                  NOP
8526   5353 00                  NOP
8527   5354 00                  NOP
8528   5355 00                  NOP
8529   5356 00                  NOP
8530   5357 00                  NOP
8531   5358 00                  NOP
8532   5359 00                  NOP
8533   535A 00                  NOP
8534   535B 00                  NOP
8535   535C 00                  NOP
8536   535D 00                  NOP
8537   535E 00                  NOP
8538   535F 00                  NOP
8539   5360 00                  NOP
8540   5361 00                  NOP
8541   5362 00                  NOP
8542   5363 00                  NOP
8543   5364 00                  NOP
8544   5365 00                  NOP
8545   5366 00                  NOP
8546   5367 00                  NOP
8547   5368 00                  NOP
8548   5369 00                  NOP
8549   536A 00                  NOP
8550   536B 00                  NOP
8551   536C 00                  NOP
8552   536D 00                  NOP
8553   536E 00                  NOP
8554   536F 00                  NOP
8555   5370 00                  NOP
8556   5371 00                  NOP
8557   5372 00                  NOP
8558   5373 00                  NOP
8559   5374 00                  NOP
8560   5375 00                  NOP
8561   5376 00                  NOP
8562   5377 00                  NOP
8563   5378 00                  NOP
8564   5379 00                  NOP
8565   537A 00                  NOP
8566   537B 00                  NOP
8567   537C 00                  NOP
8568   537D 00                  NOP
8569   537E 00                  NOP
8570   537F 00                  NOP
8571   5380 00                  NOP
8572   5381 00                  NOP
8573   5382 00                  NOP
8574   5383 00                  NOP
8575   5384 00                  NOP
8576   5385 00                  NOP
8577   5386 00                  NOP
8578   5387 00                  NOP
8579   5388 00                  NOP
8580   5389 00                  NOP
8581   538A 00                  NOP
8582   538B 00                  NOP
8583   538C 00                  NOP
8584   538D 00                  NOP
8585   538E 00                  NOP
8586   538F 00                  NOP
8587   5390 00                  NOP
8588   5391 00                  NOP
8589   5392 00                  NOP
8590   5393 00                  NOP
8591   5394 00                  NOP
8592   5395 00                  NOP
8593   5396 00                  NOP
8594   5397 00                  NOP
8595   5398 00                  NOP
8596   5399 00                  NOP
8597   539A 00                  NOP
8598   539B 00                  NOP
8599   539C 00                  NOP
8600   539D 00                  NOP
8601   539E 00                  NOP
8602   539F 00                  NOP
8603   53A0 00                  NOP
8604   53A1 00                  NOP
8605   53A2 00                  NOP
8606   53A3 00                  NOP
8607   53A4 00                  NOP
8608   53A5 00                  NOP
8609   53A6 00                  NOP
8610   53A7 00                  NOP
8611   53A8 00                  NOP
8612   53A9 00                  NOP
8613   53AA 00                  NOP
8614   53AB 00                  NOP
8615   53AC 00                  NOP
8616   53AD 00                  NOP
8617   53AE 00                  NOP
8618   53AF 00                  NOP
8619   53B0 00                  NOP
8620   53B1 00                  NOP
8621   53B2 00                  NOP
8622   53B3 00                  NOP
8623   53B4 00                  NOP
8624   53B5 00                  NOP
8625   53B6 00                  NOP
8626   53B7 00                  NOP
8627   53B8 00                  NOP
8628   53B9 00                  NOP
8629   53BA 00                  NOP
8630   53BB 00                  NOP
8631   53BC 00                  NOP
8632   53BD 00                  NOP
8633   53BE 00                  NOP
8634   53BF 00                  NOP
8635   53C0 00                  NOP
8636   53C1 00                  NOP
8637   53C2 00                  NOP
8638   53C3 00                  NOP
8639   53C4 00                  NOP
8640   53C5 00                  NOP
8641   53C6 00                  NOP
8642   53C7 00                  NOP
8643   53C8 00                  NOP
8644   53C9 00                  NOP
8645   53CA 00                  NOP
8646   53CB 00                  NOP
8647   53CC 00                  NOP
8648   53CD 00                  NOP
8649   53CE 00                  NOP
8650   53CF 00                  NOP
8651   53D0 00                  NOP
8652   53D1 00                  NOP
8653   53D2 00                  NOP
8654   53D3 00                  NOP
8655   53D4 00                  NOP
8656   53D5 00                  NOP
8657   53D6 00                  NOP
8658   53D7 00                  NOP
8659   53D8 00                  NOP
8660   53D9 00                  NOP
8661   53DA 00                  NOP
8662   53DB 00                  NOP
8663   53DC 00                  NOP
8664   53DD 00                  NOP
8665   53DE 00                  NOP
8666   53DF 00                  NOP
8667   53E0 00                  NOP
8668   53E1 00                  NOP
8669   53E2 00                  NOP
8670   53E3 00                  NOP
8671   53E4 00                  NOP
8672   53E5 00                  NOP
8673   53E6 00                  NOP
8674   53E7 00                  NOP
8675   53E8 00                  NOP
8676   53E9 00                  NOP
8677   53EA 00                  NOP
8678   53EB 00                  NOP
8679   53EC 00                  NOP
8680   53ED 00                  NOP
8681   53EE 00                  NOP
8682   53EF 00                  NOP
8683   53F0 00                  NOP
8684   53F1 00                  NOP
8685   53F2 00                  NOP
8686   53F3 00                  NOP
8687   53F4 00                  NOP
8688   53F5 00                  NOP
8689   53F6 00                  NOP
8690   53F7 00                  NOP
8691   53F8 00                  NOP
8692   53F9 00                  NOP
8693   53FA 00                  NOP
8694   53FB 00                  NOP
8695   53FC 00                  NOP
8696   53FD 00                  NOP
8697   53FE 00                  NOP
8698   53FF 00                  NOP
8699   5400 00                  NOP
8700   5401 00                  NOP
8701   5402 00                  NOP
8702   5403 00                  NOP
8703   5404 00                  NOP
8704   5405 00                  NOP
8705   5406 00                  NOP
8706   5407 00                  NOP
8707   5408 00                  NOP
8708   5409 00                  NOP
8709   540A 00                  NOP
8710   540B 00                  NOP
8711   540C 00                  NOP
8712   540D 00                  NOP
8713   540E 00                  NOP
8714   540F 00                  NOP
8715   5410 00                  NOP
8716   5411 00                  NOP
8717   5412 00                  NOP
8718   5413 00                  NOP
8719   5414 00                  NOP
8720   5415 00                  NOP
8721   5416 00                  NOP
8722   5417 00                  NOP
8723   5418 00                  NOP
8724   5419 00                  NOP
8725   541A 00                  NOP
8726   541B 00                  NOP
8727   541C 00                  NOP
8728   541D 00                  NOP
8729   541E 00                  NOP
8730   541F 00                  NOP
8731   5420 00                  NOP
8732   5421 00                  NOP
8733   5422 00                  NOP
8734   5423 00                  NOP
8735   5424 00                  NOP
8736   5425 00                  NOP
8737   5426 00                  NOP
8738   5427 00                  NOP
8739   5428 00                  NOP
8740   5429 00                  NOP
8741   542A 00                  NOP
8742   542B 00                  NOP
8743   542C 00                  NOP
8744   542D 00                  NOP
8745   542E 00                  NOP
8746   542F 00                  NOP
8747   5430 00                  NOP
8748   5431 00                  NOP
8749   5432 00                  NOP
8750   5433 00                  NOP
8751   5434 00                  NOP
8752   5435 00                  NOP
8753   5436 00                  NOP
8754   5437 00                  NOP
8755   5438 00                  NOP
8756   5439 00                  NOP
8757   543A 00                  NOP
8758   543B 00                  NOP
8759   543C 00                  NOP
8760   543D 00                  NOP
8761   543E 00                  NOP
8762   543F 00                  NOP
8763   5440 00                  NOP
8764   5441 00                  NOP
8765   5442 00                  NOP
8766   5443 00                  NOP
8767   5444 00                  NOP
8768   5445 00                  NOP
8769   5446 00                  NOP
8770   5447 00                  NOP
8771   5448 00                  NOP
8772   5449 00                  NOP
8773   544A 00                  NOP
8774   544B 00                  NOP
8775   544C 00                  NOP
8776   544D 00                  NOP
8777   544E 00                  NOP
8778   544F 00                  NOP
8779   5450 00                  NOP
8780   5451 00                  NOP
8781   5452 00                  NOP
8782   5453 00                  NOP
8783   5454 00                  NOP
8784   5455 00                  NOP
8785   5456 00                  NOP
8786   5457 00                  NOP
8787   5458 00                  NOP
8788   5459 00                  NOP
8789   545A 00                  NOP
8790   545B 00                  NOP
8791   545C 00                  NOP
8792   545D 00                  NOP
8793   545E 00                  NOP
8794   545F 00                  NOP
8795   5460 00                  NOP
8796   5461 00                  NOP
8797   5462 00                  NOP
8798   5463 00                  NOP
8799   5464 00                  NOP
8800   5465 00                  NOP
8801   5466 00                  NOP
8802   5467 00                  NOP
8803   5468 00                  NOP
8804   5469 00                  NOP
8805   546A 00                  NOP
8806   546B 00                  NOP
8807   546C 00                  NOP
8808   546D 00                  NOP
8809   546E 00                  NOP
8810   546F 00                  NOP
8811   5470 00                  NOP
8812   5471 00                  NOP
8813   5472 00                  NOP
8814   5473 00                  NOP
8815   5474 00                  NOP
8816   5475 00                  NOP
8817   5476 00                  NOP
8818   5477 00                  NOP
8819   5478 00                  NOP
8820   5479 00                  NOP
8821   547A 00                  NOP
8822   547B 00                  NOP
8823   547C 00                  NOP
8824   547D 00                  NOP
8825   547E 00                  NOP
8826   547F 00                  NOP
8827   5480 00                  NOP
8828   5481 00                  NOP
8829   5482 00                  NOP
8830   5483 00                  NOP
8831   5484 00                  NOP
8832   5485 00                  NOP
8833   5486 00                  NOP
8834   5487 00                  NOP
8835   5488 00                  NOP
8836   5489 00                  NOP
8837   548A 00                  NOP
8838   548B 00                  NOP
8839   548C 00                  NOP
8840   548D 00                  NOP
8841   548E 00                  NOP
8842   548F 00                  NOP
8843   5490 00                  NOP
8844   5491 00                  NOP
8845   5492 00                  NOP
8846   5493 00                  NOP
8847   5494 00                  NOP
8848   5495 00                  NOP
8849   5496 00                  NOP
8850   5497 00                  NOP
8851   5498 00                  NOP
8852   5499 00                  NOP
8853   549A 00                  NOP
8854   549B 00                  NOP
8855   549C 00                  NOP
8856   549D 00                  NOP
8857   549E 00                  NOP
8858   549F 00                  NOP
8859   54A0 00                  NOP
8860   54A1 00                  NOP
8861   54A2 00                  NOP
8862   54A3 00                  NOP
8863   54A4 00                  NOP
8864   54A5 00                  NOP
8865   54A6 00                  NOP
8866   54A7 00                  NOP
8867   54A8 00                  NOP
8868   54A9 00                  NOP
8869   54AA 00                  NOP
8870   54AB 00                  NOP
8871   54AC 00                  NOP
8872   54AD 00                  NOP
8873   54AE 00                  NOP
8874   54AF 00                  NOP
8875   54B0 00                  NOP
8876   54B1 00                  NOP
8877   54B2 00                  NOP
8878   54B3 00                  NOP
8879   54B4 00                  NOP
8880   54B5 00                  NOP
8881   54B6 00                  NOP
8882   54B7 00                  NOP
8883   54B8 00                  NOP
8884   54B9 00                  NOP
8885   54BA 00                  NOP
8886   54BB 00                  NOP
8887   54BC 00                  NOP
8888   54BD 00                  NOP
8889   54BE 00                  NOP
8890   54BF 00                  NOP
8891   54C0 00                  NOP
8892   54C1 00                  NOP
8893   54C2 00                  NOP
8894   54C3 00                  NOP
8895   54C4 00                  NOP
8896   54C5 00                  NOP
8897   54C6 00                  NOP
8898   54C7 00                  NOP
8899   54C8 00                  NOP
8900   54C9 00                  NOP
8901   54CA 00                  NOP
8902   54CB 00                  NOP
8903   54CC 00                  NOP
8904   54CD 00                  NOP
8905   54CE 00                  NOP
8906   54CF 00                  NOP
8907   54D0 00                  NOP
8908   54D1 00                  NOP
8909   54D2 00                  NOP
8910   54D3 00                  NOP
8911   54D4 00                  NOP
8912   54D5 00                  NOP
8913   54D6 00                  NOP
8914   54D7 00                  NOP
8915   54D8 00                  NOP
8916   54D9 00                  NOP
8917   54DA 00                  NOP
8918   54DB 00                  NOP
8919   54DC 00                  NOP
8920   54DD 00                  NOP
8921   54DE 00                  NOP
8922   54DF 00                  NOP
8923   54E0 00                  NOP
8924   54E1 00                  NOP
8925   54E2 00                  NOP
8926   54E3 00                  NOP
8927   54E4 00                  NOP
8928   54E5 00                  NOP
8929   54E6 00                  NOP
8930   54E7 00                  NOP
8931   54E8 00                  NOP
8932   54E9 00                  NOP
8933   54EA 00                  NOP
8934   54EB 00                  NOP
8935   54EC 00                  NOP
8936   54ED 00                  NOP
8937   54EE 00                  NOP
8938   54EF 00                  NOP
8939   54F0 00                  NOP
8940   54F1 00                  NOP
8941   54F2 00                  NOP
8942   54F3 00                  NOP
8943   54F4 00                  NOP
8944   54F5 00                  NOP
8945   54F6 00                  NOP
8946   54F7 00                  NOP
8947   54F8 00                  NOP
8948   54F9 00                  NOP
8949   54FA 00                  NOP
8950   54FB 00                  NOP
8951   54FC 00                  NOP
8952   54FD 00                  NOP
8953   54FE 00                  NOP
8954   54FF 00                  NOP
8955   5500 00                  NOP
8956   5501 00                  NOP
8957   5502 00                  NOP
8958   5503 00                  NOP
8959   5504 00                  NOP
8960   5505 00                  NOP
8961   5506 00                  NOP
8962   5507 00                  NOP
8963   5508 00                  NOP
8964   5509 00                  NOP
8965   550A 00                  NOP
8966   550B 00                  NOP
8967   550C 00                  NOP
8968   550D 00                  NOP
8969   550E 00                  NOP
8970   550F 00                  NOP
8971   5510 00                  NOP
8972   5511 00                  NOP
8973   5512 00                  NOP
8974   5513 00                  NOP
8975   5514 00                  NOP
8976   5515 00                  NOP
8977   5516 00                  NOP
8978   5517 00                  NOP
8979   5518 00                  NOP
8980   5519 00                  NOP
8981   551A 00                  NOP
8982   551B 00                  NOP
8983   551C 00                  NOP
8984   551D 00                  NOP
8985   551E 00                  NOP
8986   551F 00                  NOP
8987   5520 00                  NOP
8988   5521 00                  NOP
8989   5522 00                  NOP
8990   5523 00                  NOP
8991   5524 00                  NOP
8992   5525 00                  NOP
8993   5526 00                  NOP
8994   5527 00                  NOP
8995   5528 00                  NOP
8996   5529 00                  NOP
8997   552A 00                  NOP
8998   552B 00                  NOP
8999   552C 00                  NOP
9000   552D 00                  NOP
9001   552E 00                  NOP
9002   552F 00                  NOP
9003   5530 00                  NOP
9004   5531 00                  NOP
9005   5532 00                  NOP
9006   5533 00                  NOP
9007   5534 00                  NOP
9008   5535 00                  NOP
9009   5536 00                  NOP
9010   5537 00                  NOP
9011   5538 00                  NOP
9012   5539 00                  NOP
9013   553A 00                  NOP
9014   553B 00                  NOP
9015   553C 00                  NOP
9016   553D 00                  NOP
9017   553E 00                  NOP
9018   553F 00                  NOP
9019   5540 00                  NOP
9020   5541 00                  NOP
9021   5542 00                  NOP
9022   5543 00                  NOP
9023   5544 00                  NOP
9024   5545 00                  NOP
9025   5546 00                  NOP
9026   5547 00                  NOP
9027   5548 00                  NOP
9028   5549 00                  NOP
9029   554A 00                  NOP
9030   554B 00                  NOP
9031   554C 00                  NOP
9032   554D 00                  NOP
9033   554E 00                  NOP
9034   554F 00                  NOP
9035   5550 00                  NOP
9036   5551 00                  NOP
9037   5552 00                  NOP
9038   5553 00                  NOP
9039   5554 00                  NOP
9040   5555 00                  NOP
9041   5556 00                  NOP
9042   5557 00                  NOP
9043   5558 00                  NOP
9044   5559 00                  NOP
9045   555A 00                  NOP
9046   555B 00                  NOP
9047   555C 00                  NOP
9048   555D 00                  NOP
9049   555E 00                  NOP
9050   555F 00                  NOP
9051   5560 00                  NOP
9052   5561 00                  NOP
9053   5562 00                  NOP
9054   5563 00                  NOP
9055   5564 00                  NOP
9056   5565 00                  NOP
9057   5566 00                  NOP
9058   5567 00                  NOP
9059   5568 00                  NOP
9060   5569 00                  NOP
9061   556A 00                  NOP
9062   556B 00                  NOP
9063   556C 00                  NOP
9064   556D 00                  NOP
9065   556E 00                  NOP
9066   556F 00                  NOP
9067   5570 00                  NOP
9068   5571 00                  NOP
9069   5572 00                  NOP
9070   5573 00                  NOP
9071   5574 00                  NOP
9072   5575 00                  NOP
9073   5576 00                  NOP
9074   5577 00                  NOP
9075   5578 00                  NOP
9076   5579 00                  NOP
9077   557A 00                  NOP
9078   557B 00                  NOP
9079   557C 00                  NOP
9080   557D 00                  NOP
9081   557E 00                  NOP
9082   557F 00                  NOP
9083   5580 00                  NOP
9084   5581 00                  NOP
9085   5582 00                  NOP
9086   5583 00                  NOP
9087   5584 00                  NOP
9088   5585 00                  NOP
9089   5586 00                  NOP
9090   5587 00                  NOP
9091   5588 00                  NOP
9092   5589 00                  NOP
9093   558A 00                  NOP
9094   558B 00                  NOP
9095   558C 00                  NOP
9096   558D 00                  NOP
9097   558E 00                  NOP
9098   558F 00                  NOP
9099   5590 00                  NOP
9100   5591 00                  NOP
9101   5592 00                  NOP
9102   5593 00                  NOP
9103   5594 00                  NOP
9104   5595 00                  NOP
9105   5596 00                  NOP
9106   5597 00                  NOP
9107   5598 00                  NOP
9108   5599 00                  NOP
9109   559A 00                  NOP
9110   559B 00                  NOP
9111   559C 00                  NOP
9112   559D 00                  NOP
9113   559E 00                  NOP
9114   559F 00                  NOP
9115   55A0 00                  NOP
9116   55A1 00                  NOP
9117   55A2 00                  NOP
9118   55A3 00                  NOP
9119   55A4 00                  NOP
9120   55A5 00                  NOP
9121   55A6 00                  NOP
9122   55A7 00                  NOP
9123   55A8 00                  NOP
9124   55A9 00                  NOP
9125   55AA 00                  NOP
9126   55AB 00                  NOP
9127   55AC 00                  NOP
9128   55AD 00                  NOP
9129   55AE 00                  NOP
9130   55AF 00                  NOP
9131   55B0 00                  NOP
9132   55B1 00                  NOP
9133   55B2 00                  NOP
9134   55B3 00                  NOP
9135   55B4 00                  NOP
9136   55B5 00                  NOP
9137   55B6 00                  NOP
9138   55B7 00                  NOP
9139   55B8 00                  NOP
9140   55B9 00                  NOP
9141   55BA 00                  NOP
9142   55BB 00                  NOP
9143   55BC 00                  NOP
9144   55BD 00                  NOP
9145   55BE 00                  NOP
9146   55BF 00                  NOP
9147   55C0 00                  NOP
9148   55C1 00                  NOP
9149   55C2 00                  NOP
9150   55C3 00                  NOP
9151   55C4 00                  NOP
9152   55C5 00                  NOP
9153   55C6 00                  NOP
9154   55C7 00                  NOP
9155   55C8 00                  NOP
9156   55C9 00                  NOP
9157   55CA 00                  NOP
9158   55CB 00                  NOP
9159   55CC 00                  NOP
9160   55CD 00                  NOP
9161   55CE 00                  NOP
9162   55CF 00                  NOP
9163   55D0 00                  NOP
9164   55D1 00                  NOP
9165   55D2 00                  NOP
9166   55D3 00                  NOP
9167   55D4 00                  NOP
9168   55D5 00                  NOP
9169   55D6 00                  NOP
9170   55D7 00                  NOP
9171   55D8 00                  NOP
9172   55D9 00                  NOP
9173   55DA 00                  NOP
9174   55DB 00                  NOP
9175   55DC 00                  NOP
9176   55DD 00                  NOP
9177   55DE 00                  NOP
9178   55DF 00                  NOP
9179   55E0 00                  NOP
9180   55E1 00                  NOP
9181   55E2 00                  NOP
9182   55E3 00                  NOP
9183   55E4 00                  NOP
9184   55E5 00                  NOP
9185   55E6 00                  NOP
9186   55E7 00                  NOP
9187   55E8 00                  NOP
9188   55E9 00                  NOP
9189   55EA 00                  NOP
9190   55EB 00                  NOP
9191   55EC 00                  NOP
9192   55ED 00                  NOP
9193   55EE 00                  NOP
9194   55EF 00                  NOP
9195   55F0 00                  NOP
9196   55F1 00                  NOP
9197   55F2 00                  NOP
9198   55F3 00                  NOP
9199   55F4 00                  NOP
9200   55F5 00                  NOP
9201   55F6 00                  NOP
9202   55F7 00                  NOP
9203   55F8 00                  NOP
9204   55F9 00                  NOP
9205   55FA 00                  NOP
9206   55FB 00                  NOP
9207   55FC 00                  NOP
9208   55FD 00                  NOP
9209   55FE 00                  NOP
9210   55FF 00                  NOP
9211   5600 00                  NOP
9212   5601 00                  NOP
9213   5602 00                  NOP
9214   5603 00                  NOP
9215   5604 00                  NOP
9216   5605 00                  NOP
9217   5606 00                  NOP
9218   5607 00                  NOP
9219   5608 00                  NOP
9220   5609 00                  NOP
9221   560A 00                  NOP
9222   560B 00                  NOP
9223   560C 00                  NOP
9224   560D 00                  NOP
9225   560E 00                  NOP
9226   560F 00                  NOP
9227   5610 00                  NOP
9228   5611 00                  NOP
9229   5612 00                  NOP
9230   5613 00                  NOP
9231   5614 00                  NOP
9232   5615 00                  NOP
9233   5616 00                  NOP
9234   5617 00                  NOP
9235   5618 00                  NOP
9236   5619 00                  NOP
9237   561A 00                  NOP
9238   561B 00                  NOP
9239   561C 00                  NOP
9240   561D 00                  NOP
9241   561E 00                  NOP
9242   561F 00                  NOP
9243   5620 00                  NOP
9244   5621 00                  NOP
9245   5622 00                  NOP
9246   5623 00                  NOP
9247   5624 00                  NOP
9248   5625 00                  NOP
9249   5626 00                  NOP
9250   5627 00                  NOP
9251   5628 00                  NOP
9252   5629 00                  NOP
9253   562A 00                  NOP
9254   562B 00                  NOP
9255   562C 00                  NOP
9256   562D 00                  NOP
9257   562E 00                  NOP
9258   562F 00                  NOP
9259   5630 00                  NOP
9260   5631 00                  NOP
9261   5632 00                  NOP
9262   5633 00                  NOP
9263   5634 00                  NOP
9264   5635 00                  NOP
9265   5636 00                  NOP
9266   5637 00                  NOP
9267   5638 00                  NOP
9268   5639 00                  NOP
9269   563A 00                  NOP
9270   563B 00                  NOP
9271   563C 00                  NOP
9272   563D 00                  NOP
9273   563E 00                  NOP
9274   563F 00                  NOP
9275   5640 00                  NOP
9276   5641 00                  NOP
9277   5642 00                  NOP
9278   5643 00                  NOP
9279   5644 00                  NOP
9280   5645 00                  NOP
9281   5646 00                  NOP
9282   5647 00                  NOP
9283   5648 00                  NOP
9284   5649 00                  NOP
9285   564A 00                  NOP
9286   564B 00                  NOP
9287   564C 00                  NOP
9288   564D 00                  NOP
9289   564E 00                  NOP
9290   564F 00                  NOP
9291   5650 00                  NOP
9292   5651 00                  NOP
9293   5652 00                  NOP
9294   5653 00                  NOP
9295   5654 00                  NOP
9296   5655 00                  NOP
9297   5656 00                  NOP
9298   5657 00                  NOP
9299   5658 00                  NOP
9300   5659 00                  NOP
9301   565A 00                  NOP
9302   565B 00                  NOP
9303   565C 00                  NOP
9304   565D 00                  NOP
9305   565E 00                  NOP
9306   565F 00                  NOP
9307   5660 00                  NOP
9308   5661 00                  NOP
9309   5662 00                  NOP
9310   5663 00                  NOP
9311   5664 00                  NOP
9312   5665 00                  NOP
9313   5666 00                  NOP
9314   5667 00                  NOP
9315   5668 00                  NOP
9316   5669 00                  NOP
9317   566A 00                  NOP
9318   566B 00                  NOP
9319   566C 00                  NOP
9320   566D 00                  NOP
9321   566E 00                  NOP
9322   566F 00                  NOP
9323   5670 00                  NOP
9324   5671 00                  NOP
9325   5672 00                  NOP
9326   5673 00                  NOP
9327   5674 00                  NOP
9328   5675 00                  NOP
9329   5676 00                  NOP
9330   5677 00                  NOP
9331   5678 00                  NOP
9332   5679 00                  NOP
9333   567A 00                  NOP
9334   567B 00                  NOP
9335   567C 00                  NOP
9336   567D 00                  NOP
9337   567E 00                  NOP
9338   567F 00                  NOP
9339   5680 00                  NOP
9340   5681 00                  NOP
9341   5682 00                  NOP
9342   5683 00                  NOP
9343   5684 00                  NOP
9344   5685 00                  NOP
9345   5686 00                  NOP
9346   5687 00                  NOP
9347   5688 00                  NOP
9348   5689 00                  NOP
9349   568A 00                  NOP
9350   568B 00                  NOP
9351   568C 00                  NOP
9352   568D 00                  NOP
9353   568E 00                  NOP
9354   568F 00                  NOP
9355   5690 00                  NOP
9356   5691 00                  NOP
9357   5692 00                  NOP
9358   5693 00                  NOP
9359   5694 00                  NOP
9360   5695 00                  NOP
9361   5696 00                  NOP
9362   5697 00                  NOP
9363   5698 00                  NOP
9364   5699 00                  NOP
9365   569A 00                  NOP
9366   569B 00                  NOP
9367   569C 00                  NOP
9368   569D 00                  NOP
9369   569E 00                  NOP
9370   569F 00                  NOP
9371   56A0 00                  NOP
9372   56A1 00                  NOP
9373   56A2 00                  NOP
9374   56A3 00                  NOP
9375   56A4 00                  NOP
9376   56A5 00                  NOP
9377   56A6 00                  NOP
9378   56A7 00                  NOP
9379   56A8 00                  NOP
9380   56A9 00                  NOP
9381   56AA 00                  NOP
9382   56AB 00                  NOP
9383   56AC 00                  NOP
9384   56AD 00                  NOP
9385   56AE 00                  NOP
9386   56AF 00                  NOP
9387   56B0 00                  NOP
9388   56B1 00                  NOP
9389   56B2 00                  NOP
9390   56B3 00                  NOP
9391   56B4 00                  NOP
9392   56B5 00                  NOP
9393   56B6 00                  NOP
9394   56B7 00                  NOP
9395   56B8 00                  NOP
9396   56B9 00                  NOP
9397   56BA 00                  NOP
9398   56BB 00                  NOP
9399   56BC 00                  NOP
9400   56BD 00                  NOP
9401   56BE 00                  NOP
9402   56BF 00                  NOP
9403   56C0 00                  NOP
9404   56C1 00                  NOP
9405   56C2 00                  NOP
9406   56C3 00                  NOP
9407   56C4 00                  NOP
9408   56C5 00                  NOP
9409   56C6 00                  NOP
9410   56C7 00                  NOP
9411   56C8 00                  NOP
9412   56C9 00                  NOP
9413   56CA 00                  NOP
9414   56CB 00                  NOP
9415   56CC 00                  NOP
9416   56CD 00                  NOP
9417   56CE 00                  NOP
9418   56CF 00                  NOP
9419   56D0 00                  NOP
9420   56D1 00                  NOP
9421   56D2 00                  NOP
9422   56D3 00                  NOP
9423   56D4 00                  NOP
9424   56D5 00                  NOP
9425   56D6 00                  NOP
9426   56D7 00                  NOP
9427   56D8 00                  NOP
9428   56D9 00                  NOP
9429   56DA 00                  NOP
9430   56DB 00                  NOP
9431   56DC 00                  NOP
9432   56DD 00                  NOP
9433   56DE 00                  NOP
9434   56DF 00                  NOP
9435   56E0 00                  NOP
9436   56E1 00                  NOP
9437   56E2 00                  NOP
9438   56E3 00                  NOP
9439   56E4 00                  NOP
9440   56E5 00                  NOP
9441   56E6 00                  NOP
9442   56E7 00                  NOP
9443   56E8 00                  NOP
9444   56E9 00                  NOP
9445   56EA 00                  NOP
9446   56EB 00                  NOP
9447   56EC 00                  NOP
9448   56ED 00                  NOP
9449   56EE 00                  NOP
9450   56EF 00                  NOP
9451   56F0 00                  NOP
9452   56F1 00                  NOP
9453   56F2 00                  NOP
9454   56F3 00                  NOP
9455   56F4 00                  NOP
9456   56F5 00                  NOP
9457   56F6 00                  NOP
9458   56F7 00                  NOP
9459   56F8 00                  NOP
9460   56F9 00                  NOP
9461   56FA 00                  NOP
9462   56FB 00                  NOP
9463   56FC 00                  NOP
9464   56FD 00                  NOP
9465   56FE 00                  NOP
9466   56FF 00                  NOP
9467   5700 00                  NOP
9468   5701 00                  NOP
9469   5702 00                  NOP
9470   5703 00                  NOP
9471   5704 00                  NOP
9472   5705 00                  NOP
9473   5706 00                  NOP
9474   5707 00                  NOP
9475   5708 00                  NOP
9476   5709 00                  NOP
9477   570A 00                  NOP
9478   570B 00                  NOP
9479   570C 00                  NOP
9480   570D 00                  NOP
9481   570E 00                  NOP
9482   570F 00                  NOP
9483   5710 00                  NOP
9484   5711 00                  NOP
9485   5712 00                  NOP
9486   5713 00                  NOP
9487   5714 00                  NOP
9488   5715 00                  NOP
9489   5716 00                  NOP
9490   5717 00                  NOP
9491   5718 00                  NOP
9492   5719 00                  NOP
9493   571A 00                  NOP
9494   571B 00                  NOP
9495   571C 00                  NOP
9496   571D 00                  NOP
9497   571E 00                  NOP
9498   571F 00                  NOP
9499   5720 00                  NOP
9500   5721 00                  NOP
9501   5722 00                  NOP
9502   5723 00                  NOP
9503   5724 00                  NOP
9504   5725 00                  NOP
9505   5726 00                  NOP
9506   5727 00                  NOP
9507   5728 00                  NOP
9508   5729 00                  NOP
9509   572A 00                  NOP
9510   572B 00                  NOP
9511   572C 00                  NOP
9512   572D 00                  NOP
9513   572E 00                  NOP
9514   572F 00                  NOP
9515   5730 00                  NOP
9516   5731 00                  NOP
9517   5732 00                  NOP
9518   5733 00                  NOP
9519   5734 00                  NOP
9520   5735 00                  NOP
9521   5736 00                  NOP
9522   5737 00                  NOP
9523   5738 00                  NOP
9524   5739 00                  NOP
9525   573A 00                  NOP
9526   573B 00                  NOP
9527   573C 00                  NOP
9528   573D 00                  NOP
9529   573E 00                  NOP
9530   573F 00                  NOP
9531   5740 00                  NOP
9532   5741 00                  NOP
9533   5742 00                  NOP
9534   5743 00                  NOP
9535   5744 00                  NOP
9536   5745 00                  NOP
9537   5746 00                  NOP
9538   5747 00                  NOP
9539   5748 00                  NOP
9540   5749 00                  NOP
9541   574A 00                  NOP
9542   574B 00                  NOP
9543   574C 00                  NOP
9544   574D 00                  NOP
9545   574E 00                  NOP
9546   574F 00                  NOP
9547   5750 00                  NOP
9548   5751 00                  NOP
9549   5752 00                  NOP
9550   5753 00                  NOP
9551   5754 00                  NOP
9552   5755 00                  NOP
9553   5756 00                  NOP
9554   5757 00                  NOP
9555   5758 00                  NOP
9556   5759 00                  NOP
9557   575A 00                  NOP
9558   575B 00                  NOP
9559   575C 00                  NOP
9560   575D 00                  NOP
9561   575E 00                  NOP
9562   575F 00                  NOP
9563   5760 00                  NOP
9564   5761 00                  NOP
9565   5762 00                  NOP
9566   5763 00                  NOP
9567   5764 00                  NOP
9568   5765 00                  NOP
9569   5766 00                  NOP
9570   5767 00                  NOP
9571   5768 00                  NOP
9572   5769 00                  NOP
9573   576A 00                  NOP
9574   576B 00                  NOP
9575   576C 00                  NOP
9576   576D 00                  NOP
9577   576E 00                  NOP
9578   576F 00                  NOP
9579   5770 00                  NOP
9580   5771 00                  NOP
9581   5772 00                  NOP
9582   5773 00                  NOP
9583   5774 00                  NOP
9584   5775 00                  NOP
9585   5776 00                  NOP
9586   5777 00                  NOP
9587   5778 00                  NOP
9588   5779 00                  NOP
9589   577A 00                  NOP
9590   577B 00                  NOP
9591   577C 00                  NOP
9592   577D 00                  NOP
9593   577E 00                  NOP
9594   577F 00                  NOP
9595   5780 00                  NOP
9596   5781 00                  NOP
9597   5782 00                  NOP
9598   5783 00                  NOP
9599   5784 00                  NOP
9600   5785 00                  NOP
9601   5786 00                  NOP
9602   5787 00                  NOP
9603   5788 00                  NOP
9604   5789 00                  NOP
9605   578A 00                  NOP
9606   578B 00                  NOP
9607   578C 00                  NOP
9608   578D 00                  NOP
9609   578E 00                  NOP
9610   578F 00                  NOP
9611   5790 00                  NOP
9612   5791 00                  NOP
9613   5792 00                  NOP
9614   5793 00                  NOP
9615   5794 00                  NOP
9616   5795 00                  NOP
9617   5796 00                  NOP
9618   5797 00                  NOP
9619   5798 00                  NOP
9620   5799 00                  NOP
9621   579A 00                  NOP
9622   579B 00                  NOP
9623   579C 00                  NOP
9624   579D 00                  NOP
9625   579E 00                  NOP
9626   579F 00                  NOP
9627   57A0 00                  NOP
9628   57A1 00                  NOP
9629   57A2 00                  NOP
9630   57A3 00                  NOP
9631   57A4 00                  NOP
9632   57A5 00                  NOP
9633   57A6 00                  NOP
9634   57A7 00                  NOP
9635   57A8 00                  NOP
9636   57A9 00                  NOP
9637   57AA 00                  NOP
9638   57AB 00                  NOP
9639   57AC 00                  NOP
9640   57AD 00                  NOP
9641   57AE 00                  NOP
9642   57AF 00                  NOP
9643   57B0 00                  NOP
9644   57B1 00                  NOP
9645   57B2 00                  NOP
9646   57B3 00                  NOP
9647   57B4 00                  NOP
9648   57B5 00                  NOP
9649   57B6 00                  NOP
9650   57B7 00                  NOP
9651   57B8 00                  NOP
9652   57B9 00                  NOP
9653   57BA 00                  NOP
9654   57BB 00                  NOP
9655   57BC 00                  NOP
9656   57BD 00                  NOP
9657   57BE 00                  NOP
9658   57BF 00                  NOP
9659   57C0 00                  NOP
9660   57C1 00                  NOP
9661   57C2 00                  NOP
9662   57C3 00                  NOP
9663   57C4 00                  NOP
9664   57C5 00                  NOP
9665   57C6 00                  NOP
9666   57C7 00                  NOP
9667   57C8 00                  NOP
9668   57C9 00                  NOP
9669   57CA 00                  NOP
9670   57CB 00                  NOP
9671   57CC 00                  NOP
9672   57CD 00                  NOP
9673   57CE 00                  NOP
9674   57CF 00                  NOP
9675   57D0 00                  NOP
9676   57D1 00                  NOP
9677   57D2 00                  NOP
9678   57D3 00                  NOP
9679   57D4 00                  NOP
9680   57D5 00                  NOP
9681   57D6 00                  NOP
9682   57D7 00                  NOP
9683   57D8 00                  NOP
9684   57D9 00                  NOP
9685   57DA 00                  NOP
9686   57DB 00                  NOP
9687   57DC 00                  NOP
9688   57DD 00                  NOP
9689   57DE 00                  NOP
9690   57DF 00                  NOP
9691   57E0 00                  NOP
9692   57E1 00                  NOP
9693   57E2 00                  NOP
9694   57E3 00                  NOP
9695   57E4 00                  NOP
9696   57E5 00                  NOP
9697   57E6 00                  NOP
9698   57E7 00                  NOP
9699   57E8 00                  NOP
9700   57E9 00                  NOP
9701   57EA 00                  NOP
9702   57EB 00                  NOP
9703   57EC 00                  NOP
9704   57ED 00                  NOP
9705   57EE 00                  NOP
9706   57EF 00                  NOP
9707   57F0 00                  NOP
9708   57F1 00                  NOP
9709   57F2 00                  NOP
9710   57F3 00                  NOP
9711   57F4 00                  NOP
9712   57F5 00                  NOP
9713   57F6 00                  NOP
9714   57F7 00                  NOP
9715   57F8 00                  NOP
9716   57F9 00                  NOP
9717   57FA 00                  NOP
9718   57FB 00                  NOP
9719   57FC 00                  NOP
9720   57FD 00                  NOP
9721   57FE 00                  NOP
9722   57FF 00                  NOP
9723   5800 00                  NOP
9724   5801 00                  NOP
9725   5802 00                  NOP
9726   5803 00                  NOP
9727   5804 00                  NOP
9728   5805 00                  NOP
9729   5806 00                  NOP
9730   5807 00                  NOP
9731   5808 00                  NOP
9732   5809 00                  NOP
9733   580A 00                  NOP
9734   580B 00                  NOP
9735   580C 00                  NOP
9736   580D 00                  NOP
9737   580E 00                  NOP
9738   580F 00                  NOP
9739   5810 00                  NOP
9740   5811 00                  NOP
9741   5812 00                  NOP
9742   5813 00                  NOP
9743   5814 00                  NOP
9744   5815 00                  NOP
9745   5816 00                  NOP
9746   5817 00                  NOP
9747   5818 00                  NOP
9748   5819 00                  NOP
9749   581A 00                  NOP
9750   581B 00                  NOP
9751   581C 00                  NOP
9752   581D 00                  NOP
9753   581E 00                  NOP
9754   581F 00                  NOP
9755   5820 00                  NOP
9756   5821 00                  NOP
9757   5822 00                  NOP
9758   5823 00                  NOP
9759   5824 00                  NOP
9760   5825 00                  NOP
9761   5826 00                  NOP
9762   5827 00                  NOP
9763   5828 00                  NOP
9764   5829 00                  NOP
9765   582A 00                  NOP
9766   582B 00                  NOP
9767   582C 00                  NOP
9768   582D 00                  NOP
9769   582E 00                  NOP
9770   582F 00                  NOP
9771   5830 00                  NOP
9772   5831 00                  NOP
9773   5832 00                  NOP
9774   5833 00                  NOP
9775   5834 00                  NOP
9776   5835 00                  NOP
9777   5836 00                  NOP
9778   5837 00                  NOP
9779   5838 00                  NOP
9780   5839 00                  NOP
9781   583A 00                  NOP
9782   583B 00                  NOP
9783   583C 00                  NOP
9784   583D 00                  NOP
9785   583E 00                  NOP
9786   583F 00                  NOP
9787   5840 00                  NOP
9788   5841 00                  NOP
9789   5842 00                  NOP
9790   5843 00                  NOP
9791   5844 00                  NOP
9792   5845 00                  NOP
9793   5846 00                  NOP
9794   5847 00                  NOP
9795   5848 00                  NOP
9796   5849 00                  NOP
9797   584A 00                  NOP
9798   584B 00                  NOP
9799   584C 00                  NOP
9800   584D 00                  NOP
9801   584E 00                  NOP
9802   584F 00                  NOP
9803   5850 00                  NOP
9804   5851 00                  NOP
9805   5852 00                  NOP
9806   5853 00                  NOP
9807   5854 00                  NOP
9808   5855 00                  NOP
9809   5856 00                  NOP
9810   5857 00                  NOP
9811   5858 00                  NOP
9812   5859 00                  NOP
9813   585A 00                  NOP
9814   585B 00                  NOP
9815   585C 00                  NOP
9816   585D 00                  NOP
9817   585E 00                  NOP
9818   585F 00                  NOP
9819   5860 00                  NOP
9820   5861 00                  NOP
9821   5862 00                  NOP
9822   5863 00                  NOP
9823   5864 00                  NOP
9824   5865 00                  NOP
9825   5866 00                  NOP
9826   5867 00                  NOP
9827   5868 00                  NOP
9828   5869 00                  NOP
9829   586A 00                  NOP
9830   586B 00                  NOP
9831   586C 00                  NOP
9832   586D 00                  NOP
9833   586E 00                  NOP
9834   586F 00                  NOP
9835   5870 00                  NOP
9836   5871 00                  NOP
9837   5872 00                  NOP
9838   5873 00                  NOP
9839   5874 00                  NOP
9840   5875 00                  NOP
9841   5876 00                  NOP
9842   5877 00                  NOP
9843   5878 00                  NOP
9844   5879 00                  NOP
9845   587A 00                  NOP
9846   587B 00                  NOP
9847   587C 00                  NOP
9848   587D 00                  NOP
9849   587E 00                  NOP
9850   587F 00                  NOP
9851   5880 00                  NOP
9852   5881 00                  NOP
9853   5882 00                  NOP
9854   5883 00                  NOP
9855   5884 00                  NOP
9856   5885 00                  NOP
9857   5886 00                  NOP
9858   5887 00                  NOP
9859   5888 00                  NOP
9860   5889 00                  NOP
9861   588A 00                  NOP
9862   588B 00                  NOP
9863   588C 00                  NOP
9864   588D 00                  NOP
9865   588E 00                  NOP
9866   588F 00                  NOP
9867   5890 00                  NOP
9868   5891 00                  NOP
9869   5892 00                  NOP
9870   5893 00                  NOP
9871   5894 00                  NOP
9872   5895 00                  NOP
9873   5896 00                  NOP
9874   5897 00                  NOP
9875   5898 00                  NOP
9876   5899 00                  NOP
9877   589A 00                  NOP
9878   589B 00                  NOP
9879   589C 00                  NOP
9880   589D 00                  NOP
9881   589E 00                  NOP
9882   589F 00                  NOP
9883   58A0 00                  NOP
9884   58A1 00                  NOP
9885   58A2 00                  NOP
9886   58A3 00                  NOP
9887   58A4 00                  NOP
9888   58A5 00                  NOP
9889   58A6 00                  NOP
9890   58A7 00                  NOP
9891   58A8 00                  NOP
9892   58A9 00                  NOP
9893   58AA 00                  NOP
9894   58AB 00                  NOP
9895   58AC 00                  NOP
9896   58AD 00                  NOP
9897   58AE 00                  NOP
9898   58AF 00                  NOP
9899   58B0 00                  NOP
9900   58B1 00                  NOP
9901   58B2 00                  NOP
9902   58B3 00                  NOP
9903   58B4 00                  NOP
9904   58B5 00                  NOP
9905   58B6 00                  NOP
9906   58B7 00                  NOP
9907   58B8 00                  NOP
9908   58B9 00                  NOP
9909   58BA 00                  NOP
9910   58BB 00                  NOP
9911   58BC 00                  NOP
9912   58BD 00                  NOP
9913   58BE 00                  NOP
9914   58BF 00                  NOP
9915   58C0 00                  NOP
9916   58C1 00                  NOP
9917   58C2 00                  NOP
9918   58C3 00                  NOP
9919   58C4 00                  NOP
9920   58C5 00                  NOP
9921   58C6 00                  NOP
9922   58C7 00                  NOP
9923   58C8 00                  NOP
9924   58C9 00                  NOP
9925   58CA 00                  NOP
9926   58CB 00                  NOP
9927   58CC 00                  NOP
9928   58CD 00                  NOP
9929   58CE 00                  NOP
9930   58CF 00                  NOP
9931   58D0 00                  NOP
9932   58D1 00                  NOP
9933   58D2 00                  NOP
9934   58D3 00                  NOP
9935   58D4 00                  NOP
9936   58D5 00                  NOP
9937   58D6 00                  NOP
9938   58D7 00                  NOP
9939   58D8 00                  NOP
9940   58D9 00                  NOP
9941   58DA 00                  NOP
9942   58DB 00                  NOP
9943   58DC 00                  NOP
9944   58DD 00                  NOP
9945   58DE 00                  NOP
9946   58DF 00                  NOP
9947   58E0 00                  NOP
9948   58E1 00                  NOP
9949   58E2 00                  NOP
9950   58E3 00                  NOP
9951   58E4 00                  NOP
9952   58E5 00                  NOP
9953   58E6 00                  NOP
9954   58E7 00                  NOP
9955   58E8 00                  NOP
9956   58E9 00                  NOP
9957   58EA 00                  NOP
9958   58EB 00                  NOP
9959   58EC 00                  NOP
9960   58ED 00                  NOP
9961   58EE 00                  NOP
9962   58EF 00                  NOP
9963   58F0 00                  NOP
9964   58F1 00                  NOP
9965   58F2 00                  NOP
9966   58F3 00                  NOP
9967   58F4 00                  NOP
9968   58F5 00                  NOP
9969   58F6 00                  NOP
9970   58F7 00                  NOP
9971   58F8 00                  NOP
9972   58F9 00                  NOP
9973   58FA 00                  NOP
9974   58FB 00                  NOP
9975   58FC 00                  NOP
9976   58FD 00                  NOP
9977   58FE 00                  NOP
9978   58FF 00                  NOP
9979   5900 00                  NOP
9980   5901 00                  NOP
9981   5902 00                  NOP
9982   5903 00                  NOP
9983   5904 00                  NOP
9984   5905 00                  NOP
9985   5906 00                  NOP
9986   5907 00                  NOP
9987   5908 00                  NOP
9988   5909 00                  NOP
9989   590A 00                  NOP
9990   590B 00                  NOP
9991   590C 00                  NOP
9992   590D 00                  NOP
9993   590E 00                  NOP
9994   590F 00                  NOP
9995   5910 00                  NOP
9996   5911 00                  NOP
9997   5912 00                  NOP
9998   5913 00                  NOP
9999   5914 00                  NOP
0000   5915 00                  NOP
0001   5916 00                  NOP
0002   5917 00                  NOP
0003   5918 00                  NOP
0004   5919 00                  NOP
0005   591A 00                  NOP
0006   591B 00                  NOP
0007   591C 00                  NOP
0008   591D 00                  NOP
0009   591E 00                  NOP
0010   591F 00                  NOP
0011   5920 00                  NOP
0012   5921 00                  NOP
0013   5922 00                  NOP
0014   5923 00                  NOP
0015   5924 00                  NOP
0016   5925 00                  NOP
0017   5926 00                  NOP
0018   5927 00                  NOP
0019   5928 00                  NOP
0020   5929 00                  NOP
0021   592A 00                  NOP
0022   592B 00                  NOP
0023   592C 00                  NOP
0024   592D 00                  NOP
0025   592E 00                  NOP
0026   592F 00                  NOP
0027   5930 00                  NOP
0028   5931 00                  NOP
0029   5932 00                  NOP
0030   5933 00                  NOP
0031   5934 00                  NOP
0032   5935 00                  NOP
0033   5936 00                  NOP
0034   5937 00                  NOP
0035   5938 00                  NOP
0036   5939 00                  NOP
0037   593A 00                  NOP
0038   593B 00                  NOP
0039   593C 00                  NOP
0040   593D 00                  NOP
0041   593E 00                  NOP
0042   593F 00                  NOP
0043   5940 00                  NOP
0044   5941 00                  NOP
0045   5942 00                  NOP
0046   5943 00                  NOP
0047   5944 00                  NOP
0048   5945 00                  NOP
0049   5946 00                  NOP
0050   5947 00                  NOP
0051   5948 00                  NOP
0052   5949 00                  NOP
0053   594A 00                  NOP
0054   594B 00                  NOP
0055   594C 00                  NOP
0056   594D 00                  NOP
0057   594E 00                  NOP
0058   594F 00                  NOP
0059   5950 00                  NOP
0060   5951 00                  NOP
0061   5952 00                  NOP
0062   5953 00                  NOP
0063   5954 00                  NOP
0064   5955 00                  NOP
0065   5956 00                  NOP
0066   5957 00                  NOP
0067   5958 00                  NOP
0068   5959 00                  NOP
0069   595A 00                  NOP
0070   595B 00                  NOP
0071   595C 00                  NOP
0072   595D 00                  NOP
0073   595E 00                  NOP
0074   595F 00                  NOP
0075   5960 00                  NOP
0076   5961 00                  NOP
0077   5962 00                  NOP
0078   5963 00                  NOP
0079   5964 00                  NOP
0080   5965 00                  NOP
0081   5966 00                  NOP
0082   5967 00                  NOP
0083   5968 00                  NOP
0084   5969 00                  NOP
0085   596A 00                  NOP
0086   596B 00                  NOP
0087   596C 00                  NOP
0088   596D 00                  NOP
0089   596E 00                  NOP
0090   596F 00                  NOP
0091   5970 00                  NOP
0092   5971 00                  NOP
0093   5972 00                  NOP
0094   5973 00                  NOP
0095   5974 00                  NOP
0096   5975 00                  NOP
0097   5976 00                  NOP
0098   5977 00                  NOP
0099   5978 00                  NOP
0100   5979 00                  NOP
0101   597A 00                  NOP
0102   597B 00                  NOP
0103   597C 00                  NOP
0104   597D 00                  NOP
0105   597E 00                  NOP
0106   597F 00                  NOP
0107   5980 00                  NOP
0108   5981 00                  NOP
0109   5982 00                  NOP
0110   5983 00                  NOP
0111   5984 00                  NOP
0112   5985 00                  NOP
0113   5986 00                  NOP
0114   5987 00                  NOP
0115   5988 00                  NOP
0116   5989 00                  NOP
0117   598A 00                  NOP
0118   598B 00                  NOP
0119   598C 00                  NOP
0120   598D 00                  NOP
0121   598E 00                  NOP
0122   598F 00                  NOP
0123   5990 00                  NOP
0124   5991 00                  NOP
0125   5992 00                  NOP
0126   5993 00                  NOP
0127   5994 00                  NOP
0128   5995 00                  NOP
0129   5996 00                  NOP
0130   5997 00                  NOP
0131   5998 00                  NOP
0132   5999 00                  NOP
0133   599A 00                  NOP
0134   599B 00                  NOP
0135   599C 00                  NOP
0136   599D 00                  NOP
0137   599E 00                  NOP
0138   599F 00                  NOP
0139   59A0 00                  NOP
0140   59A1 00                  NOP
0141   59A2 00                  NOP
0142   59A3 00                  NOP
0143   59A4 00                  NOP
0144   59A5 00                  NOP
0145   59A6 00                  NOP
0146   59A7 00                  NOP
0147   59A8 00                  NOP
0148   59A9 00                  NOP
0149   59AA 00                  NOP
0150   59AB 00                  NOP
0151   59AC 00                  NOP
0152   59AD 00                  NOP
0153   59AE 00                  NOP
0154   59AF 00                  NOP
0155   59B0 00                  NOP
0156   59B1 00                  NOP
0157   59B2 00                  NOP
0158   59B3 00                  NOP
0159   59B4 00                  NOP
0160   59B5 00                  NOP
0161   59B6 00                  NOP
0162   59B7 00                  NOP
0163   59B8 00                  NOP
0164   59B9 00                  NOP
0165   59BA 00                  NOP
0166   59BB 00                  NOP
0167   59BC 00                  NOP
0168   59BD 00                  NOP
0169   59BE 00                  NOP
0170   59BF 00                  NOP
0171   59C0 00                  NOP
0172   59C1 00                  NOP
0173   59C2 00                  NOP
0174   59C3 00                  NOP
0175   59C4 00                  NOP
0176   59C5 00                  NOP
0177   59C6 00                  NOP
0178   59C7 00                  NOP
0179   59C8 00                  NOP
0180   59C9 00                  NOP
0181   59CA 00                  NOP
0182   59CB 00                  NOP
0183   59CC 00                  NOP
0184   59CD 00                  NOP
0185   59CE 00                  NOP
0186   59CF 00                  NOP
0187   59D0 00                  NOP
0188   59D1 00                  NOP
0189   59D2 00                  NOP
0190   59D3 00                  NOP
0191   59D4 00                  NOP
0192   59D5 00                  NOP
0193   59D6 00                  NOP
0194   59D7 00                  NOP
0195   59D8 00                  NOP
0196   59D9 00                  NOP
0197   59DA 00                  NOP
0198   59DB 00                  NOP
0199   59DC 00                  NOP
0200   59DD 00                  NOP
0201   59DE 00                  NOP
0202   59DF 00                  NOP
0203   59E0 00                  NOP
0204   59E1 00                  NOP
0205   59E2 00                  NOP
0206   59E3 00                  NOP
0207   59E4 00                  NOP
0208   59E5 00                  NOP
0209   59E6 00                  NOP
0210   59E7 00                  NOP
0211   59E8 00                  NOP
0212   59E9 00                  NOP
0213   59EA 00                  NOP
0214   59EB 00                  NOP
0215   59EC 00                  NOP
0216   59ED 00                  NOP
0217   59EE 00                  NOP
0218   59EF 00                  NOP
0219   59F0 00                  NOP
0220   59F1 00                  NOP
0221   59F2 00                  NOP
0222   59F3 00                  NOP
0223   59F4 00                  NOP
0224   59F5 00                  NOP
0225   59F6 00                  NOP
0226   59F7 00                  NOP
0227   59F8 00                  NOP
0228   59F9 00                  NOP
0229   59FA 00                  NOP
0230   59FB 00                  NOP
0231   59FC 00                  NOP
0232   59FD 00                  NOP
0233   59FE 00                  NOP
0234   59FF 00                  NOP
0235   5A00 00                  NOP
0236   5A01 00                  NOP
0237   5A02 00                  NOP
0238   5A03 00                  NOP
0239   5A04 00                  NOP
0240   5A05 00                  NOP
0241   5A06 00                  NOP
0242   5A07 00                  NOP
0243   5A08 00                  NOP
0244   5A09 00                  NOP
0245   5A0A 00                  NOP
0246   5A0B 00                  NOP
0247   5A0C 00                  NOP
0248   5A0D 00                  NOP
0249   5A0E 00                  NOP
0250   5A0F 00                  NOP
0251   5A10 00                  NOP
0252   5A11 00                  NOP
0253   5A12 00                  NOP
0254   5A13 00                  NOP
0255   5A14 00                  NOP
0256   5A15 00                  NOP
0257   5A16 00                  NOP
0258   5A17 00                  NOP
0259   5A18 00                  NOP
0260   5A19 00                  NOP
0261   5A1A 00                  NOP
0262   5A1B 00                  NOP
0263   5A1C 00                  NOP
0264   5A1D 00                  NOP
0265   5A1E 00                  NOP
0266   5A1F 00                  NOP
0267   5A20 00                  NOP
0268   5A21 00                  NOP
0269   5A22 00                  NOP
0270   5A23 00                  NOP
0271   5A24 00                  NOP
0272   5A25 00                  NOP
0273   5A26 00                  NOP
0274   5A27 00                  NOP
0275   5A28 00                  NOP
0276   5A29 00                  NOP
0277   5A2A 00                  NOP
0278   5A2B 00                  NOP
0279   5A2C 00                  NOP
0280   5A2D 00                  NOP
0281   5A2E 00                  NOP
0282   5A2F 00                  NOP
0283   5A30 00                  NOP
0284   5A31 00                  NOP
0285   5A32 00                  NOP
0286   5A33 00                  NOP
0287   5A34 00                  NOP
0288   5A35 00                  NOP
0289   5A36 00                  NOP
0290   5A37 00                  NOP
0291   5A38 00                  NOP
0292   5A39 00                  NOP
0293   5A3A 00                  NOP
0294   5A3B 00                  NOP
0295   5A3C 00                  NOP
0296   5A3D 00                  NOP
0297   5A3E 00                  NOP
0298   5A3F 00                  NOP
0299   5A40 00                  NOP
0300   5A41 00                  NOP
0301   5A42 00                  NOP
0302   5A43 00                  NOP
0303   5A44 00                  NOP
0304   5A45 00                  NOP
0305   5A46 00                  NOP
0306   5A47 00                  NOP
0307   5A48 00                  NOP
0308   5A49 00                  NOP
0309   5A4A 00                  NOP
0310   5A4B 00                  NOP
0311   5A4C 00                  NOP
0312   5A4D 00                  NOP
0313   5A4E 00                  NOP
0314   5A4F 00                  NOP
0315   5A50 00                  NOP
0316   5A51 00                  NOP
0317   5A52 00                  NOP
0318   5A53 00                  NOP
0319   5A54 00                  NOP
0320   5A55 00                  NOP
0321   5A56 00                  NOP
0322   5A57 00                  NOP
0323   5A58 00                  NOP
0324   5A59 00                  NOP
0325   5A5A 00                  NOP
0326   5A5B 00                  NOP
0327   5A5C 00                  NOP
0328   5A5D 00                  NOP
0329   5A5E 00                  NOP
0330   5A5F 00                  NOP
0331   5A60 00                  NOP
0332   5A61 00                  NOP
0333   5A62 00                  NOP
0334   5A63 00                  NOP
0335   5A64 00                  NOP
0336   5A65 00                  NOP
0337   5A66 00                  NOP
0338   5A67 00                  NOP
0339   5A68 00                  NOP
0340   5A69 00                  NOP
0341   5A6A 00                  NOP
0342   5A6B 00                  NOP
0343   5A6C 00                  NOP
0344   5A6D 00                  NOP
0345   5A6E 00                  NOP
0346   5A6F 00                  NOP
0347   5A70 00                  NOP
0348   5A71 00                  NOP
0349   5A72 00                  NOP
0350   5A73 00                  NOP
0351   5A74 00                  NOP
0352   5A75 00                  NOP
0353   5A76 00                  NOP
0354   5A77 00                  NOP
0355   5A78 00                  NOP
0356   5A79 00                  NOP
0357   5A7A 00                  NOP
0358   5A7B 00                  NOP
0359   5A7C 00                  NOP
0360   5A7D 00                  NOP
0361   5A7E 00                  NOP
0362   5A7F 00                  NOP
0363   5A80 00                  NOP
0364   5A81 00                  NOP
0365   5A82 00                  NOP
0366   5A83 00                  NOP
0367   5A84 00                  NOP
0368   5A85 00                  NOP
0369   5A86 00                  NOP
0370   5A87 00                  NOP
0371   5A88 00                  NOP
0372   5A89 00                  NOP
0373   5A8A 00                  NOP
0374   5A8B 00                  NOP
0375   5A8C 00                  NOP
0376   5A8D 00                  NOP
0377   5A8E 00                  NOP
0378   5A8F 00                  NOP
0379   5A90 00                  NOP
0380   5A91 00                  NOP
0381   5A92 00                  NOP
0382   5A93 00                  NOP
0383   5A94 00                  NOP
0384   5A95 00                  NOP
0385   5A96 00                  NOP
0386   5A97 00                  NOP
0387   5A98 00                  NOP
0388   5A99 00                  NOP
0389   5A9A 00                  NOP
0390   5A9B 00                  NOP
0391   5A9C 00                  NOP
0392   5A9D 00                  NOP
0393   5A9E 00                  NOP
0394   5A9F 00                  NOP
0395   5AA0 00                  NOP
0396   5AA1 00                  NOP
0397   5AA2 00                  NOP
0398   5AA3 00                  NOP
0399   5AA4 00                  NOP
0400   5AA5 00                  NOP
0401   5AA6 00                  NOP
0402   5AA7 00                  NOP
0403   5AA8 00                  NOP
0404   5AA9 00                  NOP
0405   5AAA 00                  NOP
0406   5AAB 00                  NOP
0407   5AAC 00                  NOP
0408   5AAD 00                  NOP
0409   5AAE 00                  NOP
0410   5AAF 00                  NOP
0411   5AB0 00                  NOP
0412   5AB1 00                  NOP
0413   5AB2 00                  NOP
0414   5AB3 00                  NOP
0415   5AB4 00                  NOP
0416   5AB5 00                  NOP
0417   5AB6 00                  NOP
0418   5AB7 00                  NOP
0419   5AB8 00                  NOP
0420   5AB9 00                  NOP
0421   5ABA 00                  NOP
0422   5ABB 00                  NOP
0423   5ABC 00                  NOP
0424   5ABD 00                  NOP
0425   5ABE 00                  NOP
0426   5ABF 00                  NOP
0427   5AC0 00                  NOP
0428   5AC1 00                  NOP
0429   5AC2 00                  NOP
0430   5AC3 00                  NOP
0431   5AC4 00                  NOP
0432   5AC5 00                  NOP
0433   5AC6 00                  NOP
0434   5AC7 00                  NOP
0435   5AC8 00                  NOP
0436   5AC9 00                  NOP
0437   5ACA 00                  NOP
0438   5ACB 00                  NOP
0439   5ACC 00                  NOP
0440   5ACD 00                  NOP
0441   5ACE 00                  NOP
0442   5ACF 00                  NOP
0443   5AD0 00                  NOP
0444   5AD1 00                  NOP
0445   5AD2 00                  NOP
0446   5AD3 00                  NOP
0447   5AD4 00                  NOP
0448   5AD5 00                  NOP
0449   5AD6 00                  NOP
0450   5AD7 00                  NOP
0451   5AD8 00                  NOP
0452   5AD9 00                  NOP
0453   5ADA 00                  NOP
0454   5ADB 00                  NOP
0455   5ADC 00                  NOP
0456   5ADD 00                  NOP
0457   5ADE 00                  NOP
0458   5ADF 00                  NOP
0459   5AE0 00                  NOP
0460   5AE1 00                  NOP
0461   5AE2 00                  NOP
0462   5AE3 00                  NOP
0463   5AE4 00                  NOP
0464   5AE5 00                  NOP
0465   5AE6 00                  NOP
0466   5AE7 00                  NOP
0467   5AE8 00                  NOP
0468   5AE9 00                  NOP
0469   5AEA 00                  NOP
0470   5AEB 00                  NOP
0471   5AEC 00                  NOP
0472   5AED 00                  NOP
0473   5AEE 00                  NOP
0474   5AEF 00                  NOP
0475   5AF0 00                  NOP
0476   5AF1 00                  NOP
0477   5AF2 00                  NOP
0478   5AF3 00                  NOP
0479   5AF4 00                  NOP
0480   5AF5 00                  NOP
0481   5AF6 00                  NOP
0482   5AF7 00                  NOP
0483   5AF8 00                  NOP
0484   5AF9 00                  NOP
0485   5AFA 00                  NOP
0486   5AFB 00                  NOP
0487   5AFC 00                  NOP
0488   5AFD 00                  NOP
0489   5AFE 00                  NOP
0490   5AFF 00                  NOP
0491   5B00 00                  NOP
0492   5B01 00                  NOP
0493   5B02 00                  NOP
0494   5B03 00                  NOP
0495   5B04 00                  NOP
0496   5B05 00                  NOP
0497   5B06 00                  NOP
0498   5B07 00                  NOP
0499   5B08 00                  NOP
0500   5B09 00                  NOP
0501   5B0A 00                  NOP
0502   5B0B 00                  NOP
0503   5B0C 00                  NOP
0504   5B0D 00                  NOP
0505   5B0E 00                  NOP
0506   5B0F 00                  NOP
0507   5B10 00                  NOP
0508   5B11 00                  NOP
0509   5B12 00                  NOP
0510   5B13 00                  NOP
0511   5B14 00                  NOP
0512   5B15 00                  NOP
0513   5B16 00                  NOP
0514   5B17 00                  NOP
0515   5B18 00                  NOP
0516   5B19 00                  NOP
0517   5B1A 00                  NOP
0518   5B1B 00                  NOP
0519   5B1C 00                  NOP
0520   5B1D 00                  NOP
0521   5B1E 00                  NOP
0522   5B1F 00                  NOP
0523   5B20 00                  NOP
0524   5B21 00                  NOP
0525   5B22 00                  NOP
0526   5B23 00                  NOP
0527   5B24 00                  NOP
0528   5B25 00                  NOP
0529   5B26 00                  NOP
0530   5B27 00                  NOP
0531   5B28 00                  NOP
0532   5B29 00                  NOP
0533   5B2A 00                  NOP
0534   5B2B 00                  NOP
0535   5B2C 00                  NOP
0536   5B2D 00                  NOP
0537   5B2E 00                  NOP
0538   5B2F 00                  NOP
0539   5B30 00                  NOP
0540   5B31 00                  NOP
0541   5B32 00                  NOP
0542   5B33 00                  NOP
0543   5B34 00                  NOP
0544   5B35 00                  NOP
0545   5B36 00                  NOP
0546   5B37 00                  NOP
0547   5B38 00                  NOP
0548   5B39 00                  NOP
0549   5B3A 00                  NOP
0550   5B3B 00                  NOP
0551   5B3C 00                  NOP
0552   5B3D 00                  NOP
0553   5B3E 00                  NOP
0554   5B3F 00                  NOP
0555   5B40 00                  NOP
0556   5B41 00                  NOP
0557   5B42 00                  NOP
0558   5B43 00                  NOP
0559   5B44 00                  NOP
0560   5B45 00                  NOP
0561   5B46 00                  NOP
0562   5B47 00                  NOP
0563   5B48 00                  NOP
0564   5B49 00                  NOP
0565   5B4A 00                  NOP
0566   5B4B 00                  NOP
0567   5B4C 00                  NOP
0568   5B4D 00                  NOP
0569   5B4E 00                  NOP
0570   5B4F 00                  NOP
0571   5B50 00                  NOP
0572   5B51 00                  NOP
0573   5B52 00                  NOP
0574   5B53 00                  NOP
0575   5B54 00                  NOP
0576   5B55 00                  NOP
0577   5B56 00                  NOP
0578   5B57 00                  NOP
0579   5B58 00                  NOP
0580   5B59 00                  NOP
0581   5B5A 00                  NOP
0582   5B5B 00                  NOP
0583   5B5C 00                  NOP
0584   5B5D 00                  NOP
0585   5B5E 00                  NOP
0586   5B5F 00                  NOP
0587   5B60 00                  NOP
0588   5B61 00                  NOP
0589   5B62 00                  NOP
0590   5B63 00                  NOP
0591   5B64 00                  NOP
0592   5B65 00                  NOP
0593   5B66 00                  NOP
0594   5B67 00                  NOP
0595   5B68 00                  NOP
0596   5B69 00                  NOP
0597   5B6A 00                  NOP
0598   5B6B 00                  NOP
0599   5B6C 00                  NOP
0600   5B6D 00                  NOP
0601   5B6E 00                  NOP
0602   5B6F 00                  NOP
0603   5B70 00                  NOP
0604   5B71 00                  NOP
0605   5B72 00                  NOP
0606   5B73 00                  NOP
0607   5B74 00                  NOP
0608   5B75 00                  NOP
0609   5B76 00                  NOP
0610   5B77 00                  NOP
0611   5B78 00                  NOP
0612   5B79 00                  NOP
0613   5B7A 00                  NOP
0614   5B7B 00                  NOP
0615   5B7C 00                  NOP
0616   5B7D 00                  NOP
0617   5B7E 00                  NOP
0618   5B7F 00                  NOP
0619   5B80 00                  NOP
0620   5B81 00                  NOP
0621   5B82 00                  NOP
0622   5B83 00                  NOP
0623   5B84 00                  NOP
0624   5B85 00                  NOP
0625   5B86 00                  NOP
0626   5B87 00                  NOP
0627   5B88 00                  NOP
0628   5B89 00                  NOP
0629   5B8A 00                  NOP
0630   5B8B 00                  NOP
0631   5B8C 00                  NOP
0632   5B8D 00                  NOP
0633   5B8E 00                  NOP
0634   5B8F 00                  NOP
0635   5B90 00                  NOP
0636   5B91 00                  NOP
0637   5B92 00                  NOP
0638   5B93 00                  NOP
0639   5B94 00                  NOP
0640   5B95 00                  NOP
0641   5B96 00                  NOP
0642   5B97 00                  NOP
0643   5B98 00                  NOP
0644   5B99 00                  NOP
0645   5B9A 00                  NOP
0646   5B9B 00                  NOP
0647   5B9C 00                  NOP
0648   5B9D 00                  NOP
0649   5B9E 00                  NOP
0650   5B9F 00                  NOP
0651   5BA0 00                  NOP
0652   5BA1 00                  NOP
0653   5BA2 00                  NOP
0654   5BA3 00                  NOP
0655   5BA4 00                  NOP
0656   5BA5 00                  NOP
0657   5BA6 00                  NOP
0658   5BA7 00                  NOP
0659   5BA8 00                  NOP
0660   5BA9 00                  NOP
0661   5BAA 00                  NOP
0662   5BAB 00                  NOP
0663   5BAC 00                  NOP
0664   5BAD 00                  NOP
0665   5BAE 00                  NOP
0666   5BAF 00                  NOP
0667   5BB0 00                  NOP
0668   5BB1 00                  NOP
0669   5BB2 00                  NOP
0670   5BB3 00                  NOP
0671   5BB4 00                  NOP
0672   5BB5 00                  NOP
0673   5BB6 00                  NOP
0674   5BB7 00                  NOP
0675   5BB8 00                  NOP
0676   5BB9 00                  NOP
0677   5BBA 00                  NOP
0678   5BBB 00                  NOP
0679   5BBC 00                  NOP
0680   5BBD 00                  NOP
0681   5BBE 00                  NOP
0682   5BBF 00                  NOP
0683   5BC0 00                  NOP
0684   5BC1 00                  NOP
0685   5BC2 00                  NOP
0686   5BC3 00                  NOP
0687   5BC4 00                  NOP
0688   5BC5 00                  NOP
0689   5BC6 00                  NOP
0690   5BC7 00                  NOP
0691   5BC8 00                  NOP
0692   5BC9 00                  NOP
0693   5BCA 00                  NOP
0694   5BCB 00                  NOP
0695   5BCC 00                  NOP
0696   5BCD 00                  NOP
0697   5BCE 00                  NOP
0698   5BCF 00                  NOP
0699   5BD0 00                  NOP
0700   5BD1 00                  NOP
0701   5BD2 00                  NOP
0702   5BD3 00                  NOP
0703   5BD4 00                  NOP
0704   5BD5 00                  NOP
0705   5BD6 00                  NOP
0706   5BD7 00                  NOP
0707   5BD8 00                  NOP
0708   5BD9 00                  NOP
0709   5BDA 00                  NOP
0710   5BDB 00                  NOP
0711   5BDC 00                  NOP
0712   5BDD 00                  NOP
0713   5BDE 00                  NOP
0714   5BDF 00                  NOP
0715   5BE0 00                  NOP
0716   5BE1 00                  NOP
0717   5BE2 00                  NOP
0718   5BE3 00                  NOP
0719   5BE4 00                  NOP
0720   5BE5 00                  NOP
0721   5BE6 00                  NOP
0722   5BE7 00                  NOP
0723   5BE8 00                  NOP
0724   5BE9 00                  NOP
0725   5BEA 00                  NOP
0726   5BEB 00                  NOP
0727   5BEC 00                  NOP
0728   5BED 00                  NOP
0729   5BEE 00                  NOP
0730   5BEF 00                  NOP
0731   5BF0 00                  NOP
0732   5BF1 00                  NOP
0733   5BF2 00                  NOP
0734   5BF3 00                  NOP
0735   5BF4 00                  NOP
0736   5BF5 00                  NOP
0737   5BF6 00                  NOP
0738   5BF7 00                  NOP
0739   5BF8 00                  NOP
0740   5BF9 00                  NOP
0741   5BFA 00                  NOP
0742   5BFB 00                  NOP
0743   5BFC 00                  NOP
0744   5BFD 00                  NOP
0745   5BFE 00                  NOP
0746   5BFF 00                  NOP
0747   5C00 00                  NOP
0748   5C01 00                  NOP
0749   5C02 00                  NOP
0750   5C03 00                  NOP
0751   5C04 00                  NOP
0752   5C05 00                  NOP
0753   5C06 00                  NOP
0754   5C07 00                  NOP
0755   5C08 00                  NOP
0756   5C09 00                  NOP
0757   5C0A 00                  NOP
0758   5C0B 00                  NOP
0759   5C0C 00                  NOP
0760   5C0D 00                  NOP
0761   5C0E 00                  NOP
0762   5C0F 00                  NOP
0763   5C10 00                  NOP
0764   5C11 00                  NOP
0765   5C12 00                  NOP
0766   5C13 00                  NOP
0767   5C14 00                  NOP
0768   5C15 00                  NOP
0769   5C16 00                  NOP
0770   5C17 00                  NOP
0771   5C18 00                  NOP
0772   5C19 00                  NOP
0773   5C1A 00                  NOP
0774   5C1B 00                  NOP
0775   5C1C 00                  NOP
0776   5C1D 00                  NOP
0777   5C1E 00                  NOP
0778   5C1F 00                  NOP
0779   5C20 00                  NOP
0780   5C21 00                  NOP
0781   5C22 00                  NOP
0782   5C23 00                  NOP
0783   5C24 00                  NOP
0784   5C25 00                  NOP
0785   5C26 00                  NOP
0786   5C27 00                  NOP
0787   5C28 00                  NOP
0788   5C29 00                  NOP
0789   5C2A 00                  NOP
0790   5C2B 00                  NOP
0791   5C2C 00                  NOP
0792   5C2D 00                  NOP
0793   5C2E 00                  NOP
0794   5C2F 00                  NOP
0795   5C30 00                  NOP
0796   5C31 00                  NOP
0797   5C32 00                  NOP
0798   5C33 00                  NOP
0799   5C34 00                  NOP
0800   5C35 00                  NOP
0801   5C36 00                  NOP
0802   5C37 00                  NOP
0803   5C38 00                  NOP
0804   5C39 00                  NOP
0805   5C3A 00                  NOP
0806   5C3B 00                  NOP
0807   5C3C 00                  NOP
0808   5C3D 00                  NOP
0809   5C3E 00                  NOP
0810   5C3F 00                  NOP
0811   5C40 00                  NOP
0812   5C41 00                  NOP
0813   5C42 00                  NOP
0814   5C43 00                  NOP
0815   5C44 00                  NOP
0816   5C45 00                  NOP
0817   5C46 00                  NOP
0818   5C47 00                  NOP
0819   5C48 00                  NOP
0820   5C49 00                  NOP
0821   5C4A 00                  NOP
0822   5C4B 00                  NOP
0823   5C4C 00                  NOP
0824   5C4D 00                  NOP
0825   5C4E 00                  NOP
0826   5C4F 00                  NOP
0827   5C50 00                  NOP
0828   5C51 00                  NOP
0829   5C52 00                  NOP
0830   5C53 00                  NOP
0831   5C54 00                  NOP
0832   5C55 00                  NOP
0833   5C56 00                  NOP
0834   5C57 00                  NOP
0835   5C58 00                  NOP
0836   5C59 00                  NOP
0837   5C5A 00                  NOP
0838   5C5B 00                  NOP
0839   5C5C 00                  NOP
0840   5C5D 00                  NOP
0841   5C5E 00                  NOP
0842   5C5F 00                  NOP
0843   5C60 00                  NOP
0844   5C61 00                  NOP
0845   5C62 00                  NOP
0846   5C63 00                  NOP
0847   5C64 00                  NOP
0848   5C65 00                  NOP
0849   5C66 00                  NOP
0850   5C67 00                  NOP
0851   5C68 00                  NOP
0852   5C69 00                  NOP
0853   5C6A 00                  NOP
0854   5C6B 00                  NOP
0855   5C6C 00                  NOP
0856   5C6D 00                  NOP
0857   5C6E 00                  NOP
0858   5C6F 00                  NOP
0859   5C70 00                  NOP
0860   5C71 00                  NOP
0861   5C72 00                  NOP
0862   5C73 00                  NOP
0863   5C74 00                  NOP
0864   5C75 00                  NOP
0865   5C76 00                  NOP
0866   5C77 00                  NOP
0867   5C78 00                  NOP
0868   5C79 00                  NOP
0869   5C7A 00                  NOP
0870   5C7B 00                  NOP
0871   5C7C 00                  NOP
0872   5C7D 00                  NOP
0873   5C7E 00                  NOP
0874   5C7F 00                  NOP
0875   5C80 00                  NOP
0876   5C81 00                  NOP
0877   5C82 00                  NOP
0878   5C83 00                  NOP
0879   5C84 00                  NOP
0880   5C85 00                  NOP
0881   5C86 00                  NOP
0882   5C87 00                  NOP
0883   5C88 00                  NOP
0884   5C89 00                  NOP
0885   5C8A 00                  NOP
0886   5C8B 00                  NOP
0887   5C8C 00                  NOP
0888   5C8D 00                  NOP
0889   5C8E 00                  NOP
0890   5C8F 00                  NOP
0891   5C90 00                  NOP
0892   5C91 00                  NOP
0893   5C92 00                  NOP
0894   5C93 00                  NOP
0895   5C94 00                  NOP
0896   5C95 00                  NOP
0897   5C96 00                  NOP
0898   5C97 00                  NOP
0899   5C98 00                  NOP
0900   5C99 00                  NOP
0901   5C9A 00                  NOP
0902   5C9B 00                  NOP
0903   5C9C 00                  NOP
0904   5C9D 00                  NOP
0905   5C9E 00                  NOP
0906   5C9F 00                  NOP
0907   5CA0 00                  NOP
0908   5CA1 00                  NOP
0909   5CA2 00                  NOP
0910   5CA3 00                  NOP
0911   5CA4 00                  NOP
0912   5CA5 00                  NOP
0913   5CA6 00                  NOP
0914   5CA7 00                  NOP
0915   5CA8 00                  NOP
0916   5CA9 00                  NOP
0917   5CAA 00                  NOP
0918   5CAB 00                  NOP
0919   5CAC 00                  NOP
0920   5CAD 00                  NOP
0921   5CAE 00                  NOP
0922   5CAF 00                  NOP
0923   5CB0 00                  NOP
0924   5CB1 00                  NOP
0925   5CB2 00                  NOP
0926   5CB3 00                  NOP
0927   5CB4 00                  NOP
0928   5CB5 00                  NOP
0929   5CB6 00                  NOP
0930   5CB7 00                  NOP
0931   5CB8 00                  NOP
0932   5CB9 00                  NOP
0933   5CBA 00                  NOP
0934   5CBB 00                  NOP
0935   5CBC 00                  NOP
0936   5CBD 00                  NOP
0937   5CBE 00                  NOP
0938   5CBF 00                  NOP
0939   5CC0 00                  NOP
0940   5CC1 00                  NOP
0941   5CC2 00                  NOP
0942   5CC3 00                  NOP
0943   5CC4 00                  NOP
0944   5CC5 00                  NOP
0945   5CC6 00                  NOP
0946   5CC7 00                  NOP
0947   5CC8 00                  NOP
0948   5CC9 00                  NOP
0949   5CCA 00                  NOP
0950   5CCB 00                  NOP
0951   5CCC 00                  NOP
0952   5CCD 00                  NOP
0953   5CCE 00                  NOP
0954   5CCF 00                  NOP
0955   5CD0 00                  NOP
0956   5CD1 00                  NOP
0957   5CD2 00                  NOP
0958   5CD3 00                  NOP
0959   5CD4 00                  NOP
0960   5CD5 00                  NOP
0961   5CD6 00                  NOP
0962   5CD7 00                  NOP
0963   5CD8 00                  NOP
0964   5CD9 00                  NOP
0965   5CDA 00                  NOP
0966   5CDB 00                  NOP
0967   5CDC 00                  NOP
0968   5CDD 00                  NOP
0969   5CDE 00                  NOP
0970   5CDF 00                  NOP
0971   5CE0 00                  NOP
0972   5CE1 00                  NOP
0973   5CE2 00                  NOP
0974   5CE3 00                  NOP
0975   5CE4 00                  NOP
0976   5CE5 00                  NOP
0977   5CE6 00                  NOP
0978   5CE7 00                  NOP
0979   5CE8 00                  NOP
0980   5CE9 00                  NOP
0981   5CEA 00                  NOP
0982   5CEB 00                  NOP
0983   5CEC 00                  NOP
0984   5CED 00                  NOP
0985   5CEE 00                  NOP
0986   5CEF 00                  NOP
0987   5CF0 00                  NOP
0988   5CF1 00                  NOP
0989   5CF2 00                  NOP
0990   5CF3 00                  NOP
0991   5CF4 00                  NOP
0992   5CF5 00                  NOP
0993   5CF6 00                  NOP
0994   5CF7 00                  NOP
0995   5CF8 00                  NOP
0996   5CF9 00                  NOP
0997   5CFA 00                  NOP
0998   5CFB 00                  NOP
0999   5CFC 00                  NOP
1000   5CFD 00                  NOP
1001   5CFE 00                  NOP
1002   5CFF 00                  NOP
1003   5D00 00                  NOP
1004   5D01 00                  NOP
1005   5D02 00                  NOP
1006   5D03 00                  NOP
1007   5D04 00                  NOP
1008   5D05 00                  NOP
1009   5D06 00                  NOP
1010   5D07 00                  NOP
1011   5D08 00                  NOP
1012   5D09 00                  NOP
1013   5D0A 00                  NOP
1014   5D0B 00                  NOP
1015   5D0C 00                  NOP
1016   5D0D 00                  NOP
1017   5D0E 00                  NOP
1018   5D0F 00                  NOP
1019   5D10 00                  NOP
1020   5D11 00                  NOP
1021   5D12 00                  NOP
1022   5D13 00                  NOP
1023   5D14 00                  NOP
1024   5D15 00                  NOP
1025   5D16 00                  NOP
1026   5D17 00                  NOP
1027   5D18 00                  NOP
1028   5D19 00                  NOP
1029   5D1A 00                  NOP
1030   5D1B 00                  NOP
1031   5D1C 00                  NOP
1032   5D1D 00                  NOP
1033   5D1E 00                  NOP
1034   5D1F 00                  NOP
1035   5D20 00                  NOP
1036   5D21 00                  NOP
1037   5D22 00                  NOP
1038   5D23 00                  NOP
1039   5D24 00                  NOP
1040   5D25 00                  NOP
1041   5D26 00                  NOP
1042   5D27 00                  NOP
1043   5D28 00                  NOP
1044   5D29 00                  NOP
1045   5D2A 00                  NOP
1046   5D2B 00                  NOP
1047   5D2C 00                  NOP
1048   5D2D 00                  NOP
1049   5D2E 00                  NOP
1050   5D2F 00                  NOP
1051   5D30 00                  NOP
1052   5D31 00                  NOP
1053   5D32 00                  NOP
1054   5D33 00                  NOP
1055   5D34 00                  NOP
1056   5D35 00                  NOP
1057   5D36 00                  NOP
1058   5D37 00                  NOP
1059   5D38 00                  NOP
1060   5D39 00                  NOP
1061   5D3A 00                  NOP
1062   5D3B 00                  NOP
1063   5D3C 00                  NOP
1064   5D3D 00                  NOP
1065   5D3E 00                  NOP
1066   5D3F 00                  NOP
1067   5D40 00                  NOP
1068   5D41 00                  NOP
1069   5D42 00                  NOP
1070   5D43 00                  NOP
1071   5D44 00                  NOP
1072   5D45 00                  NOP
1073   5D46 00                  NOP
1074   5D47 00                  NOP
1075   5D48 00                  NOP
1076   5D49 00                  NOP
1077   5D4A 00                  NOP
1078   5D4B 00                  NOP
1079   5D4C 00                  NOP
1080   5D4D 00                  NOP
1081   5D4E 00                  NOP
1082   5D4F 00                  NOP
1083   5D50 00                  NOP
1084   5D51 00                  NOP
1085   5D52 00                  NOP
1086   5D53 00                  NOP
1087   5D54 00                  NOP
1088   5D55 00                  NOP
1089   5D56 00                  NOP
1090   5D57 00                  NOP
1091   5D58 00                  NOP
1092   5D59 00                  NOP
1093   5D5A 00                  NOP
1094   5D5B 00                  NOP
1095   5D5C 00                  NOP
1096   5D5D 00                  NOP
1097   5D5E 00                  NOP
1098   5D5F 00                  NOP
1099   5D60 00                  NOP
1100   5D61 00                  NOP
1101   5D62 00                  NOP
1102   5D63 00                  NOP
1103   5D64 00                  NOP
1104   5D65 00                  NOP
1105   5D66 00                  NOP
1106   5D67 00                  NOP
1107   5D68 00                  NOP
1108   5D69 00                  NOP
1109   5D6A 00                  NOP
1110   5D6B 00                  NOP
1111   5D6C 00                  NOP
1112   5D6D 00                  NOP
1113   5D6E 00                  NOP
1114   5D6F 00                  NOP
1115   5D70 00                  NOP
1116   5D71 00                  NOP
1117   5D72 00                  NOP
1118   5D73 00                  NOP
1119   5D74 00                  NOP
1120   5D75 00                  NOP
1121   5D76 00                  NOP
1122   5D77 00                  NOP
1123   5D78 00                  NOP
1124   5D79 00                  NOP
1125   5D7A 00                  NOP
1126   5D7B 00                  NOP
1127   5D7C 00                  NOP
1128   5D7D 00                  NOP
1129   5D7E 00                  NOP
1130   5D7F 00                  NOP
1131   5D80 00                  NOP
1132   5D81 00                  NOP
1133   5D82 00                  NOP
1134   5D83 00                  NOP
1135   5D84 00                  NOP
1136   5D85 00                  NOP
1137   5D86 00                  NOP
1138   5D87 00                  NOP
1139   5D88 00                  NOP
1140   5D89 00                  NOP
1141   5D8A 00                  NOP
1142   5D8B 00                  NOP
1143   5D8C 00                  NOP
1144   5D8D 00                  NOP
1145   5D8E 00                  NOP
1146   5D8F 00                  NOP
1147   5D90 00                  NOP
1148   5D91 00                  NOP
1149   5D92 00                  NOP
1150   5D93 00                  NOP
1151   5D94 00                  NOP
1152   5D95 00                  NOP
1153   5D96 00                  NOP
1154   5D97 00                  NOP
1155   5D98 00                  NOP
1156   5D99 00                  NOP
1157   5D9A 00                  NOP
1158   5D9B 00                  NOP
1159   5D9C 00                  NOP
1160   5D9D 00                  NOP
1161   5D9E 00                  NOP
1162   5D9F 00                  NOP
1163   5DA0 00                  NOP
1164   5DA1 00                  NOP
1165   5DA2 00                  NOP
1166   5DA3 00                  NOP
1167   5DA4 00                  NOP
1168   5DA5 00                  NOP
1169   5DA6 00                  NOP
1170   5DA7 00                  NOP
1171   5DA8 00                  NOP
1172   5DA9 00                  NOP
1173   5DAA 00                  NOP
1174   5DAB 00                  NOP
1175   5DAC 00                  NOP
1176   5DAD 00                  NOP
1177   5DAE 00                  NOP
1178   5DAF 00                  NOP
1179   5DB0 00                  NOP
1180   5DB1 00                  NOP
1181   5DB2 00                  NOP
1182   5DB3 00                  NOP
1183   5DB4 00                  NOP
1184   5DB5 00                  NOP
1185   5DB6 00                  NOP
1186   5DB7 00                  NOP
1187   5DB8 00                  NOP
1188   5DB9 00                  NOP
1189   5DBA 00                  NOP
1190   5DBB 00                  NOP
1191   5DBC 00                  NOP
1192   5DBD 00                  NOP
1193   5DBE 00                  NOP
1194   5DBF 00                  NOP
1195   5DC0 00                  NOP
1196   5DC1 00                  NOP
1197   5DC2 00                  NOP
1198   5DC3 00                  NOP
1199   5DC4 00                  NOP
1200   5DC5 00                  NOP
1201   5DC6 00                  NOP
1202   5DC7 00                  NOP
1203   5DC8 00                  NOP
1204   5DC9 00                  NOP
1205   5DCA 00                  NOP
1206   5DCB 00                  NOP
1207   5DCC 00                  NOP
1208   5DCD 00                  NOP
1209   5DCE 00                  NOP
1210   5DCF 00                  NOP
1211   5DD0 00                  NOP
1212   5DD1 00                  NOP
1213   5DD2 00                  NOP
1214   5DD3 00                  NOP
1215   5DD4 00                  NOP
1216   5DD5 00                  NOP
1217   5DD6 00                  NOP
1218   5DD7 00                  NOP
1219   5DD8 00                  NOP
1220   5DD9 00                  NOP
1221   5DDA 00                  NOP
1222   5DDB 00                  NOP
1223   5DDC 00                  NOP
1224   5DDD 00                  NOP
1225   5DDE 00                  NOP
1226   5DDF 00                  NOP
1227   5DE0 00                  NOP
1228   5DE1 00                  NOP
1229   5DE2 00                  NOP
1230   5DE3 00                  NOP
1231   5DE4 00                  NOP
1232   5DE5 00                  NOP
1233   5DE6 00                  NOP
1234   5DE7 00                  NOP
1235   5DE8 00                  NOP
1236   5DE9 00                  NOP
1237   5DEA 00                  NOP
1238   5DEB 00                  NOP
1239   5DEC 00                  NOP
1240   5DED 00                  NOP
1241   5DEE 00                  NOP
1242   5DEF 00                  NOP
1243   5DF0 00                  NOP
1244   5DF1 00                  NOP
1245   5DF2 00                  NOP
1246   5DF3 00                  NOP
1247   5DF4 00                  NOP
1248   5DF5 00                  NOP
1249   5DF6 00                  NOP
1250   5DF7 00                  NOP
1251   5DF8 00                  NOP
1252   5DF9 00                  NOP
1253   5DFA 00                  NOP
1254   5DFB 00                  NOP
1255   5DFC 00                  NOP
1256   5DFD 00                  NOP
1257   5DFE 00                  NOP
1258   5DFF 00                  NOP
1259   5E00 00                  NOP
1260   5E01 00                  NOP
1261   5E02 00                  NOP
1262   5E03 00                  NOP
1263   5E04 00                  NOP
1264   5E05 00                  NOP
1265   5E06 00                  NOP
1266   5E07 00                  NOP
1267   5E08 00                  NOP
1268   5E09 00                  NOP
1269   5E0A 00                  NOP
1270   5E0B 00                  NOP
1271   5E0C 00                  NOP
1272   5E0D 00                  NOP
1273   5E0E 00                  NOP
1274   5E0F 00                  NOP
1275   5E10 00                  NOP
1276   5E11 00                  NOP
1277   5E12 00                  NOP
1278   5E13 00                  NOP
1279   5E14 00                  NOP
1280   5E15 00                  NOP
1281   5E16 00                  NOP
1282   5E17 00                  NOP
1283   5E18 00                  NOP
1284   5E19 00                  NOP
1285   5E1A 00                  NOP
1286   5E1B 00                  NOP
1287   5E1C 00                  NOP
1288   5E1D 00                  NOP
1289   5E1E 00                  NOP
1290   5E1F 00                  NOP
1291   5E20 00                  NOP
1292   5E21 00                  NOP
1293   5E22 00                  NOP
1294   5E23 00                  NOP
1295   5E24 00                  NOP
1296   5E25 00                  NOP
1297   5E26 00                  NOP
1298   5E27 00                  NOP
1299   5E28 00                  NOP
1300   5E29 00                  NOP
1301   5E2A 00                  NOP
1302   5E2B 00                  NOP
1303   5E2C 00                  NOP
1304   5E2D 00                  NOP
1305   5E2E 00                  NOP
1306   5E2F 00                  NOP
1307   5E30 00                  NOP
1308   5E31 00                  NOP
1309   5E32 00                  NOP
1310   5E33 00                  NOP
1311   5E34 00                  NOP
1312   5E35 00                  NOP
1313   5E36 00                  NOP
1314   5E37 00                  NOP
1315   5E38 00                  NOP
1316   5E39 00                  NOP
1317   5E3A 00                  NOP
1318   5E3B 00                  NOP
1319   5E3C 00                  NOP
1320   5E3D 00                  NOP
1321   5E3E 00                  NOP
1322   5E3F 00                  NOP
1323   5E40 00                  NOP
1324   5E41 00                  NOP
1325   5E42 00                  NOP
1326   5E43 00                  NOP
1327   5E44 00                  NOP
1328   5E45 00                  NOP
1329   5E46 00                  NOP
1330   5E47 00                  NOP
1331   5E48 00                  NOP
1332   5E49 00                  NOP
1333   5E4A 00                  NOP
1334   5E4B 00                  NOP
1335   5E4C 00                  NOP
1336   5E4D 00                  NOP
1337   5E4E 00                  NOP
1338   5E4F 00                  NOP
1339   5E50 00                  NOP
1340   5E51 00                  NOP
1341   5E52 00                  NOP
1342   5E53 00                  NOP
1343   5E54 00                  NOP
1344   5E55 00                  NOP
1345   5E56 00                  NOP
1346   5E57 00                  NOP
1347   5E58 00                  NOP
1348   5E59 00                  NOP
1349   5E5A 00                  NOP
1350   5E5B 00                  NOP
1351   5E5C 00                  NOP
1352   5E5D 00                  NOP
1353   5E5E 00                  NOP
1354   5E5F 00                  NOP
1355   5E60 00                  NOP
1356   5E61 00                  NOP
1357   5E62 00                  NOP
1358   5E63 00                  NOP
1359   5E64 00                  NOP
1360   5E65 00                  NOP
1361   5E66 00                  NOP
1362   5E67 00                  NOP
1363   5E68 00                  NOP
1364   5E69 00                  NOP
1365   5E6A 00                  NOP
1366   5E6B 00                  NOP
1367   5E6C 00                  NOP
1368   5E6D 00                  NOP
1369   5E6E 00                  NOP
1370   5E6F 00                  NOP
1371   5E70 00                  NOP
1372   5E71 00                  NOP
1373   5E72 00                  NOP
1374   5E73 00                  NOP
1375   5E74 00                  NOP
1376   5E75 00                  NOP
1377   5E76 00                  NOP
1378   5E77 00                  NOP
1379   5E78 00                  NOP
1380   5E79 00                  NOP
1381   5E7A 00                  NOP
1382   5E7B 00                  NOP
1383   5E7C 00                  NOP
1384   5E7D 00                  NOP
1385   5E7E 00                  NOP
1386   5E7F 00                  NOP
1387   5E80 00                  NOP
1388   5E81 00                  NOP
1389   5E82 00                  NOP
1390   5E83 00                  NOP
1391   5E84 00                  NOP
1392   5E85 00                  NOP
1393   5E86 00                  NOP
1394   5E87 00                  NOP
1395   5E88 00                  NOP
1396   5E89 00                  NOP
1397   5E8A 00                  NOP
1398   5E8B 00                  NOP
1399   5E8C 00                  NOP
1400   5E8D 00                  NOP
1401   5E8E 00                  NOP
1402   5E8F 00                  NOP
1403   5E90 00                  NOP
1404   5E91 00                  NOP
1405   5E92 00                  NOP
1406   5E93 00                  NOP
1407   5E94 00                  NOP
1408   5E95 00                  NOP
1409   5E96 00                  NOP
1410   5E97 00                  NOP
1411   5E98 00                  NOP
1412   5E99 00                  NOP
1413   5E9A 00                  NOP
1414   5E9B 00                  NOP
1415   5E9C 00                  NOP
1416   5E9D 00                  NOP
1417   5E9E 00                  NOP
1418   5E9F 00                  NOP
1419   5EA0 00                  NOP
1420   5EA1 00                  NOP
1421   5EA2 00                  NOP
1422   5EA3 00                  NOP
1423   5EA4 00                  NOP
1424   5EA5 00                  NOP
1425   5EA6 00                  NOP
1426   5EA7 00                  NOP
1427   5EA8 00                  NOP
1428   5EA9 00                  NOP
1429   5EAA 00                  NOP
1430   5EAB 00                  NOP
1431   5EAC 00                  NOP
1432   5EAD 00                  NOP
1433   5EAE 00                  NOP
1434   5EAF 00                  NOP
1435   5EB0 00                  NOP
1436   5EB1 00                  NOP
1437   5EB2 00                  NOP
1438   5EB3 00                  NOP
1439   5EB4 00                  NOP
1440   5EB5 00                  NOP
1441   5EB6 00                  NOP
1442   5EB7 00                  NOP
1443   5EB8 00                  NOP
1444   5EB9 00                  NOP
1445   5EBA 00                  NOP
1446   5EBB 00                  NOP
1447   5EBC 00                  NOP
1448   5EBD 00                  NOP
1449   5EBE 00                  NOP
1450   5EBF 00                  NOP
1451   5EC0 00                  NOP
1452   5EC1 00                  NOP
1453   5EC2 00                  NOP
1454   5EC3 00                  NOP
1455   5EC4 00                  NOP
1456   5EC5 00                  NOP
1457   5EC6 00                  NOP
1458   5EC7 00                  NOP
1459   5EC8 00                  NOP
1460   5EC9 00                  NOP
1461   5ECA 00                  NOP
1462   5ECB 00                  NOP
1463   5ECC 00                  NOP
1464   5ECD 00                  NOP
1465   5ECE 00                  NOP
1466   5ECF 00                  NOP
1467   5ED0 00                  NOP
1468   5ED1 00                  NOP
1469   5ED2 00                  NOP
1470   5ED3 00                  NOP
1471   5ED4 00                  NOP
1472   5ED5 00                  NOP
1473   5ED6 00                  NOP
1474   5ED7 00                  NOP
1475   5ED8 00                  NOP
1476   5ED9 00                  NOP
1477   5EDA 00                  NOP
1478   5EDB 00                  NOP
1479   5EDC 00                  NOP
1480   5EDD 00                  NOP
1481   5EDE 00                  NOP
1482   5EDF 00                  NOP
1483   5EE0 00                  NOP
1484   5EE1 00                  NOP
1485   5EE2 00                  NOP
1486   5EE3 00                  NOP
1487   5EE4 00                  NOP
1488   5EE5 00                  NOP
1489   5EE6 00                  NOP
1490   5EE7 00                  NOP
1491   5EE8 00                  NOP
1492   5EE9 00                  NOP
1493   5EEA 00                  NOP
1494   5EEB 00                  NOP
1495   5EEC 00                  NOP
1496   5EED 00                  NOP
1497   5EEE 00                  NOP
1498   5EEF 00                  NOP
1499   5EF0 00                  NOP
1500   5EF1 00                  NOP
1501   5EF2 00                  NOP
1502   5EF3 00                  NOP
1503   5EF4 00                  NOP
1504   5EF5 00                  NOP
1505   5EF6 00                  NOP
1506   5EF7 00                  NOP
1507   5EF8 00                  NOP
1508   5EF9 00                  NOP
1509   5EFA 00                  NOP
1510   5EFB 00                  NOP
1511   5EFC 00                  NOP
1512   5EFD 00                  NOP
1513   5EFE 00                  NOP
1514   5EFF 00                  NOP
1515   5F00 00                  NOP
1516   5F01 00                  NOP
1517   5F02 00                  NOP
1518   5F03 00                  NOP
1519   5F04 00                  NOP
1520   5F05 00                  NOP
1521   5F06 00                  NOP
1522   5F07 00                  NOP
1523   5F08 00                  NOP
1524   5F09 00                  NOP
1525   5F0A 00                  NOP
1526   5F0B 00                  NOP
1527   5F0C 00                  NOP
1528   5F0D 00                  NOP
1529   5F0E 00                  NOP
1530   5F0F 00                  NOP
1531   5F10 00                  NOP
1532   5F11 00                  NOP
1533   5F12 00                  NOP
1534   5F13 00                  NOP
1535   5F14 00                  NOP
1536   5F15 00                  NOP
1537   5F16 00                  NOP
1538   5F17 00                  NOP
1539   5F18 00                  NOP
1540   5F19 00                  NOP
1541   5F1A 00                  NOP
1542   5F1B 00                  NOP
1543   5F1C 00                  NOP
1544   5F1D 00                  NOP
1545   5F1E 00                  NOP
1546   5F1F 00                  NOP
1547   5F20 00                  NOP
1548   5F21 00                  NOP
1549   5F22 00                  NOP
1550   5F23 00                  NOP
1551   5F24 00                  NOP
1552   5F25 00                  NOP
1553   5F26 00                  NOP
1554   5F27 00                  NOP
1555   5F28 00                  NOP
1556   5F29 00                  NOP
1557   5F2A 00                  NOP
1558   5F2B 00                  NOP
1559   5F2C 00                  NOP
1560   5F2D 00                  NOP
1561   5F2E 00                  NOP
1562   5F2F 00                  NOP
1563   5F30 00                  NOP
1564   5F31 00                  NOP
1565   5F32 00                  NOP
1566   5F33 00                  NOP
1567   5F34 00                  NOP
1568   5F35 00                  NOP
1569   5F36 00                  NOP
1570   5F37 00                  NOP
1571   5F38 00                  NOP
1572   5F39 00                  NOP
1573   5F3A 00                  NOP
1574   5F3B 00                  NOP
1575   5F3C 00                  NOP
1576   5F3D 00                  NOP
1577   5F3E 00                  NOP
1578   5F3F 00                  NOP
1579   5F40 00                  NOP
1580   5F41 00                  NOP
1581   5F42 00                  NOP
1582   5F43 00                  NOP
1583   5F44 00                  NOP
1584   5F45 00                  NOP
1585   5F46 00                  NOP
1586   5F47 00                  NOP
1587   5F48 00                  NOP
1588   5F49 00                  NOP
1589   5F4A 00                  NOP
1590   5F4B 00                  NOP
1591   5F4C 00                  NOP
1592   5F4D 00                  NOP
1593   5F4E 00                  NOP
1594   5F4F 00                  NOP
1595   5F50 00                  NOP
1596   5F51 00                  NOP
1597   5F52 00                  NOP
1598   5F53 00                  NOP
1599   5F54 00                  NOP
1600   5F55 00                  NOP
1601   5F56 00                  NOP
1602   5F57 00                  NOP
1603   5F58 00                  NOP
1604   5F59 00                  NOP
1605   5F5A 00                  NOP
1606   5F5B 00                  NOP
1607   5F5C 00                  NOP
1608   5F5D 00                  NOP
1609   5F5E 00                  NOP
1610   5F5F 00                  NOP
1611   5F60 00                  NOP
1612   5F61 00                  NOP
1613   5F62 00                  NOP
1614   5F63 00                  NOP
1615   5F64 00                  NOP
1616   5F65 00                  NOP
1617   5F66 00                  NOP
1618   5F67 00                  NOP
1619   5F68 00                  NOP
1620   5F69 00                  NOP
1621   5F6A 00                  NOP
1622   5F6B 00                  NOP
1623   5F6C 00                  NOP
1624   5F6D 00                  NOP
1625   5F6E 00                  NOP
1626   5F6F 00                  NOP
1627   5F70 00                  NOP
1628   5F71 00                  NOP
1629   5F72 00                  NOP
1630   5F73 00                  NOP
1631   5F74 00                  NOP
1632   5F75 00                  NOP
1633   5F76 00                  NOP
1634   5F77 00                  NOP
1635   5F78 00                  NOP
1636   5F79 00                  NOP
1637   5F7A 00                  NOP
1638   5F7B 00                  NOP
1639   5F7C 00                  NOP
1640   5F7D 00                  NOP
1641   5F7E 00                  NOP
1642   5F7F 00                  NOP
1643   5F80 00                  NOP
1644   5F81 00                  NOP
1645   5F82 00                  NOP
1646   5F83 00                  NOP
1647   5F84 00                  NOP
1648   5F85 00                  NOP
1649   5F86 00                  NOP
1650   5F87 00                  NOP
1651   5F88 00                  NOP
1652   5F89 00                  NOP
1653   5F8A 00                  NOP
1654   5F8B 00                  NOP
1655   5F8C 00                  NOP
1656   5F8D 00                  NOP
1657   5F8E 00                  NOP
1658   5F8F 00                  NOP
1659   5F90 00                  NOP
1660   5F91 00                  NOP
1661   5F92 00                  NOP
1662   5F93 00                  NOP
1663   5F94 00                  NOP
1664   5F95 00                  NOP
1665   5F96 00                  NOP
1666   5F97 00                  NOP
1667   5F98 00                  NOP
1668   5F99 00                  NOP
1669   5F9A 00                  NOP
1670   5F9B 00                  NOP
1671   5F9C 00                  NOP
1672   5F9D 00                  NOP
1673   5F9E 00                  NOP
1674   5F9F 00                  NOP
1675   5FA0 00                  NOP
1676   5FA1 00                  NOP
1677   5FA2 00                  NOP
1678   5FA3 00                  NOP
1679   5FA4 00                  NOP
1680   5FA5 00                  NOP
1681   5FA6 00                  NOP
1682   5FA7 00                  NOP
1683   5FA8 00                  NOP
1684   5FA9 00                  NOP
1685   5FAA 00                  NOP
1686   5FAB 00                  NOP
1687   5FAC 00                  NOP
1688   5FAD 00                  NOP
1689   5FAE 00                  NOP
1690   5FAF 00                  NOP
1691   5FB0 00                  NOP
1692   5FB1 00                  NOP
1693   5FB2 00                  NOP
1694   5FB3 00                  NOP
1695   5FB4 00                  NOP
1696   5FB5 00                  NOP
1697   5FB6 00                  NOP
1698   5FB7 00                  NOP
1699   5FB8 00                  NOP
1700   5FB9 00                  NOP
1701   5FBA 00                  NOP
1702   5FBB 00                  NOP
1703   5FBC 00                  NOP
1704   5FBD 00                  NOP
1705   5FBE 00                  NOP
1706   5FBF 00                  NOP
1707   5FC0 00                  NOP
1708   5FC1 00                  NOP
1709   5FC2 00                  NOP
1710   5FC3 00                  NOP
1711   5FC4 00                  NOP
1712   5FC5 00                  NOP
1713   5FC6 00                  NOP
1714   5FC7 00                  NOP
1715   5FC8 00                  NOP
1716   5FC9 00                  NOP
1717   5FCA 00                  NOP
1718   5FCB 00                  NOP
1719   5FCC 00                  NOP
1720   5FCD 00                  NOP
1721   5FCE 00                  NOP
1722   5FCF 00                  NOP
1723   5FD0 00                  NOP
1724   5FD1 00                  NOP
1725   5FD2 00                  NOP
1726   5FD3 00                  NOP
1727   5FD4 00                  NOP
1728   5FD5 00                  NOP
1729   5FD6 00                  NOP
1730   5FD7 00                  NOP
1731   5FD8 00                  NOP
1732   5FD9 00                  NOP
1733   5FDA 00                  NOP
1734   5FDB 00                  NOP
1735   5FDC 00                  NOP
1736   5FDD 00                  NOP
1737   5FDE 00                  NOP
1738   5FDF 00                  NOP
1739   5FE0 00                  NOP
1740   5FE1 00                  NOP
1741   5FE2 00                  NOP
1742   5FE3 00                  NOP
1743   5FE4 00                  NOP
1744   5FE5 00                  NOP
1745   5FE6 00                  NOP
1746   5FE7 00                  NOP
1747   5FE8 00                  NOP
1748   5FE9 00                  NOP
1749   5FEA 00                  NOP
1750   5FEB 00                  NOP
1751   5FEC 00                  NOP
1752   5FED 00                  NOP
1753   5FEE 00                  NOP
1754   5FEF 00                  NOP
1755   5FF0 00                  NOP
1756   5FF1 00                  NOP
1757   5FF2 00                  NOP
1758   5FF3 00                  NOP
1759   5FF4 00                  NOP
1760   5FF5 00                  NOP
1761   5FF6 00                  NOP
1762   5FF7 00                  NOP
1763   5FF8 00                  NOP
1764   5FF9 00                  NOP
1765   5FFA 00                  NOP
1766   5FFB 00                  NOP
1767   5FFC 00                  NOP
1768   5FFD 00                  NOP
1769   5FFE 00                  NOP
1770   5FFF 00                  NOP
1771   6000 00                  NOP
1772   6001 00                  NOP
1773   6002 00                  NOP
1774   6003 00                  NOP
1775   6004 00                  NOP
1776   6005 00                  NOP
1777   6006 00                  NOP
1778   6007 00                  NOP
1779   6008 00                  NOP
1780   6009 00                  NOP
1781   600A 00                  NOP
1782   600B 00                  NOP
1783   600C 00                  NOP
1784   600D 00                  NOP
1785   600E 00                  NOP
1786   600F 00                  NOP
1787   6010 00                  NOP
1788   6011 00                  NOP
1789   6012 00                  NOP
1790   6013 00                  NOP
1791   6014 00                  NOP
1792   6015 00                  NOP
1793   6016 00                  NOP
1794   6017 00                  NOP
1795   6018 00                  NOP
1796   6019 00                  NOP
1797   601A 00                  NOP
1798   601B 00                  NOP
1799   601C 00                  NOP
1800   601D 00                  NOP
1801   601E 00                  NOP
1802   601F 00                  NOP
1803   6020 00                  NOP
1804   6021 00                  NOP
1805   6022 00                  NOP
1806   6023 00                  NOP
1807   6024 00                  NOP
1808   6025 00                  NOP
1809   6026 00                  NOP
1810   6027 00                  NOP
1811   6028 00                  NOP
1812   6029 00                  NOP
1813   602A 00                  NOP
1814   602B 00                  NOP
1815   602C 00                  NOP
1816   602D 00                  NOP
1817   602E 00                  NOP
1818   602F 00                  NOP
1819   6030 00                  NOP
1820   6031 00                  NOP
1821   6032 00                  NOP
1822   6033 00                  NOP
1823   6034 00                  NOP
1824   6035 00                  NOP
1825   6036 00                  NOP
1826   6037 00                  NOP
1827   6038 00                  NOP
1828   6039 00                  NOP
1829   603A 00                  NOP
1830   603B 00                  NOP
1831   603C 00                  NOP
1832   603D 00                  NOP
1833   603E 00                  NOP
1834   603F 00                  NOP
1835   6040 00                  NOP
1836   6041 00                  NOP
1837   6042 00                  NOP
1838   6043 00                  NOP
1839   6044 00                  NOP
1840   6045 00                  NOP
1841   6046 00                  NOP
1842   6047 00                  NOP
1843   6048 00                  NOP
1844   6049 00                  NOP
1845   604A 00                  NOP
1846   604B 00                  NOP
1847   604C 00                  NOP
1848   604D 00                  NOP
1849   604E 00                  NOP
1850   604F 00                  NOP
1851   6050 00                  NOP
1852   6051 00                  NOP
1853   6052 00                  NOP
1854   6053 00                  NOP
1855   6054 00                  NOP
1856   6055 00                  NOP
1857   6056 00                  NOP
1858   6057 00                  NOP
1859   6058 00                  NOP
1860   6059 00                  NOP
1861   605A 00                  NOP
1862   605B 00                  NOP
1863   605C 00                  NOP
1864   605D 00                  NOP
1865   605E 00                  NOP
1866   605F 00                  NOP
1867   6060 00                  NOP
1868   6061 00                  NOP
1869   6062 00                  NOP
1870   6063 00                  NOP
1871   6064 00                  NOP
1872   6065 00                  NOP
1873   6066 00                  NOP
1874   6067 00                  NOP
1875   6068 00                  NOP
1876   6069 00                  NOP
1877   606A 00                  NOP
1878   606B 00                  NOP
1879   606C 00                  NOP
1880   606D 00                  NOP
1881   606E 00                  NOP
1882   606F 00                  NOP
1883   6070 00                  NOP
1884   6071 00                  NOP
1885   6072 00                  NOP
1886   6073 00                  NOP
1887   6074 00                  NOP
1888   6075 00                  NOP
1889   6076 00                  NOP
1890   6077 00                  NOP
1891   6078 00                  NOP
1892   6079 00                  NOP
1893   607A 00                  NOP
1894   607B 00                  NOP
1895   607C 00                  NOP
1896   607D 00                  NOP
1897   607E 00                  NOP
1898   607F 00                  NOP
1899   6080 00                  NOP
1900   6081 00                  NOP
1901   6082 00                  NOP
1902   6083 00                  NOP
1903   6084 00                  NOP
1904   6085 00                  NOP
1905   6086 00                  NOP
1906   6087 00                  NOP
1907   6088 00                  NOP
1908   6089 00                  NOP
1909   608A 00                  NOP
1910   608B 00                  NOP
1911   608C 00                  NOP
1912   608D 00                  NOP
1913   608E 00                  NOP
1914   608F 00                  NOP
1915   6090 00                  NOP
1916   6091 00                  NOP
1917   6092 00                  NOP
1918   6093 00                  NOP
1919   6094 00                  NOP
1920   6095 00                  NOP
1921   6096 00                  NOP
1922   6097 00                  NOP
1923   6098 00                  NOP
1924   6099 00                  NOP
1925   609A 00                  NOP
1926   609B 00                  NOP
1927   609C 00                  NOP
1928   609D 00                  NOP
1929   609E 00                  NOP
1930   609F 00                  NOP
1931   60A0 00                  NOP
1932   60A1 00                  NOP
1933   60A2 00                  NOP
1934   60A3 00                  NOP
1935   60A4 00                  NOP
1936   60A5 00                  NOP
1937   60A6 00                  NOP
1938   60A7 00                  NOP
1939   60A8 00                  NOP
1940   60A9 00                  NOP
1941   60AA 00                  NOP
1942   60AB 00                  NOP
1943   60AC 00                  NOP
1944   60AD 00                  NOP
1945   60AE 00                  NOP
1946   60AF 00                  NOP
1947   60B0 00                  NOP
1948   60B1 00                  NOP
1949   60B2 00                  NOP
1950   60B3 00                  NOP
1951   60B4 00                  NOP
1952   60B5 00                  NOP
1953   60B6 00                  NOP
1954   60B7 00                  NOP
1955   60B8 00                  NOP
1956   60B9 00                  NOP
1957   60BA 00                  NOP
1958   60BB 00                  NOP
1959   60BC 00                  NOP
1960   60BD 00                  NOP
1961   60BE 00                  NOP
1962   60BF 00                  NOP
1963   60C0 00                  NOP
1964   60C1 00                  NOP
1965   60C2 00                  NOP
1966   60C3 00                  NOP
1967   60C4 00                  NOP
1968   60C5 00                  NOP
1969   60C6 00                  NOP
1970   60C7 00                  NOP
1971   60C8 00                  NOP
1972   60C9 00                  NOP
1973   60CA 00                  NOP
1974   60CB 00                  NOP
1975   60CC 00                  NOP
1976   60CD 00                  NOP
1977   60CE 00                  NOP
1978   60CF 00                  NOP
1979   60D0 00                  NOP
1980   60D1 00                  NOP
1981   60D2 00                  NOP
1982   60D3 00                  NOP
1983   60D4 00                  NOP
1984   60D5 00                  NOP
1985   60D6 00                  NOP
1986   60D7 00                  NOP
1987   60D8 00                  NOP
1988   60D9 00                  NOP
1989   60DA 00                  NOP
1990   60DB 00                  NOP
1991   60DC 00                  NOP
1992   60DD 00                  NOP
1993   60DE 00                  NOP
1994   60DF 00                  NOP
1995   60E0 00                  NOP
1996   60E1 00                  NOP
1997   60E2 00                  NOP
1998   60E3 00                  NOP
1999   60E4 00                  NOP
2000   60E5 00                  NOP
2001   60E6 00                  NOP
2002   60E7 00                  NOP
2003   60E8 00                  NOP
2004   60E9 00                  NOP
2005   60EA 00                  NOP
2006   60EB 00                  NOP
2007   60EC 00                  NOP
2008   60ED 00                  NOP
2009   60EE 00                  NOP
2010   60EF 00                  NOP
2011   60F0 00                  NOP
2012   60F1 00                  NOP
2013   60F2 00                  NOP
2014   60F3 00                  NOP
2015   60F4 00                  NOP
2016   60F5 00                  NOP
2017   60F6 00                  NOP
2018   60F7 00                  NOP
2019   60F8 00                  NOP
2020   60F9 00                  NOP
2021   60FA 00                  NOP
2022   60FB 00                  NOP
2023   60FC 00                  NOP
2024   60FD 00                  NOP
2025   60FE 00                  NOP
2026   60FF 00                  NOP
2027   6100 00                  NOP
2028   6101 00                  NOP
2029   6102 00                  NOP
2030   6103 00                  NOP
2031   6104 00                  NOP
2032   6105 00                  NOP
2033   6106 00                  NOP
2034   6107 00                  NOP
2035   6108 00                  NOP
2036   6109 00                  NOP
2037   610A 00                  NOP
2038   610B 00                  NOP
2039   610C 00                  NOP
2040   610D 00                  NOP
2041   610E 00                  NOP
2042   610F 00                  NOP
2043   6110 00                  NOP
2044   6111 00                  NOP
2045   6112 00                  NOP
2046   6113 00                  NOP
2047   6114 00                  NOP
2048   6115 00                  NOP
2049   6116 00                  NOP
2050   6117 00                  NOP
2051   6118 00                  NOP
2052   6119 00                  NOP
2053   611A 00                  NOP
2054   611B 00                  NOP
2055   611C 00                  NOP
2056   611D 00                  NOP
2057   611E 00                  NOP
2058   611F 00                  NOP
2059   6120 00                  NOP
2060   6121 00                  NOP
2061   6122 00                  NOP
2062   6123 00                  NOP
2063   6124 00                  NOP
2064   6125 00                  NOP
2065   6126 00                  NOP
2066   6127 00                  NOP
2067   6128 00                  NOP
2068   6129 00                  NOP
2069   612A 00                  NOP
2070   612B 00                  NOP
2071   612C 00                  NOP
2072   612D 00                  NOP
2073   612E 00                  NOP
2074   612F 00                  NOP
2075   6130 00                  NOP
2076   6131 00                  NOP
2077   6132 00                  NOP
2078   6133 00                  NOP
2079   6134 00                  NOP
2080   6135 00                  NOP
2081   6136 00                  NOP
2082   6137 00                  NOP
2083   6138 00                  NOP
2084   6139 00                  NOP
2085   613A 00                  NOP
2086   613B 00                  NOP
2087   613C 00                  NOP
2088   613D 00                  NOP
2089   613E 00                  NOP
2090   613F 00                  NOP
2091   6140 00                  NOP
2092   6141 00                  NOP
2093   6142 00                  NOP
2094   6143 00                  NOP
2095   6144 00                  NOP
2096   6145 00                  NOP
2097   6146 00                  NOP
2098   6147 00                  NOP
2099   6148 00                  NOP
2100   6149 00                  NOP
2101   614A 00                  NOP
2102   614B 00                  NOP
2103   614C 00                  NOP
2104   614D 00                  NOP
2105   614E 00                  NOP
2106   614F 00                  NOP
2107   6150 00                  NOP
2108   6151 00                  NOP
2109   6152 00                  NOP
2110   6153 00                  NOP
2111   6154 00                  NOP
2112   6155 00                  NOP
2113   6156 00                  NOP
2114   6157 00                  NOP
2115   6158 00                  NOP
2116   6159 00                  NOP
2117   615A 00                  NOP
2118   615B 00                  NOP
2119   615C 00                  NOP
2120   615D 00                  NOP
2121   615E 00                  NOP
2122   615F 00                  NOP
2123   6160 00                  NOP
2124   6161 00                  NOP
2125   6162 00                  NOP
2126   6163 00                  NOP
2127   6164 00                  NOP
2128   6165 00                  NOP
2129   6166 00                  NOP
2130   6167 00                  NOP
2131   6168 00                  NOP
2132   6169 00                  NOP
2133   616A 00                  NOP
2134   616B 00                  NOP
2135   616C 00                  NOP
2136   616D 00                  NOP
2137   616E 00                  NOP
2138   616F 00                  NOP
2139   6170 00                  NOP
2140   6171 00                  NOP
2141   6172 00                  NOP
2142   6173 00                  NOP
2143   6174 00                  NOP
2144   6175 00                  NOP
2145   6176 00                  NOP
2146   6177 00                  NOP
2147   6178 00                  NOP
2148   6179 00                  NOP
2149   617A 00                  NOP
2150   617B 00                  NOP
2151   617C 00                  NOP
2152   617D 00                  NOP
2153   617E 00                  NOP
2154   617F 00                  NOP
2155   6180 00                  NOP
2156   6181 00                  NOP
2157   6182 00                  NOP
2158   6183 00                  NOP
2159   6184 00                  NOP
2160   6185 00                  NOP
2161   6186 00                  NOP
2162   6187 00                  NOP
2163   6188 00                  NOP
2164   6189 00                  NOP
2165   618A 00                  NOP
2166   618B 00                  NOP
2167   618C 00                  NOP
2168   618D 00                  NOP
2169   618E 00                  NOP
2170   618F 00                  NOP
2171   6190 00                  NOP
2172   6191 00                  NOP
2173   6192 00                  NOP
2174   6193 00                  NOP
2175   6194 00                  NOP
2176   6195 00                  NOP
2177   6196 00                  NOP
2178   6197 00                  NOP
2179   6198 00                  NOP
2180   6199 00                  NOP
2181   619A 00                  NOP
2182   619B 00                  NOP
2183   619C 00                  NOP
2184   619D 00                  NOP
2185   619E 00                  NOP
2186   619F 00                  NOP
2187   61A0 00                  NOP
2188   61A1 00                  NOP
2189   61A2 00                  NOP
2190   61A3 00                  NOP
2191   61A4 00                  NOP
2192   61A5 00                  NOP
2193   61A6 00                  NOP
2194   61A7 00                  NOP
2195   61A8 00                  NOP
2196   61A9 00                  NOP
2197   61AA 00                  NOP
2198   61AB 00                  NOP
2199   61AC 00                  NOP
2200   61AD 00                  NOP
2201   61AE 00                  NOP
2202   61AF 00                  NOP
2203   61B0 00                  NOP
2204   61B1 00                  NOP
2205   61B2 00                  NOP
2206   61B3 00                  NOP
2207   61B4 00                  NOP
2208   61B5 00                  NOP
2209   61B6 00                  NOP
2210   61B7 00                  NOP
2211   61B8 00                  NOP
2212   61B9 00                  NOP
2213   61BA 00                  NOP
2214   61BB 00                  NOP
2215   61BC 00                  NOP
2216   61BD 00                  NOP
2217   61BE 00                  NOP
2218   61BF 00                  NOP
2219   61C0 00                  NOP
2220   61C1 00                  NOP
2221   61C2 00                  NOP
2222   61C3 00                  NOP
2223   61C4 00                  NOP
2224   61C5 00                  NOP
2225   61C6 00                  NOP
2226   61C7 00                  NOP
2227   61C8 00                  NOP
2228   61C9 00                  NOP
2229   61CA 00                  NOP
2230   61CB 00                  NOP
2231   61CC 00                  NOP
2232   61CD 00                  NOP
2233   61CE 00                  NOP
2234   61CF 00                  NOP
2235   61D0 00                  NOP
2236   61D1 00                  NOP
2237   61D2 00                  NOP
2238   61D3 00                  NOP
2239   61D4 00                  NOP
2240   61D5 00                  NOP
2241   61D6 00                  NOP
2242   61D7 00                  NOP
2243   61D8 00                  NOP
2244   61D9 00                  NOP
2245   61DA 00                  NOP
2246   61DB 00                  NOP
2247   61DC 00                  NOP
2248   61DD 00                  NOP
2249   61DE 00                  NOP
2250   61DF 00                  NOP
2251   61E0 00                  NOP
2252   61E1 00                  NOP
2253   61E2 00                  NOP
2254   61E3 00                  NOP
2255   61E4 00                  NOP
2256   61E5 00                  NOP
2257   61E6 00                  NOP
2258   61E7 00                  NOP
2259   61E8 00                  NOP
2260   61E9 00                  NOP
2261   61EA 00                  NOP
2262   61EB 00                  NOP
2263   61EC 00                  NOP
2264   61ED 00                  NOP
2265   61EE 00                  NOP
2266   61EF 00                  NOP
2267   61F0 00                  NOP
2268   61F1 00                  NOP
2269   61F2 00                  NOP
2270   61F3 00                  NOP
2271   61F4 00                  NOP
2272   61F5 00                  NOP
2273   61F6 00                  NOP
2274   61F7 00                  NOP
2275   61F8 00                  NOP
2276   61F9 00                  NOP
2277   61FA 00                  NOP
2278   61FB 00                  NOP
2279   61FC 89                  ADC A,C
2280   61FD 01 7D 00            LD BC,007DH

---------------------------------------------
LIST OF LABELS
Sorted by address:      Sorted by name:
---------------------------------------------

L0030:  0000            L0001:  0069
L0014:  0002            L0002:  001B
L0521:  0004            L0003:  01AB
L0002:  001B            L0004:  0164
L0001:  0069            L0005:  0078
L0005:  0078            L0006:  019F
L0013:  00B0            L0007:  01AE
L0015:  00DA            L0008:  06FF
L0011:  00E4            L0009:  107B
L0010:  00E9            L0010:  00E9
L0016:  013B            L0011:  00E4
L0019:  0143            L0012:  0FD5
L0022:  0145            L0013:  00B0
L0025:  0157            L0014:  0002
L0018:  0163            L0015:  00DA
L0004:  0164            L0016:  013B
L0028:  0167            L0017:  016F
L0026:  0168            L0018:  0163
L0017:  016F            L0019:  0143
L0020:  0180            L0020:  0180
L0021:  0182            L0021:  0182
L0029:  0195            L0022:  0145
L0024:  0198            L0023:  01A0
L0006:  019F            L0024:  0198
L0023:  01A0            L0025:  0157
L0003:  01AB            L0026:  0168
L0007:  01AE            L0027:  C103
L0034:  01C1            L0028:  0167
L0033:  01D0            L0029:  0195
L0031:  01DE            L0030:  0000
L0032:  01E6            L0031:  01DE
L0035:  01FA            L0032:  01E6
L0036:  0210            L0033:  01D0
L0038:  0253            L0034:  01C1
L0037:  0263            L0035:  01FA
L0048:  0284            L0036:  0210
L0040:  0299            L0037:  0263
L0042:  02AB            L0038:  0253
L0046:  02BA            L0039:  06DB
L0043:  02CA            L0040:  0299
L0044:  02CD            L0041:  0307
L0045:  02ED            L0042:  02AB
L0047:  02F9            L0043:  02CA
L0049:  0302            L0044:  02CD
L0041:  0307            L0045:  02ED
L0051:  030A            L0046:  02BA
L0050:  0314            L0047:  02F9
L0052:  0330            L0048:  0284
L0053:  033D            L0049:  0302
L0055:  0347            L0050:  0314
L0054:  0354            L0051:  030A
L0057:  0372            L0052:  0330
L0056:  0382            L0053:  033D
L0058:  038A            L0054:  0354
L0059:  0394            L0055:  0347
L0093:  03BC            L0056:  0382
L0062:  03EA            L0057:  0372
L0063:  03F6            L0058:  038A
L0065:  03FA            L0059:  0394
L0064:  040A            L0060:  0490
L0069:  0414            L0061:  05EE
L0068:  042A            L0062:  03EA
L0066:  0437            L0063:  03F6
L0067:  043A            L0064:  040A
L0071:  044B            L0065:  03FA
L0072:  044D            L0066:  0437
L0073:  0463            L0067:  043A
L0074:  0472            L0068:  042A
L0075:  048A            L0069:  0414
L0060:  0490            L0070:  04C0
L0076:  04A2            L0071:  044B
L0077:  04BA            L0072:  044D
L0070:  04C0            L0073:  0463
L0078:  04C2            L0074:  0472
L0079:  04CD            L0075:  048A
L0081:  04F1            L0076:  04A2
L0082:  04F4            L0077:  04BA
L0083:  051C            L0078:  04C2
L0080:  0556            L0079:  04CD
L0084:  0566            L0080:  0556
L0085:  056D            L0081:  04F1
L0106:  0573            L0082:  04F4
L0086:  057C            L0083:  051C
L0087:  058F            L0084:  0566
L0088:  05A4            L0085:  056D
L0089:  05AE            L0086:  057C
L0090:  05CC            L0087:  058F
L0091:  05D9            L0088:  05A4
L0092:  05EC            L0089:  05AE
L0061:  05EE            L0090:  05CC
L0094:  0603            L0091:  05D9
L0095:  0618            L0092:  05EC
L0096:  0639            L0093:  03BC
L0098:  0648            L0094:  0603
L0099:  065E            L0095:  0618
L0101:  066D            L0096:  0639
L0097:  0685            L0097:  0685
L0100:  0694            L0098:  0648
L0102:  0698            L0099:  065E
L0103:  06A5            L0100:  0694
L0104:  06AE            L0101:  066D
L0105:  06BF            L0102:  0698
L0039:  06DB            L0103:  06A5
L0107:  06F9            L0104:  06AE
L0008:  06FF            L0105:  06BF
L0117:  070D            L0106:  0573
L0111:  0717            L0107:  06F9
L0119:  0721            L0108:  9607
L0115:  072F            L0109:  CD96
L0113:  0742            L0110:  074C
L0114:  0747            L0111:  0717
L0110:  074C            L0112:  0806
L0123:  0759            L0113:  0742
L0121:  076C            L0114:  0747
L0122:  0771            L0115:  072F
L0124:  077C            L0116:  0798
L0120:  077D            L0117:  070D
L0118:  078B            L0118:  078B
L0116:  0798            L0119:  0721
L0129:  07A6            L0120:  077D
L0126:  07D5            L0121:  076C
L0136:  07E5            L0122:  0771
L0134:  07E8            L0123:  0759
L0137:  07F2            L0124:  077C
L0112:  0806            L0125:  6805
L0138:  0810            L0126:  07D5
L0139:  0849            L0127:  096D
L0151:  0851            L0128:  0ED7
L0140:  0857            L0129:  07A6
L0141:  085F            L0130:  0B0F
L0142:  0876            L0131:  0EB3
L0143:  087E            L0132:  0F58
L0144:  08A1            L0133:  0F64
L0145:  08C2            L0134:  07E8
L0146:  08DD            L0135:  E608
L0147:  08E5            L0136:  07E5
L0148:  08E8            L0137:  07F2
L0149:  08EE            L0138:  0810
L0150:  090E            L0139:  0849
L0380:  0913            L0140:  0857
L0153:  091E            L0141:  085F
L0152:  0928            L0142:  0876
L0155:  0937            L0143:  087E
L0154:  093F            L0144:  08A1
L0156:  0945            L0145:  08C2
L0169:  0950            L0146:  08DD
L0157:  0958            L0147:  08E5
L0168:  095A            L0148:  08E8
L0158:  0962            L0149:  08EE
L0179:  0964            L0150:  090E
L0127:  096D            L0151:  0851
L0159:  0974            L0152:  0928
L0160:  0979            L0153:  091E
L0170:  098A            L0154:  093F
L0161:  0995            L0155:  0937
L0162:  099D            L0156:  0945
L0172:  09B7            L0157:  0958
L0174:  09DA            L0158:  0962
L0178:  0A13            L0159:  0974
L0176:  0A4E            L0160:  0979
L0177:  0A51            L0161:  0995
L0171:  0A5B            L0162:  099D
L0181:  0A6A            L0163:  0D38
L0183:  0A73            L0164:  0BE6
L0175:  0A7D            L0165:  0D2A
L0182:  0A85            L0166:  0C49
L0188:  0A95            L0167:  0D20
L0185:  0AA0            L0168:  095A
L0189:  0AAA            L0169:  0950
L0184:  0AB4            L0170:  098A
L0187:  0ABC            L0171:  0A5B
L0186:  0AC2            L0172:  09B7
L0190:  0AC6            L0173:  0ADD
L0173:  0ADD            L0174:  09DA
L0191:  0AEA            L0175:  0A7D
L0180:  0AF3            L0176:  0A4E
L0192:  0AFC            L0177:  0A51
L0130:  0B0F            L0178:  0A13
L0195:  0B7B            L0179:  0964
L0199:  0B99            L0180:  0AF3
L0198:  0BA1            L0181:  0A6A
L0197:  0BA4            L0182:  0A85
L0193:  0BA7            L0183:  0A73
L0201:  0BB9            L0184:  0AB4
L0196:  0BC5            L0185:  0AA0
L0200:  0BC8            L0186:  0AC2
L0194:  0BD1            L0187:  0ABC
L0202:  0BDA            L0188:  0A95
L0164:  0BE6            L0189:  0AAA
L0206:  0BEE            L0190:  0AC6
L0203:  0BFE            L0191:  0AEA
L0205:  0C0C            L0192:  0AFC
L0208:  0C0E            L0193:  0BA7
L0207:  0C1A            L0194:  0BD1
L0209:  0C21            L0195:  0B7B
L0204:  0C23            L0196:  0BC5
L0211:  0C26            L0197:  0BA4
L0213:  0C2F            L0198:  0BA1
L0210:  0C33            L0199:  0B99
L0166:  0C49            L0200:  0BC8
L0215:  0C52            L0201:  0BB9
L0214:  0C68            L0202:  0BDA
L0216:  0C80            L0203:  0BFE
L0212:  0C93            L0204:  0C23
L0232:  0CC0            L0205:  0C0C
L0228:  0CC3            L0206:  0BEE
L0223:  0CC4            L0207:  0C1A
L0222:  0CCD            L0208:  0C0E
L0225:  0CD6            L0209:  0C21
L0230:  0CDD            L0210:  0C33
L0236:  0CE6            L0211:  0C26
L0218:  0CFD            L0212:  0C93
L0227:  0D01            L0213:  0C2F
L0231:  0D04            L0214:  0C68
L0217:  0D0C            L0215:  0C52
L0220:  0D10            L0216:  0C80
L0229:  0D12            L0217:  0D0C
L0247:  0D16            L0218:  0CFD
L0167:  0D20            L0219:  0D2C
L0226:  0D22            L0220:  0D10
L0165:  0D2A            L0221:  F50C
L0219:  0D2C            L0222:  0CCD
L0163:  0D38            L0223:  0CC4
L0244:  0D6C            L0224:  0E48
L0239:  0D74            L0225:  0CD6
L0245:  0D81            L0226:  0D22
L0240:  0D8D            L0227:  0D01
L0242:  0DA7            L0228:  0CC3
L0238:  0DAA            L0229:  0D12
L0241:  0DD0            L0230:  0CDD
L0257:  0DDF            L0231:  0D04
L0256:  0DE4            L0232:  0CC0
L0255:  0DED            L0233:  0E26
L0254:  0DFF            L0234:  0E3B
L0250:  0E05            L0235:  0E09
L0251:  0E06            L0236:  0CE6
L0248:  0E07            L0237:  0E0F
L0235:  0E09            L0238:  0DAA
L0252:  0E0C            L0239:  0D74
L0237:  0E0F            L0240:  0D8D
L0243:  0E1A            L0241:  0DD0
L0233:  0E26            L0242:  0DA7
L0249:  0E31            L0243:  0E1A
L0234:  0E3B            L0244:  0D6C
L0253:  0E3C            L0245:  0D81
L0246:  0E3D            L0246:  0E3D
L0258:  0E3E            L0247:  0D16
L0224:  0E48            L0248:  0E07
L0261:  0E53            L0249:  0E31
L0259:  0E5F            L0250:  0E05
L0260:  0E72            L0251:  0E06
L0262:  0E82            L0252:  0E0C
L0263:  0E9F            L0253:  0E3C
L0264:  0EAE            L0254:  0DFF
L0131:  0EB3            L0255:  0DED
L0265:  0EB8            L0256:  0DE4
L0266:  0EC2            L0257:  0DDF
L0128:  0ED7            L0258:  0E3E
L0269:  0F03            L0259:  0E5F
L0267:  0F0E            L0260:  0E72
L0268:  0F18            L0261:  0E53
L0271:  0F35            L0262:  0E82
L0270:  0F39            L0263:  0E9F
L0132:  0F58            L0264:  0EAE
L0133:  0F64            L0265:  0EB8
L0275:  0F77            L0266:  0EC2
L0274:  0F88            L0267:  0F0E
L0273:  0F97            L0268:  0F18
L0272:  0FA8            L0269:  0F03
L0012:  0FD5            L0270:  0F39
L0277:  0FE5            L0271:  0F35
L0278:  0FEA            L0272:  0FA8
L0276:  0FF0            L0273:  0F97
L0281:  1008            L0274:  0F88
L0282:  100D            L0275:  0F77
L0375:  1014            L0276:  0FF0
L0283:  101D            L0277:  0FE5
L0288:  1038            L0278:  0FEA
L0289:  103A            L0279:  1071
L0286:  1040            L0280:  1063
L0284:  1048            L0281:  1008
L0290:  1050            L0282:  100D
L0291:  1059            L0283:  101D
L0292:  1061            L0284:  1048
L0280:  1063            L0285:  1065
L0285:  1065            L0286:  1040
L0293:  1067            L0287:  106F
L0287:  106F            L0288:  1038
L0279:  1071            L0289:  103A
L0294:  1073            L0290:  1050
L0009:  107B            L0291:  1059
L0307:  1084            L0292:  1061
L0328:  109C            L0293:  1067
L0295:  10A1            L0294:  1073
L0311:  10AB            L0295:  10A1
L0308:  10AF            L0296:  1136
L0310:  10BB            L0297:  118E
L0309:  10D3            L0298:  1306
L0313:  10DD            L0299:  154A
L0312:  10E3            L0300:  159C
L0315:  10EA            L0301:  15E0
L0296:  1136            L0302:  164B
L0324:  113F            L0303:  16AB
L0316:  1145            L0304:  1747
L0320:  1153            L0305:  1893
L0325:  1155            L0306:  1920
L0321:  1160            L0307:  1084
L0327:  1161            L0308:  10AF
L0318:  1165            L0309:  10D3
L0317:  116B            L0310:  10BB
L0319:  1172            L0311:  10AB
L0323:  1176            L0312:  10E3
L0322:  1177            L0313:  10DD
L0297:  118E            L0314:  1556
L0331:  1191            L0315:  10EA
L0335:  11B2            L0316:  1145
L0330:  11B7            L0317:  116B
L0336:  11B9            L0318:  1165
L0333:  11BA            L0319:  1172
L0334:  11BF            L0320:  1153
L0329:  11C2            L0321:  1160
L0337:  11C8            L0322:  1177
L0332:  11D6            L0323:  1176
L0344:  11EA            L0324:  113F
L0343:  11ED            L0325:  1155
L0338:  11FF            L0326:  1570
L0341:  1213            L0327:  1161
L0340:  121D            L0328:  109C
L0345:  122F            L0329:  11C2
L0347:  1250            L0330:  11B7
L0346:  1265            L0331:  1191
L0356:  1268            L0332:  11D6
L0339:  1274            L0333:  11BA
L0342:  1279            L0334:  11BF
L0348:  127C            L0335:  11B2
L0349:  1281            L0336:  11B9
L0355:  12F6            L0337:  11C8
L0350:  1301            L0338:  11FF
L0351:  1304            L0339:  1274
L0298:  1306            L0340:  121D
L0352:  130A            L0341:  1213
L0364:  130C            L0342:  1279
L0363:  130E            L0343:  11ED
L0362:  1318            L0344:  11EA
L0354:  131B            L0345:  122F
L0353:  1324            L0346:  1265
L0361:  132E            L0347:  1250
L0358:  1333            L0348:  127C
L0359:  1334            L0349:  1281
L0357:  1337            L0350:  1301
L0365:  1341            L0351:  1304
L0360:  1344            L0352:  130A
L0366:  1345            L0353:  1324
L0367:  1353            L0354:  131B
L0369:  1361            L0355:  12F6
L0368:  1364            L0356:  1268
L0370:  13B8            L0357:  1337
L0371:  13D0            L0358:  1333
L0377:  13F1            L0359:  1334
L0372:  13F2            L0360:  1344
L0378:  13FC            L0361:  132E
L0379:  13FE            L0362:  1318
L0373:  1407            L0363:  130E
L0381:  142C            L0364:  130C
L0382:  143A            L0365:  1341
L0383:  1448            L0366:  1345
L0384:  1461            L0367:  1353
L0385:  1469            L0368:  1364
L0386:  1471            L0369:  1361
L0387:  1479            L0370:  13B8
L0388:  1481            L0371:  13D0
L0389:  1489            L0372:  13F2
L0390:  1491            L0373:  1407
L0391:  1499            L0374:  4514
L0392:  1545            L0375:  1014
L0299:  154A            L0376:  E714
L0393:  1550            L0377:  13F1
L0314:  1556            L0378:  13FC
L0394:  155C            L0379:  13FE
L0403:  156B            L0380:  0913
L0326:  1570            L0381:  142C
L0395:  1573            L0382:  143A
L0300:  159C            L0383:  1448
L0398:  15A5            L0384:  1461
L0396:  15A6            L0385:  1469
L0397:  15AE            L0386:  1471
L0408:  15CA            L0387:  1479
L0301:  15E0            L0388:  1481
L0406:  15F3            L0389:  1489
L0405:  15FF            L0390:  1491
L0399:  160E            L0391:  1499
L0400:  161B            L0392:  1545
L0404:  1624            L0393:  1550
L0422:  162A            L0394:  155C
L0402:  1641            L0395:  1573
L0407:  1647            L0396:  15A6
L0302:  164B            L0397:  15AE
L0401:  164D            L0398:  15A5
L0417:  1651            L0399:  160E
L0409:  1655            L0400:  161B
L0410:  1659            L0401:  164D
L0412:  165D            L0402:  1641
L0415:  1660            L0403:  156B
L0413:  1661            L0404:  1624
L0416:  1675            L0405:  15FF
L0423:  169F            L0406:  15F3
L0411:  16AA            L0407:  1647
L0303:  16AB            L0408:  15CA
L0424:  16B1            L0409:  1655
L0414:  16B2            L0410:  1659
L0427:  16C0            L0411:  16AA
L0426:  16C5            L0412:  165D
L0420:  16C6            L0413:  1661
L0421:  16C8            L0414:  16B2
L0425:  16DC            L0415:  1660
L0418:  16DE            L0416:  1675
L0419:  16E1            L0417:  1651
L0428:  16E2            L0418:  16DE
L0438:  1718            L0419:  16E1
L0429:  1731            L0420:  16C6
L0430:  1743            L0421:  16C8
L0431:  1744            L0422:  162A
L0304:  1747            L0423:  169F
L0439:  174D            L0424:  16B1
L0433:  174F            L0425:  16DC
L0432:  1754            L0426:  16C5
L0436:  175B            L0427:  16C0
L0434:  1765            L0428:  16E2
L0435:  1772            L0429:  1731
L0442:  1784            L0430:  1743
L0443:  178A            L0431:  1744
L0437:  1790            L0432:  1754
L0440:  1794            L0433:  174F
L0441:  17A0            L0434:  1765
L0444:  17A2            L0435:  1772
L0447:  17A9            L0436:  175B
L0446:  17B8            L0437:  1790
L0451:  17C1            L0438:  1718
L0453:  17C8            L0439:  174D
L0448:  17D3            L0440:  1794
L0450:  17D8            L0441:  17A0
L0452:  17DF            L0442:  1784
L0449:  17E2            L0443:  178A
L0455:  17E5            L0444:  17A2
L0454:  17F2            L0445:  17F7
L0469:  17F4            L0446:  17B8
L0445:  17F7            L0447:  17A9
L0457:  17FA            L0448:  17D3
L0456:  1806            L0449:  17E2
L0459:  180F            L0450:  17D8
L0458:  1824            L0451:  17C1
L0460:  1862            L0452:  17DF
L0462:  1876            L0453:  17C8
L0461:  187A            L0454:  17F2
L0464:  1880            L0455:  17E5
L0468:  1891            L0456:  1806
L0305:  1893            L0457:  17FA
L0475:  1899            L0458:  1824
L0465:  189D            L0459:  180F
L0463:  189F            L0460:  1862
L0466:  18A7            L0461:  187A
L0467:  18A9            L0462:  1876
L0470:  18B0            L0463:  189F
L0473:  18B2            L0464:  1880
L0474:  18BB            L0465:  189D
L0471:  18BE            L0466:  18A7
L0477:  18C4            L0467:  18A9
L0479:  18D5            L0468:  1891
L0472:  18DC            L0469:  17F4
L0478:  18DD            L0470:  18B0
L0480:  18EA            L0471:  18BE
L0476:  18F9            L0472:  18DC
L0481:  18FC            L0473:  18B2
L0306:  1920            L0474:  18BB
L0492:  192A            L0475:  1899
L0482:  1948            L0476:  18F9
L0483:  194E            L0477:  18C4
L0486:  1950            L0478:  18DD
L0494:  195D            L0479:  18D5
L0493:  196A            L0480:  18EA
L0485:  198A            L0481:  18FC
L0491:  199B            L0482:  1948
L0496:  19AE            L0483:  194E
L0498:  19B7            L0484:  19CD
L0497:  19BE            L0485:  198A
L0495:  19C0            L0486:  1950
L0499:  19CB            L0487:  19E2
L0484:  19CD            L0488:  1A2C
L0490:  19D0            L0489:  19D6
L0489:  19D6            L0490:  19D0
L0487:  19E2            L0491:  199B
L0500:  19F2            L0492:  192A
L0501:  1A21            L0493:  196A
L0488:  1A2C            L0494:  195D
L0505:  1A38            L0495:  19C0
L0504:  1A39            L0496:  19AE
L0503:  1A3B            L0497:  19BE
L0502:  1A43            L0498:  19B7
L0508:  1A91            L0499:  19CB
L0506:  1A9B            L0500:  19F2
L0507:  1AB0            L0501:  1A21
L0510:  1AB4            L0502:  1A43
L0509:  1AD0            L0503:  1A3B
L0511:  1AD7            L0504:  1A39
L0512:  1AFA            L0505:  1A38
L0517:  1B13            L0506:  1A9B
L0518:  1B17            L0507:  1AB0
L0519:  1B1B            L0508:  1A91
L0520:  1B1F            L0509:  1AD0
L0514:  1B2F            L0510:  1AB4
L0513:  1B30            L0511:  1AD7
L0515:  1B41            L0512:  1AFA
L0516:  1B5A            L0513:  1B30
L0374:  4514            L0514:  1B2F
L0125:  6805            L0515:  1B41
L0108:  9607            L0516:  1B5A
L0027:  C103            L0517:  1B13
L0109:  CD96            L0518:  1B17
L0135:  E608            L0519:  1B1B
L0376:  E714            L0520:  1B1F
L0221:  F50C            L0521:  0004
