--------------------------------------------------
Z80 DISASSEMBLER LISTING
Line   Addr Opcodes     Label   Instruction
--------------------------------------------------

0001   0000 18 67       L0032_ORG:  JR L0001_INIT

0002   0002 D3 58       L0016:  OUT (58H),A
0003   0004 00          L0522:  NOP
0004   0005 00                  NOP
0005   0006 00                  NOP
0006   0007 00                  NOP
0007   0008 08                  EX AF,AF'
0008   0009 D9                  EXX
0009   000A ED 40               IN B,(C)
0010   000C 7D                  LD A,L
0011   000D D3 98               OUT (98H),A
0012   000F 7C                  LD A,H
0013   0010 D3 9C               OUT (9CH),A
0014   0012 23                  INC HL
0015   0013 1B                  DEC DE
0016   0014 7A                  LD A,D
0017   0015 B3                  OR E
0018   0016 D9                  EXX
0019   0017 28 02               JR Z,L0002
0020   0019 08                  EX AF,AF'
0021   001A C9                  RET
0022   001B E1          L0002:  POP HL
0023   001C C9                  RET
0024   001D 00                  NOP
0025   001E 00                  NOP
0026   001F 00                  NOP
0027   0020 00                  NOP
0028   0021 00                  NOP
0029   0022 00                  NOP
0030   0023 00                  NOP
0031   0024 00                  NOP
0032   0025 00                  NOP
0033   0026 00                  NOP
0034   0027 00                  NOP
0035   0028 00                  NOP
0036   0029 00                  NOP
0037   002A 00                  NOP
0038   002B 00                  NOP
0039   002C 00                  NOP
0040   002D 00                  NOP
0041   002E 00                  NOP
0042   002F 00                  NOP
0043   0030 00                  NOP
0044   0031 00                  NOP
0045   0032 00                  NOP
0046   0033 00                  NOP
0047   0034 00                  NOP
0048   0035 00                  NOP
0049   0036 00                  NOP
0050   0037 00                  NOP
0051   0038 C3 AB 01            JP L0003
0052   003B 00                  NOP
0053   003C 00                  NOP
0054   003D 00                  NOP
0055   003E 00                  NOP
0056   003F 00                  NOP
0057   0040 00                  NOP
0058   0041 00                  NOP
0059   0042 00                  NOP
0060   0043 00                  NOP
0061   0044 00                  NOP
0062   0045 00                  NOP
0063   0046 00                  NOP
0064   0047 00                  NOP
0065   0048 00                  NOP
0066   0049 00                  NOP
0067   004A 00                  NOP
0068   004B 00                  NOP
0069   004C 00                  NOP
0070   004D 00                  NOP
0071   004E 00                  NOP
0072   004F 00                  NOP
0073   0050 00                  NOP
0074   0051 00                  NOP
0075   0052 00                  NOP
0076   0053 00                  NOP
0077   0054 00                  NOP
0078   0055 00                  NOP
0079   0056 00                  NOP
0080   0057 00                  NOP
0081   0058 00                  NOP
0082   0059 00                  NOP
0083   005A 00                  NOP
0084   005B 00                  NOP
0085   005C 00                  NOP
0086   005D 00                  NOP
0087   005E 00                  NOP
0088   005F 00                  NOP
0089   0060 00                  NOP
0090   0061 00                  NOP
0091   0062 00                  NOP
0092   0063 00                  NOP
0093   0064 00                  NOP
0094   0065 00                  NOP
0095   0066 C3 AB 01            JP L0003

0096   0069 31 00 62    L0001_INIT:  LD SP,6200H	'SP=6200H
0097   006C AF                  XOR A
0098   006D CD 64 01            CALL L0004		;I/O
0099   0070 3E 7C               LD A,7CH    
0100   0072 D3 88               OUT (88H),A		;I/O 88HÅÀ0x7C
0101   0074 21 59 01            LD HL,0159H
0102   0077 46                  LD B,(HL)
0103   0078 23          L0006:  INC HL
0104   0079 7E                  LD A,(HL)
0105   007A CD 65 10            CALL L0005
0106   007D 10 F9               DJNZ L0006
0107   007F 11 13 01            LD DE,0113H
0108   0082 CD D5 0F            CALL L0007
0109   0085 AF                  XOR A
0110   0086 D3 8C               OUT (8CH),A
0111   0088 D3 90               OUT (90H),A
0112   008A 3D                  DEC A
0113   008B 21 00 00            LD HL,0000H
0114   008E 01 00 00            LD BC,0000H
0115   0091 77          L0008:  LD (HL),A
0116   0092 23                  INC HL
0117   0093 10 FC               DJNZ L0008
0118   0095 0D                  DEC C
0119   0096 20 F9               JR NZ,L0008
0120   0098 D3 8C               OUT (8CH),A
0121   009A D3 90               OUT (90H),A
0122   009C 21 5D 01            LD HL,015DH
0123   009F 01 51 07            LD BC,0751H
0124   00A2 ED B3               OTIR
0125   00A4 3E 7C               LD A,7CH
0126   00A6 32 79 61            LD (6179H),A
0127   00A9 ED 5E               IM 2
0128   00AB 3E 60               LD A,60H
0129   00AD 32 7A 61            LD (617AH),A
0130   00B0 21 FC 00    L0015:  LD HL,00FCH
0131   00B3 CD 9F 01            CALL L0009
0132   00B6 CD AE 01            CALL L0010
0133   00B9 DB 58               IN A,(58H)
0134   00BB E6 60               AND 60H
0135   00BD CA AB 01            JP Z,L0003
0136   00C0 CB 77               BIT 6,A
0137   00C2 CA FF 06            JP Z,L0011
0138   00C5 CB 6F               BIT 5,A
0139   00C7 CA 7B 10            JP Z,L0012
0140   00CA 21 FD 00            LD HL,00FDH
0141   00CD CD 9F 01            CALL L0009
0142   00D0 CD AE 01            CALL L0010
0143   00D3 FD 7E 09            LD A,(IY+09H)
0144   00D6 FE 80               CP 80H
0145   00D8 28 0F               JR Z,L0013
0146   00DA FE C2       L0017:  CP 0C2H
0147   00DC 11 47 01            LD DE,0147H
0148   00DF 20 03               JR NZ,L0014
0149   00E1 11 35 01            LD DE,0135H
0150   00E4 CD D5 0F    L0014:  CALL L0007
0151   00E7 18 C7               JR L0015
0152   00E9 21 08 01    L0013:  LD HL,0108H
0153   00EC CD 9F 01            CALL L0009
0154   00EF CD AE 01            CALL L0010
0155   00F2 FD 7E 09            LD A,(IY+09H)
0156   00F5 FE 80               CP 80H
0157   00F7 CA 02 00            JP Z,L0016
0158   00FA 18 DE               JR L0017
0159   00FC 00                  NOP
0160   00FD 0A                  LD A,(BC)
0161   00FE 00                  NOP
0162   00FF 00                  NOP
0163   0100 00                  NOP
0164   0101 40                  LD B,B
0165   0102 61                  LD H,C
0166   0103 00                  NOP
0167   0104 00                  NOP
0168   0105 00                  NOP
0169   0106 00                  NOP
0170   0107 00                  NOP
0171   0108 0A                  LD A,(BC)
0172   0109 00                  NOP
0173   010A A0                  AND B
0174   010B 00                  NOP
0175   010C 00                  NOP
0176   010D 46                  LD B,(HL)
0177   010E 00                  NOP
0178   010F 00                  NOP
0179   0110 00                  NOP
0180   0111 00                  NOP
0181   0112 07                  RLCA
0182   0113 53                  LD D,E
0183   0114 50                  LD D,B
0184   0115 2D                  DEC L
0185   0116 31 32 30            LD SP,3032H
0186   0119 30 20               JR NC,L0018
0187   011B 20 52               JR NZ,L0019
0188   011D 45                  LD B,L
0189   011E 56                  LD D,(HL)
0190   011F 20 42               JR NZ,L0020
0191   0121 20 20               JR NZ,L0021
0192   0123 90                  SUB B
0193   0124 4C                  LD C,H
0194   0125 6F                  LD L,A
0195   0126 61                  LD H,C
0196   0127 64                  LD H,H
0197   0128 69                  LD L,C
0198   0129 6E                  LD L,(HL)
0199   012A 67                  LD H,A
0200   012B 20 53               JR NZ,L0022
0201   012D 6F                  LD L,A
0202   012E 66                  LD H,(HL)
0203   012F 74                  LD (HL),H
0204   0130 77                  LD (HL),A
0205   0131 61                  LD H,C
0206   0132 72                  LD (HL),D
0207   0133 65                  LD H,L
0208   0134 FE 90               CP 90H
0209   0136 49                  LD C,C
0210   0137 6E                  LD L,(HL)
0211   0138 73                  LD (HL),E
0212   0139 65                  LD H,L
0213   013A 72                  LD (HL),D
0214   013B 74          L0018:  LD (HL),H
0215   013C 20 44               JR NZ,L0023
0216   013E 69                  LD L,C
0217   013F 73                  LD (HL),E
0218   0140 6B                  LD L,E
0219   0141 65                  LD H,L
0220   0142 74                  LD (HL),H
0221   0143 74          L0021:  LD (HL),H
0222   0144 65                  LD H,L
0223   0145 20 FE       L0024:  JR NZ,L0024
0224   0147 90                  SUB B
0225   0148 44                  LD B,H
0226   0149 69                  LD L,C
0227   014A 73                  LD (HL),E
0228   014B 6B                  LD L,E
0229   014C 20 52               JR NZ,L0025
0230   014E 65                  LD H,L
0231   014F 61                  LD H,C
0232   0150 64                  LD H,H
0233   0151 20 45               JR NZ,L0026
0234   0153 72                  LD (HL),D
0235   0154 72                  LD (HL),D
0236   0155 6F                  LD L,A
0237   0156 72                  LD (HL),D
0238   0157 20 FE       L0027:  JR NZ,L0027
0239   0159 03                  INC BC
0240   015A 38 0C               JR C,L0028
0241   015C 01 18 04            LD BC,0418H
0242   015F CC 03 C1            CALL Z,L0029
0243   0162 05                  DEC B
0244   0163 68          L0020:  LD L,B
0245   0164 01 80 08    L0004:  LD BC,0880H
0246   0167 ED 79       L0030:  OUT (C),A
0247   0169 0C                  INC C
0248   016A 10 FB               DJNZ L0030
0249   016C 01 00 08            LD BC,0800H
0250   016F 21 FD FF    L0019:  LD HL,0FFFDH
0251   0172 3E 02               LD A,02H
0252   0174 CD 95 01            CALL L0031
0253   0177 3E 00               LD A,00H
0254   0179 CD 95 01            CALL L0031
0255   017C 21 00 00            LD HL,0000H
0256   017F 3E 03               LD A,03H
0257   0181 CD 95 01            CALL L0031
0258   0184 3E 04               LD A,04H
0259   0186 CD 95 01            CALL L0031
0260   0189 79                  LD A,C
0261   018A C6 08               ADD A,08H
0262   018C 4F                  LD C,A
0263   018D 10 E0               DJNZ L0019
0264   018F 21 00 00            LD HL,0000H
0265   0192 0E 07               LD C,07H
0266   0194 AF                  XOR A
0267   0195 81          L0031:  ADD A,C
0268   0196 D3 94               OUT (94H),A
0269   0198 7D          L0026:  LD A,L
0270   0199 D3 98               OUT (98H),A
0271   019B 7C                  LD A,H
0272   019C D3 9C               OUT (9CH),A
0273   019E C9                  RET
0274   019F 11 7B 61    L0009:  LD DE,617BH
0275   01A2 D5                  PUSH DE
0276   01A3 FD E1               POP IY
0277   01A5 01 0B 00            LD BC,000BH
0278   01A8 ED B0               LDIR
0279   01AA C9                  RET
0280   01AB C3 00 00    L0003:  JP L0032_ORG
0281   01AE FD 7E 00    L0010:  LD A,(IY+00H)
0282   01B1 E6 FE               AND 0FEH
0283   01B3 28 29               JR Z,L0033
0284   01B5 21 DB 01            LD HL,01DBH
0285   01B8 01 03 00            LD BC,0003H
0286   01BB ED B1               CPIR
0287   01BD 28 27               JR Z,L0034
0288   01BF 3E C1               LD A,0C1H
0289   01C1 FD 77 09    L0036:  LD (IY+09H),A
0290   01C4 3E 05               LD A,05H
0291   01C6 D3 53               OUT (53H),A
0292   01C8 3A 7A 61            LD A,(617AH)
0293   01CB D3 53               OUT (53H),A
0294   01CD 11 80 01            LD DE,0180H
0295   01D0 1B          L0035:  DEC DE
0296   01D1 7A                  LD A,D
0297   01D2 B3                  OR E
0298   01D3 20 FB               JR NZ,L0035
0299   01D5 FD 7E 09            LD A,(IY+09H)
0300   01D8 FE 80               CP 80H
0301   01DA C9                  RET
0302   01DB 0A                  LD A,(BC)
0303   01DC 0E 1E               LD C,1EH
0304   01DE 3D          L0033:  DEC A
0305   01DF 32 5A 61            LD (615AH),A
0306   01E2 3E 80               LD A,80H
0307   01E4 18 DB               JR L0036
0308   01E6 3E 04       L0034:  LD A,04H
0309   01E8 32 5B 61            LD (615BH),A
0310   01EB 3E 0A               LD A,0AH
0311   01ED 32 5C 61            LD (615CH),A
0312   01F0 3E 05               LD A,05H
0313   01F2 D3 53               OUT (53H),A
0314   01F4 3E 66               LD A,66H
0315   01F6 D3 53               OUT (53H),A
0316   01F8 06 03               LD B,03H
0317   01FA 10 FE       L0037:  DJNZ L0037
0318   01FC 3E 10               LD A,10H
0319   01FE D3 51               OUT (51H),A
0320   0200 DB 51               IN A,(51H)
0321   0202 CB 67               BIT 4,A
0322   0204 28 0A               JR Z,L0038
0323   0206 FD CB 00 56         BIT 2,(IY+00H)
0324   020A 28 04               JR Z,L0038
0325   020C 3E C3               LD A,0C3H
0326   020E 18 B1               JR L0036
0327   0210 FD 36 09 00 L0038:  LD (IY+09H),00H
0328   0214 FD 5E 04            LD E,(IY+04H)
0329   0217 FD 56 05            LD D,(IY+05H)
0330   021A FD 7E 06            LD A,(IY+06H)
0331   021D ED 53 66 61         LD (6166H),DE
0332   0221 32 68 61            LD (6168H),A
0333   0224 FD 4E 07            LD C,(IY+07H)
0334   0227 FD 46 08            LD B,(IY+08H)
0335   022A ED 43 69 61         LD (6169H),BC
0336   022E FD 6E 01            LD L,(IY+01H)
0337   0231 FD 66 02            LD H,(IY+02H)
0338   0234 FD 7E 03            LD A,(IY+03H)
0339   0237 32 77 61            LD (6177H),A
0340   023A A7                  AND A
0341   023B 28 26               JR Z,L0039
0342   023D CB 85               RES 0,L
0343   023F CB 83               RES 0,E
0344   0241 CB 81               RES 0,C
0345   0243 ED 53 66 61         LD (6166H),DE
0346   0247 ED 43 69 61         LD (6169H),BC
0347   024B E6 07               AND 07H
0348   024D 5F                  LD E,A
0349   024E 16 FC               LD D,0FCH
0350   0250 01 80 08            LD BC,0880H
0351   0253 ED 59       L0040:  OUT (C),E
0352   0255 7A                  LD A,D
0353   0256 C6 08               ADD A,08H
0354   0258 57                  LD D,A
0355   0259 D3 94               OUT (94H),A
0356   025B AF                  XOR A
0357   025C D3 98               OUT (98H),A
0358   025E D3 9C               OUT (9CH),A
0359   0260 0C                  INC C
0360   0261 10 F0               DJNZ L0040
0361   0263 22 75 61    L0039:  LD (6175H),HL
0362   0266 FD 7E 0A            LD A,(IY+0AH)
0363   0269 A7                  AND A
0364   026A 1F                  RRA
0365   026B 32 5D 61            LD (615DH),A
0366   026E 5F                  LD E,A
0367   026F 1F                  RRA
0368   0270 E6 80               AND 80H
0369   0272 32 5E 61            LD (615EH),A
0370   0275 CD DB 06            CALL L0041
0371   0278 EB                  EX DE,HL
0372   0279 3A 5A 61            LD A,(615AH)
0373   027C CB 7F               BIT 7,A
0374   027E 20 19               JR NZ,L0042
0375   0280 95                  SUB L
0376   0281 CA 07 03            JP Z,L0043
0377   0284 67          L0050:  LD H,A
0378   0285 7D                  LD A,L
0379   0286 A7                  AND A
0380   0287 28 10               JR Z,L0042
0381   0289 32 5A 61            LD (615AH),A
0382   028C 7C                  LD A,H
0383   028D 26 08               LD H,08H
0384   028F CB 7F               BIT 7,A
0385   0291 28 18               JR Z,L0044
0386   0293 26 00               LD H,00H
0387   0295 ED 44               NEG
0388   0297 18 12               JR L0044
0389   0299 AF          L0042:  XOR A
0390   029A 32 5A 61            LD (615AH),A
0391   029D 26 08               LD H,08H
0392   029F 3E 10               LD A,10H
0393   02A1 D3 53               OUT (53H),A
0394   02A3 DB 53               IN A,(53H)
0395   02A5 CB 6F               BIT 5,A
0396   02A7 20 21               JR NZ,L0045
0397   02A9 3E 5A               LD A,5AH
0398   02AB 3D          L0044:  DEC A
0399   02AC 32 60 61            LD (6160H),A
0400   02AF 3A 79 61            LD A,(6179H)
0401   02B2 E6 F7               AND 0F7H
0402   02B4 B4                  OR H
0403   02B5 D3 88               OUT (88H),A
0404   02B7 32 79 61            LD (6179H),A
0405   02BA 3E 05       L0048:  LD A,05H
0406   02BC D3 53               OUT (53H),A
0407   02BE 3E E6               LD A,0E6H
0408   02C0 D3 53               OUT (53H),A
0409   02C2 3E 05               LD A,05H
0410   02C4 D3 53               OUT (53H),A
0411   02C6 3E 66               LD A,66H
0412   02C8 D3 53               OUT (53H),A
0413   02CA 11 80 01    L0045:  LD DE,0180H
0414   02CD 1B          L0046:  DEC DE
0415   02CE 7A                  LD A,D
0416   02CF B3                  OR E
0417   02D0 20 FB               JR NZ,L0046
0418   02D2 3A 60 61            LD A,(6160H)
0419   02D5 3D                  DEC A
0420   02D6 FA ED 02            JP M,L0047
0421   02D9 32 60 61            LD (6160H),A
0422   02DC 3A 79 61            LD A,(6179H)
0423   02DF CB 5F               BIT 3,A
0424   02E1 28 D7               JR Z,L0048
0425   02E3 3E 10               LD A,10H
0426   02E5 D3 53               OUT (53H),A
0427   02E7 DB 53               IN A,(53H)
0428   02E9 CB 6F               BIT 5,A
0429   02EB 28 CD               JR Z,L0048
0430   02ED 3A 5D 61    L0047:  LD A,(615DH)
0431   02F0 6F                  LD L,A
0432   02F1 3A 5A 61            LD A,(615AH)
0433   02F4 95                  SUB L
0434   02F5 28 02               JR Z,L0049
0435   02F7 18 8B               JR L0050
0436   02F9 FD CB 00 56 L0049:  BIT 2,(IY+00H)
0437   02FD 28 08               JR Z,L0043
0438   02FF 11 83 07            LD DE,0783H
0439   0302 1B          L0051:  DEC DE
0440   0303 7A                  LD A,D
0441   0304 B3                  OR E
0442   0305 20 FB               JR NZ,L0051
0443   0307 11 9C AD    L0043:  LD DE,0AD9CH
0444   030A 1B          L0053:  DEC DE
0445   030B 7A                  LD A,D
0446   030C B3                  OR E
0447   030D 20 05               JR NZ,L0052
0448   030F 3E C2               LD A,0C2H
0449   0311 C3 C1 01            JP L0036
0450   0314 3E 10       L0052:  LD A,10H
0451   0316 D3 51               OUT (51H),A
0452   0318 DB 51               IN A,(51H)
0453   031A CB 5F               BIT 3,A
0454   031C 28 EC               JR Z,L0053
0455   031E 21 5F 03            LD HL,035FH
0456   0321 FD CB 00 66         BIT 4,(IY+00H)
0457   0325 28 09               JR Z,L0054
0458   0327 FD CB 09 6E         BIT 5,(IY+09H)
0459   032B 20 03               JR NZ,L0054
0460   032D 21 81 05            LD HL,0581H
0461   0330 11 71 45    L0054:  LD DE,4571H
0462   0333 1B                  DEC DE
0463   0334 7A                  LD A,D
0464   0335 B3                  OR E
0465   0336 20 05               JR NZ,L0055
0466   0338 3E C2               LD A,0C2H
0467   033A C3 C1 01            JP L0036
0468   033D 3E 10       L0055:  LD A,10H
0469   033F D3 51               OUT (51H),A
0470   0341 DB 51               IN A,(51H)
0471   0343 CB 6F               BIT 5,A
0472   0345 20 E9               JR NZ,L0054
0473   0347 11 71 45    L0057:  LD DE,4571H
0474   034A 1B                  DEC DE
0475   034B 7A                  LD A,D
0476   034C B3                  OR E
0477   034D 20 05               JR NZ,L0056
0478   034F 3E C2               LD A,0C2H
0479   0351 C3 C1 01            JP L0036
0480   0354 3E 10       L0056:  LD A,10H
0481   0356 D3 51               OUT (51H),A
0482   0358 DB 51               IN A,(51H)
0483   035A CB 6F               BIT 5,A
0484   035C 28 E9               JR Z,L0057
0485   035E E9                  JP (HL)
0486   035F DB 52               IN A,(52H)
0487   0361 DB 52               IN A,(52H)
0488   0363 DB 52               IN A,(52H)
0489   0365 DB 52               IN A,(52H)
0490   0367 3E 43               LD A,43H
0491   0369 D3 53               OUT (53H),A
0492   036B 3E D9               LD A,0D9H
0493   036D D3 53               OUT (53H),A
0494   036F 11 14 05            LD DE,0514H
0495   0372 DB 53       L0059:  IN A,(53H)
0496   0374 E6 01               AND 01H
0497   0376 20 0A               JR NZ,L0058
0498   0378 1B                  DEC DE
0499   0379 7A                  LD A,D
0500   037A B3                  OR E
0501   037B 20 F5               JR NZ,L0059
0502   037D 3E C4               LD A,0C4H
0503   037F C3 C1 01            JP L0036
0504   0382 21 62 61    L0058:  LD HL,6162H
0505   0385 01 52 04            LD BC,0452H
0506   0388 ED A2               INI
0507   038A DB 53       L0060:  IN A,(53H)
0508   038C E6 01               AND 01H
0509   038E 28 FA               JR Z,L0060
0510   0390 ED A2               INI
0511   0392 20 F6               JR NZ,L0060
0512   0394 DB 53       L0061:  IN A,(53H)
0513   0396 CB 47               BIT 0,A
0514   0398 28 FA               JR Z,L0061
0515   039A 3E 01               LD A,01H
0516   039C D3 53               OUT (53H),A
0517   039E DB 53               IN A,(53H)
0518   03A0 CB 77               BIT 6,A
0519   03A2 C2 90 04            JP NZ,L0062
0520   03A5 3A 62 61            LD A,(6162H)
0521   03A8 67                  LD H,A
0522   03A9 3A 5E 61            LD A,(615EH)
0523   03AC 17                  RLA
0524   03AD 3A 5D 61            LD A,(615DH)
0525   03B0 17                  RLA
0526   03B1 BC                  CP H
0527   03B2 C2 90 04            JP NZ,L0062
0528   03B5 FD CB 00 56         BIT 2,(IY+00H)
0529   03B9 C2 EE 05            JP NZ,L0063
0530   03BC 3E 03       L0095:  LD A,03H
0531   03BE D3 53               OUT (53H),A
0532   03C0 3E D9               LD A,0D9H
0533   03C2 D3 53               OUT (53H),A
0534   03C4 DB 52               IN A,(52H)
0535   03C6 DB 52               IN A,(52H)
0536   03C8 DB 52               IN A,(52H)
0537   03CA DB 52               IN A,(52H)
0538   03CC 2A 69 61            LD HL,(6169H)
0539   03CF ED 5B 75 61         LD DE,(6175H)
0540   03D3 3A 77 61            LD A,(6177H)
0541   03D6 A7                  AND A
0542   03D7 28 11               JR Z,L0064
0543   03D9 3E 07               LD A,07H
0544   03DB D3 94               OUT (94H),A
0545   03DD 7B                  LD A,E
0546   03DE D3 98               OUT (98H),A
0547   03E0 7A                  LD A,D
0548   03E1 D3 9C               OUT (9CH),A
0549   03E3 44                  LD B,H
0550   03E4 4D                  LD C,L
0551   03E5 CB 38               SRL B
0552   03E7 CB 19               RR C
0553   03E9 09                  ADD HL,BC
0554   03EA 01 0E 00    L0064:  LD BC,000EH
0555   03ED FD CB 09 6E         BIT 5,(IY+09H)
0556   03F1 28 03               JR Z,L0065
0557   03F3 21 FF FF            LD HL,0FFFFH
0558   03F6 7C          L0065:  LD A,H
0559   03F7 B5                  OR L
0560   03F8 28 10               JR Z,L0066
0561   03FA DB 53       L0067:  IN A,(53H)
0562   03FC E6 01               AND 01H
0563   03FE 28 FA               JR Z,L0067
0564   0400 DB 52               IN A,(52H)
0565   0402 2B                  DEC HL
0566   0403 10 F1               DJNZ L0065
0567   0405 0D                  DEC C
0568   0406 20 EE               JR NZ,L0065
0569   0408 18 2D               JR L0068
0570   040A 3A 77 61    L0066:  LD A,(6177H)
0571   040D A7                  AND A
0572   040E C2 3A 04            JP NZ,L0069
0573   0411 2A 66 61            LD HL,(6166H)
0574   0414 7C          L0071:  LD A,H
0575   0415 B5                  OR L
0576   0416 28 12               JR Z,L0070
0577   0418 DB 53               IN A,(53H)
0578   041A E6 01               AND 01H
0579   041C 28 F6               JR Z,L0071
0580   041E DB 52               IN A,(52H)
0581   0420 12                  LD (DE),A
0582   0421 13                  INC DE
0583   0422 2B                  DEC HL
0584   0423 10 EF               DJNZ L0071
0585   0425 0D                  DEC C
0586   0426 20 EC               JR NZ,L0071
0587   0428 18 0D               JR L0068
0588   042A DB 53       L0070:  IN A,(53H)
0589   042C E6 01               AND 01H
0590   042E 28 FA               JR Z,L0070
0591   0430 DB 52               IN A,(52H)
0592   0432 10 F6               DJNZ L0070
0593   0434 0D                  DEC C
0594   0435 20 F3               JR NZ,L0070
0595   0437 C3 C0 04    L0068:  JP L0072
0596   043A 2A 66 61    L0069:  LD HL,(6166H)
0597   043D 2B                  DEC HL
0598   043E D5                  PUSH DE
0599   043F EB                  EX DE,HL
0600   0440 21 3F 09            LD HL,093FH
0601   0443 ED 52               SBC HL,DE
0602   0445 EB                  EX DE,HL
0603   0446 30 03               JR NC,L0073
0604   0448 21 3F 09            LD HL,093FH
0605   044B 23          L0073:  INC HL
0606   044C D1                  POP DE
0607   044D DB 53       L0074:  IN A,(53H)
0608   044F E6 01               AND 01H
0609   0451 28 FA               JR Z,L0074
0610   0453 DB 52               IN A,(52H)
0611   0455 D3 41               OUT (41H),A
0612   0457 13                  INC DE
0613   0458 7B                  LD A,E
0614   0459 D3 98               OUT (98H),A
0615   045B 7A                  LD A,D
0616   045C D3 9C               OUT (9CH),A
0617   045E 10 03               DJNZ L0075
0618   0460 0D                  DEC C
0619   0461 28 D4               JR Z,L0068
0620   0463 DB 53       L0075:  IN A,(53H)
0621   0465 E6 01               AND 01H
0622   0467 28 FA               JR Z,L0075
0623   0469 DB 52               IN A,(52H)
0624   046B D3 41               OUT (41H),A
0625   046D 10 03               DJNZ L0076
0626   046F 0D                  DEC C
0627   0470 28 C5               JR Z,L0068
0628   0472 DB 53       L0076:  IN A,(53H)
0629   0474 E6 01               AND 01H
0630   0476 28 FA               JR Z,L0076
0631   0478 DB 52               IN A,(52H)
0632   047A D3 40               OUT (40H),A
0633   047C 13                  INC DE
0634   047D 7B                  LD A,E
0635   047E D3 98               OUT (98H),A
0636   0480 7A                  LD A,D
0637   0481 D3 9C               OUT (9CH),A
0638   0483 2B                  DEC HL
0639   0484 2B                  DEC HL
0640   0485 10 03               DJNZ L0077
0641   0487 0D                  DEC C
0642   0488 28 AD               JR Z,L0068
0643   048A 7C          L0077:  LD A,H
0644   048B B5                  OR L
0645   048C 28 9C               JR Z,L0070
0646   048E 18 BD               JR L0074
0647   0490 2A 71 61    L0062:  LD HL,(6171H)
0648   0493 23                  INC HL
0649   0494 22 71 61            LD (6171H),HL
0650   0497 3A 5B 61            LD A,(615BH)
0651   049A 3D                  DEC A
0652   049B 20 05               JR NZ,L0078
0653   049D 3E C5               LD A,0C5H
0654   049F C3 C1 01            JP L0036
0655   04A2 32 5B 61    L0078:  LD (615BH),A
0656   04A5 FE 03               CP 03H
0657   04A7 20 11               JR NZ,L0079
0658   04A9 2B                  DEC HL
0659   04AA 22 71 61            LD (6171H),HL
0660   04AD 2A 73 61            LD HL,(6173H)
0661   04B0 23                  INC HL
0662   04B1 22 73 61            LD (6173H),HL
0663   04B4 CD DB 06            CALL L0041
0664   04B7 C3 07 03            JP L0043
0665   04BA CD DB 06    L0079:  CALL L0041
0666   04BD C3 99 02            JP L0042
0667   04C0 26 04       L0072:  LD H,04H
0668   04C2 DB 53       L0080:  IN A,(53H)
0669   04C4 CB 47               BIT 0,A
0670   04C6 28 FA               JR Z,L0080
0671   04C8 DB 52               IN A,(52H)
0672   04CA 25                  DEC H
0673   04CB 20 F5               JR NZ,L0080
0674   04CD DB 53       L0081:  IN A,(53H)
0675   04CF CB 47               BIT 0,A
0676   04D1 28 FA               JR Z,L0081
0677   04D3 3E 01               LD A,01H
0678   04D5 D3 53               OUT (53H),A
0679   04D7 DB 53               IN A,(53H)
0680   04D9 CB 77               BIT 6,A
0681   04DB C2 56 05            JP NZ,L0082
0682   04DE 3E 03               LD A,03H
0683   04E0 D3 53               OUT (53H),A
0684   04E2 3E C0               LD A,0C0H
0685   04E4 D3 53               OUT (53H),A
0686   04E6 3A 77 61            LD A,(6177H)
0687   04E9 A7                  AND A
0688   04EA 28 05               JR Z,L0083
0689   04EC 21 40 09            LD HL,0940H
0690   04EF 18 03               JR L0084
0691   04F1 21 00 0E    L0083:  LD HL,0E00H
0692   04F4 ED 4B 69 61 L0084:  LD BC,(6169H)
0693   04F8 A7                  AND A
0694   04F9 ED 42               SBC HL,BC
0695   04FB 44                  LD B,H
0696   04FC 4D                  LD C,L
0697   04FD 2A 75 61            LD HL,(6175H)
0698   0500 09                  ADD HL,BC
0699   0501 22 75 61            LD (6175H),HL
0700   0504 2A 66 61            LD HL,(6166H)
0701   0507 3A 68 61            LD A,(6168H)
0702   050A A7                  AND A
0703   050B ED 42               SBC HL,BC
0704   050D 22 66 61            LD (6166H),HL
0705   0510 DE 00               SBC A,00H
0706   0512 32 68 61            LD (6168H),A
0707   0515 38 05               JR C,L0085
0708   0517 B4                  OR H
0709   0518 B5                  OR L
0710   0519 20 01               JR NZ,L0085
0711   051B 37                  SCF
0712   051C 3E 80       L0085:  LD A,80H
0713   051E DA C1 01            JP C,L0036
0714   0521 3E 04               LD A,04H
0715   0523 32 5B 61            LD (615BH),A
0716   0526 3E 0A               LD A,0AH
0717   0528 32 5C 61            LD (615CH),A
0718   052B FD CB 09 AE         RES 5,(IY+09H)
0719   052F 3A 5E 61            LD A,(615EH)
0720   0532 EE 80               XOR 80H
0721   0534 32 5E 61            LD (615EH),A
0722   0537 21 00 00            LD HL,0000H
0723   053A 22 69 61            LD (6169H),HL
0724   053D CD DB 06            CALL L0041
0725   0540 CB 7F               BIT 7,A
0726   0542 C2 07 03            JP NZ,L0043
0727   0545 3A 5D 61            LD A,(615DH)
0728   0548 3C                  INC A
0729   0549 32 5D 61            LD (615DH),A
0730   054C 32 5A 61            LD (615AH),A
0731   054F 3E 01               LD A,01H
0732   0551 26 00               LD H,00H
0733   0553 C3 AB 02            JP L0044
0734   0556 3A 5C 61    L0082:  LD A,(615CH)
0735   0559 FE 0A               CP 0AH
0736   055B 28 09               JR Z,L0086
0737   055D 2A 6D 61            LD HL,(616DH)
0738   0560 23                  INC HL
0739   0561 22 6D 61            LD (616DH),HL
0740   0564 18 07               JR L0087
0741   0566 2A 6F 61    L0086:  LD HL,(616FH)
0742   0569 23                  INC HL
0743   056A 22 6F 61            LD (616FH),HL
0744   056D 3D          L0087:  DEC A
0745   056E 28 0C               JR Z,L0088
0746   0570 32 5C 61            LD (615CH),A
0747   0573 CD DB 06    L0108:  CALL L0041
0748   0576 21 5F 03            LD HL,035FH
0749   0579 C3 30 03            JP L0054
0750   057C 3E C6       L0088:  LD A,0C6H
0751   057E C3 C1 01            JP L0036
0752   0581 3E 05               LD A,05H
0753   0583 D3 51               OUT (51H),A
0754   0585 3A 5E 61            LD A,(615EH)
0755   0588 F6 6A               OR 6AH
0756   058A D3 51               OUT (51H),A
0757   058C 21 9B 00            LD HL,009BH
0758   058F 2B          L0089:  DEC HL
0759   0590 7C                  LD A,H
0760   0591 B5                  OR L
0761   0592 20 FB               JR NZ,L0089
0762   0594 D3 52               OUT (52H),A
0763   0596 3E 05               LD A,05H
0764   0598 D3 53               OUT (53H),A
0765   059A 3E 6E               LD A,6EH
0766   059C D3 53               OUT (53H),A
0767   059E 21 FA 06            LD HL,06FAH
0768   05A1 01 52 05            LD BC,0552H
0769   05A4 DB 53       L0090:  IN A,(53H)
0770   05A6 CB 57               BIT 2,A
0771   05A8 28 FA               JR Z,L0090
0772   05AA ED A3               OUTI
0773   05AC 20 F6               JR NZ,L0090
0774   05AE DB 53       L0091:  IN A,(53H)
0775   05B0 CB 57               BIT 2,A
0776   05B2 28 FA               JR Z,L0091
0777   05B4 3E 85               LD A,85H
0778   05B6 D3 53               OUT (53H),A
0779   05B8 3E 66               LD A,66H
0780   05BA F6 6F               OR 6FH
0781   05BC D3 53               OUT (53H),A
0782   05BE 3A 5E 61            LD A,(615EH)
0783   05C1 17                  RLA
0784   05C2 3A 5D 61            LD A,(615DH)
0785   05C5 17                  RLA
0786   05C6 D3 52               OUT (52H),A
0787   05C8 3E D0               LD A,0D0H
0788   05CA D3 53               OUT (53H),A
0789   05CC DB 53       L0092:  IN A,(53H)
0790   05CE CB 77               BIT 6,A
0791   05D0 3E 10               LD A,10H
0792   05D2 D3 53               OUT (53H),A
0793   05D4 28 F6               JR Z,L0092
0794   05D6 AF                  XOR A
0795   05D7 D3 52               OUT (52H),A
0796   05D9 DB 53       L0093:  IN A,(53H)
0797   05DB CB 57               BIT 2,A
0798   05DD 28 FA               JR Z,L0093
0799   05DF AF                  XOR A
0800   05E0 D3 52               OUT (52H),A
0801   05E2 3E 05               LD A,05H
0802   05E4 D3 53               OUT (53H),A
0803   05E6 3E 66               LD A,66H
0804   05E8 D3 53               OUT (53H),A
0805   05EA 06 1C               LD B,1CH
0806   05EC 10 FE       L0094:  DJNZ L0094
0807   05EE FD CB 09 6E L0063:  BIT 5,(IY+09H)
0808   05F2 C2 BC 03            JP NZ,L0095
0809   05F5 3E 05               LD A,05H
0810   05F7 D3 51               OUT (51H),A
0811   05F9 3A 5E 61            LD A,(615EH)
0812   05FC F6 6A               OR 6AH
0813   05FE D3 51               OUT (51H),A
0814   0600 21 4D 00            LD HL,004DH
0815   0603 2B          L0096:  DEC HL
0816   0604 7C                  LD A,H
0817   0605 B5                  OR L
0818   0606 20 FB               JR NZ,L0096
0819   0608 D3 52               OUT (52H),A
0820   060A 3E 15               LD A,15H
0821   060C D3 53               OUT (53H),A
0822   060E 3E 6E               LD A,6EH
0823   0610 D3 53               OUT (53H),A
0824   0612 21 FA 06            LD HL,06FAH
0825   0615 01 52 05            LD BC,0552H
0826   0618 DB 53       L0097:  IN A,(53H)
0827   061A CB 57               BIT 2,A
0828   061C 28 FA               JR Z,L0097
0829   061E ED A3               OUTI
0830   0620 20 F6               JR NZ,L0097
0831   0622 2A 75 61            LD HL,(6175H)
0832   0625 01 0E 00            LD BC,000EH
0833   0628 3E 07               LD A,07H
0834   062A D3 94               OUT (94H),A
0835   062C 7D                  LD A,L
0836   062D D3 98               OUT (98H),A
0837   062F 7C                  LD A,H
0838   0630 D3 9C               OUT (9CH),A
0839   0632 3A 77 61            LD A,(6177H)
0840   0635 A7                  AND A
0841   0636 3E 6F               LD A,6FH
0842   0638 F5                  PUSH AF
0843   0639 DB 53       L0098:  IN A,(53H)
0844   063B CB 57               BIT 2,A
0845   063D 28 FA               JR Z,L0098
0846   063F 3E 85               LD A,85H
0847   0641 D3 53               OUT (53H),A
0848   0643 F1                  POP AF
0849   0644 D3 53               OUT (53H),A
0850   0646 28 3D               JR Z,L0099
0851   0648 DB 53       L0100:  IN A,(53H)
0852   064A E6 04               AND 04H
0853   064C 28 FA               JR Z,L0100
0854   064E DB 41               IN A,(41H)
0855   0650 D3 52               OUT (52H),A
0856   0652 23                  INC HL
0857   0653 7D                  LD A,L
0858   0654 D3 98               OUT (98H),A
0859   0656 7C                  LD A,H
0860   0657 D3 9C               OUT (9CH),A
0861   0659 10 03               DJNZ L0101
0862   065B 0D                  DEC C
0863   065C 28 36               JR Z,L0102
0864   065E DB 53       L0101:  IN A,(53H)
0865   0660 E6 04               AND 04H
0866   0662 28 FA               JR Z,L0101
0867   0664 DB 41               IN A,(41H)
0868   0666 D3 52               OUT (52H),A
0869   0668 10 03               DJNZ L0103
0870   066A 0D                  DEC C
0871   066B 28 27               JR Z,L0102
0872   066D DB 53       L0103:  IN A,(53H)
0873   066F E6 04               AND 04H
0874   0671 28 FA               JR Z,L0103
0875   0673 DB 40               IN A,(40H)
0876   0675 D3 52               OUT (52H),A
0877   0677 23                  INC HL
0878   0678 7D                  LD A,L
0879   0679 D3 98               OUT (98H),A
0880   067B 7C                  LD A,H
0881   067C D3 9C               OUT (9CH),A
0882   067E 10 C8               DJNZ L0100
0883   0680 0D                  DEC C
0884   0681 20 C5               JR NZ,L0100
0885   0683 18 0F               JR L0102
0886   0685 DB 53       L0099:  IN A,(53H)
0887   0687 E6 04               AND 04H
0888   0689 28 FA               JR Z,L0099
0889   068B 7E                  LD A,(HL)
0890   068C D3 52               OUT (52H),A
0891   068E 23                  INC HL
0892   068F 10 F4               DJNZ L0099
0893   0691 0D                  DEC C
0894   0692 20 F1               JR NZ,L0099
0895   0694 3E D0       L0102:  LD A,0D0H
0896   0696 D3 53               OUT (53H),A
0897   0698 DB 53       L0104:  IN A,(53H)
0898   069A CB 77               BIT 6,A
0899   069C 3E 10               LD A,10H
0900   069E D3 53               OUT (53H),A
0901   06A0 28 F6               JR Z,L0104
0902   06A2 AF                  XOR A
0903   06A3 D3 52               OUT (52H),A
0904   06A5 DB 53       L0105:  IN A,(53H)
0905   06A7 CB 57               BIT 2,A
0906   06A9 28 FA               JR Z,L0105
0907   06AB AF                  XOR A
0908   06AC D3 52               OUT (52H),A
0909   06AE DB 53       L0106:  IN A,(53H)
0910   06B0 CB 57               BIT 2,A
0911   06B2 28 FA               JR Z,L0106
0912   06B4 3E 05               LD A,05H
0913   06B6 D3 53               OUT (53H),A
0914   06B8 3E 66               LD A,66H
0915   06BA D3 53               OUT (53H),A
0916   06BC 21 22 00            LD HL,0022H
0917   06BF 2B          L0107:  DEC HL
0918   06C0 7C                  LD A,H
0919   06C1 B5                  OR L
0920   06C2 20 FB               JR NZ,L0107
0921   06C4 FD CB 09 EE         SET 5,(IY+09H)
0922   06C8 3E 02               LD A,02H
0923   06CA 32 5C 61            LD (615CH),A
0924   06CD 3E 05               LD A,05H
0925   06CF D3 51               OUT (51H),A
0926   06D1 3A 5E 61            LD A,(615EH)
0927   06D4 F6 68               OR 68H
0928   06D6 D3 51               OUT (51H),A
0929   06D8 C3 73 05            JP L0108
0930   06DB 21 F0 06    L0041:  LD HL,06F0H
0931   06DE 01 53 08            LD BC,0853H
0932   06E1 ED B3               OTIR
0933   06E3 01 51 02            LD BC,0251H
0934   06E6 3A 5E 61            LD A,(615EH)
0935   06E9 F6 68               OR 68H
0936   06EB ED B3               OTIR
0937   06ED D3 51               OUT (51H),A
0938   06EF C9                  RET
0939   06F0 04                  INC B
0940   06F1 10 06               DJNZ L0109
0941   06F3 FA 07 96            JP M,L0110
0942   06F6 03                  INC BC
0943   06F7 C0                  RET NZ
0944   06F8 10 05               DJNZ L0011
0945   06FA 00                  NOP
0946   06FB 00                  NOP
0947   06FC 00                  NOP
0948   06FD FA 96 CD            JP M,L0111
0949   0700 B3                  OR E
0950   0701 0E CD               LD C,0CDH
0951   0703 D7                  RST 10H
0952   0704 0E 21               LD C,21H
0953   0706 76                  HALT
0954   0707 07                  RLCA
0955   0708 01 51 07            LD BC,0751H
0956   070B ED B3               OTIR
0957   070D 3E 7F       L0119:  LD A,7FH
0958   070F D3 88               OUT (88H),A
0959   0711 11 16 08            LD DE,0816H
0960   0714 CD D5 0F            CALL L0007
0961   0717 DB 58       L0113:  IN A,(58H)
0962   0719 CB 77               BIT 6,A
0963   071B 28 2F               JR Z,L0112
0964   071D CB 6F               BIT 5,A
0965   071F 20 F6               JR NZ,L0113
0966   0721 11 31 08    L0121:  LD DE,0831H
0967   0724 CD D5 0F            CALL L0007
0968   0727 3E 03               LD A,03H
0969   0729 32 D1 68            LD (68D1H),A
0970   072C CD 06 08            CALL L0114
0971   072F DB 58       L0117:  IN A,(58H)
0972   0731 CB 77               BIT 6,A
0973   0733 28 0D               JR Z,L0115
0974   0735 CB 6F               BIT 5,A
0975   0737 28 0E               JR Z,L0116
0976   0739 CB 67               BIT 4,A
0977   073B 20 F2               JR NZ,L0117
0978   073D CD 98 07            CALL L0118
0979   0740 18 CB               JR L0119
0980   0742 CD 8B 07    L0115:  CALL L0120
0981   0745 18 DA               JR L0121
0982   0747 CD 7D 07    L0116:  CALL L0122
0983   074A 18 D5               JR L0121
0984   074C 11 54 08    L0112:  LD DE,0854H
0985   074F CD D5 0F            CALL L0007
0986   0752 AF                  XOR A
0987   0753 32 D1 68            LD (68D1H),A
0988   0756 CD 06 08            CALL L0114
0989   0759 DB 58       L0125:  IN A,(58H)
0990   075B CB 77               BIT 6,A
0991   075D 28 0D               JR Z,L0123
0992   075F CB 6F               BIT 5,A
0993   0761 28 0E               JR Z,L0124
0994   0763 CB 67               BIT 4,A
0995   0765 20 F2               JR NZ,L0125
0996   0767 CD 98 07            CALL L0118
0997   076A 18 A1               JR L0119
0998   076C CD 8B 07    L0123:  CALL L0120
0999   076F 18 DB               JR L0112
1000   0771 CD 7D 07    L0124:  CALL L0122
1001   0774 18 D6               JR L0112
1002   0776 18 04               JR L0126
1003   0778 CC 05 68            CALL Z,L0127
1004   077B 03                  INC BC
1005   077C C1          L0126:  POP BC
1006   077D CD D5 07    L0122:  CALL L0128
1007   0780 CD 6D 09            CALL L0129
1008   0783 F5                  PUSH AF
1009   0784 DC D7 0E            CALL C,L0130
1010   0787 F1                  POP AF
1011   0788 C3 A6 07            JP L0131
1012   078B CD D5 07    L0120:  CALL L0128
1013   078E CD 0F 0B            CALL L0132
1014   0791 F5                  PUSH AF
1015   0792 DC B3 0E            CALL C,L0133
1016   0795 F1                  POP AF
1017   0796 18 0E               JR L0131
1018   0798 11 B2 08    L0118:  LD DE,08B2H
1019   079B CD D5 0F            CALL L0007
1020   079E CD 58 0F            CALL L0134
1021   07A1 20 03               JR NZ,L0131
1022   07A3 CD 64 0F            CALL L0135
1023   07A6 F5          L0131:  PUSH AF
1024   07A7 CD 06 08            CALL L0114
1025   07AA F1                  POP AF
1026   07AB 21 C1 07            LD HL,07C1H
1027   07AE 87                  ADD A,A
1028   07AF 5F                  LD E,A
1029   07B0 16 00               LD D,00H
1030   07B2 19                  ADD HL,DE
1031   07B3 5E                  LD E,(HL)
1032   07B4 23                  INC HL
1033   07B5 56                  LD D,(HL)
1034   07B6 CD D5 0F            CALL L0007
1035   07B9 CD E8 07            CALL L0136
1036   07BC 3E 7F               LD A,7FH
1037   07BE D3 88               OUT (88H),A
1038   07C0 C9                  RET
1039   07C1 D1                  POP DE
1040   07C2 08                  EX AF,AF'
1041   07C3 DC 08 E6            CALL C,L0137
1042   07C6 08                  EX AF,AF'
1043   07C7 F7                  RST 30H
1044   07C8 08                  EX AF,AF'
1045   07C9 08                  EX AF,AF'
1046   07CA 09                  ADD HL,BC
1047   07CB 08                  EX AF,AF'
1048   07CC 09                  ADD HL,BC
1049   07CD 0A                  LD A,(BC)
1050   07CE 09                  ADD HL,BC
1051   07CF 1B                  DEC DE
1052   07D0 09                  ADD HL,BC
1053   07D1 2D                  DEC L
1054   07D2 09                  ADD HL,BC
1055   07D3 3F                  CCF
1056   07D4 09                  ADD HL,BC
1057   07D5 FD 21 D1 68 L0128:  LD IY,68D1H
1058   07D9 11 77 08            LD DE,0877H
1059   07DC FD CB 00 4E         BIT 1,(IY+00H)
1060   07E0 28 03               JR Z,L0138
1061   07E2 11 87 08            LD DE,0887H
1062   07E5 CD D5 0F    L0138:  CALL L0007
1063   07E8 11 98 08    L0136:  LD DE,0898H
1064   07EB CD D5 0F            CALL L0007
1065   07EE 3E 7D               LD A,7DH
1066   07F0 D3 88               OUT (88H),A
1067   07F2 DB 58       L0139:  IN A,(58H)
1068   07F4 CB 7F               BIT 7,A
1069   07F6 20 FA               JR NZ,L0139
1070   07F8 11 A5 08            LD DE,08A5H
1071   07FB CD D5 0F            CALL L0007
1072   07FE 3E 7E               LD A,7EH
1073   0800 D3 88               OUT (88H),A
1074   0802 FD 7E 00            LD A,(IY+00H)
1075   0805 C9                  RET
1076   0806 DB 58       L0114:  IN A,(58H)
1077   0808 F6 07               OR 07H
1078   080A 3C                  INC A
1079   080B 20 F9               JR NZ,L0114
1080   080D 21 14 32            LD HL,3214H
1081   0810 2B          L0140:  DEC HL
1082   0811 7C                  LD A,H
1083   0812 B5                  OR L
1084   0813 20 FB               JR NZ,L0140
1085   0815 C9                  RET
1086   0816 10 31               DJNZ L0141
1087   0818 20 3D               JR NZ,L0142
1088   081A 20 43               JR NZ,L0143
1089   081C 61                  LD H,C
1090   081D 73                  LD (HL),E
1091   081E 73                  LD (HL),E
1092   081F 65                  LD H,L
1093   0820 74                  LD (HL),H
1094   0821 74                  LD (HL),H
1095   0822 65                  LD H,L
1096   0823 90                  SUB B
1097   0824 32 20 3D            LD (3D20H),A
1098   0827 20 4D               JR NZ,L0144
1099   0829 69                  LD L,C
1100   082A 64                  LD H,H
1101   082B 69                  LD L,C
1102   082C 44                  LD B,H
1103   082D 69                  LD L,C
1104   082E 73                  LD (HL),E
1105   082F 6B                  LD L,E
1106   0830 FE 10               CP 10H
1107   0832 4D                  LD C,L
1108   0833 69                  LD L,C
1109   0834 64                  LD H,H
1110   0835 69                  LD L,C
1111   0836 44                  LD B,H
1112   0837 69                  LD L,C
1113   0838 73                  LD (HL),E
1114   0839 6B                  LD L,E
1115   083A 3A 20 31            LD A,(3120H)
1116   083D 3D                  DEC A
1117   083E 53                  LD D,E
1118   083F 65                  LD H,L
1119   0840 71                  LD (HL),C
1120   0841 73                  LD (HL),E
1121   0842 90                  SUB B
1122   0843 32 3D 53            LD (533DH),A
1123   0846 6E                  LD L,(HL)
1124   0847 64                  LD H,H
1125   0848 73                  LD (HL),E
1126   0849 20 33       L0141:  JR NZ,L0145
1127   084B 3D                  DEC A
1128   084C 4D                  LD C,L
1129   084D 61                  LD H,C
1130   084E 6B                  LD L,E
1131   084F 65                  LD H,L
1132   0850 44                  LD B,H
1133   0851 73          L0153:  LD (HL),E
1134   0852 6B                  LD L,E
1135   0853 FE 10               CP 10H
1136   0855 43                  LD B,E
1137   0856 61                  LD H,C
1138   0857 73          L0142:  LD (HL),E
1139   0858 73                  LD (HL),E
1140   0859 65                  LD H,L
1141   085A 74                  LD (HL),H
1142   085B 74                  LD (HL),H
1143   085C 65                  LD H,L
1144   085D 3A 20 31            LD A,(3120H)
1145   0860 3D                  DEC A
1146   0861 53                  LD D,E
1147   0862 65                  LD H,L
1148   0863 71                  LD (HL),C
1149   0864 73                  LD (HL),E
1150   0865 90                  SUB B
1151   0866 32 3D 53            LD (533DH),A
1152   0869 6E                  LD L,(HL)
1153   086A 64                  LD H,H
1154   086B 73                  LD (HL),E
1155   086C 20 33               JR NZ,L0146
1156   086E 3D                  DEC A
1157   086F 4D                  LD C,L
1158   0870 61                  LD H,C
1159   0871 6B                  LD L,E
1160   0872 65                  LD H,L
1161   0873 44                  LD B,H
1162   0874 73                  LD (HL),E
1163   0875 6B                  LD L,E
1164   0876 FE 10       L0144:  CP 10H
1165   0878 53                  LD D,E
1166   0879 74                  LD (HL),H
1167   087A 61                  LD H,C
1168   087B 72                  LD (HL),D
1169   087C 74                  LD (HL),H
1170   087D 20 43               JR NZ,L0147
1171   087F 61                  LD H,C
1172   0880 73                  LD (HL),E
1173   0881 73                  LD (HL),E
1174   0882 65                  LD H,L
1175   0883 74                  LD (HL),H
1176   0884 74                  LD (HL),H
1177   0885 65                  LD H,L
1178   0886 FE 10               CP 10H
1179   0888 49                  LD C,C
1180   0889 6E                  LD L,(HL)
1181   088A 73                  LD (HL),E
1182   088B 65                  LD H,L
1183   088C 72                  LD (HL),D
1184   088D 74                  LD (HL),H
1185   088E 20 4D               JR NZ,L0148
1186   0890 69                  LD L,C
1187   0891 64                  LD H,H
1188   0892 69                  LD L,C
1189   0893 44                  LD B,H
1190   0894 69                  LD L,C
1191   0895 73                  LD (HL),E
1192   0896 6B                  LD L,E
1193   0897 FE 90               CP 90H
1194   0899 50                  LD D,B
1195   089A 72                  LD (HL),D
1196   089B 65                  LD H,L
1197   089C 73                  LD (HL),E
1198   089D 73                  LD (HL),E
1199   089E 20 45               JR NZ,L0149
1200   08A0 6E                  LD L,(HL)
1201   08A1 74          L0146:  LD (HL),H
1202   08A2 65                  LD H,L
1203   08A3 72                  LD (HL),D
1204   08A4 FE 10               CP 10H
1205   08A6 90                  SUB B
1206   08A7 4E                  LD C,(HL)
1207   08A8 4F                  LD C,A
1208   08A9 20 3D               JR NZ,L0150
1209   08AB 20 41               JR NZ,L0151
1210   08AD 62                  LD H,D
1211   08AE 6F                  LD L,A
1212   08AF 72                  LD (HL),D
1213   08B0 74                  LD (HL),H
1214   08B1 FE 10               CP 10H
1215   08B3 53                  LD D,E
1216   08B4 61                  LD H,C
1217   08B5 76                  HALT
1218   08B6 69                  LD L,C
1219   08B7 6E                  LD L,(HL)
1220   08B8 67                  LD H,A
1221   08B9 20 53               JR NZ,L0152
1222   08BB 50                  LD D,B
1223   08BC 31 32 30            LD SP,3032H
1224   08BF 30 90               JR NC,L0153
1225   08C1 53                  LD D,E
1226   08C2 65          L0147:  LD H,L
1227   08C3 71                  LD (HL),C
1228   08C4 73                  LD (HL),E
1229   08C5 20 61               JR NZ,L0154
1230   08C7 6E                  LD L,(HL)
1231   08C8 64                  LD H,H
1232   08C9 20 53               JR NZ,L0155
1233   08CB 6F                  LD L,A
1234   08CC 75                  LD (HL),L
1235   08CD 6E                  LD L,(HL)
1236   08CE 64                  LD H,H
1237   08CF 73                  LD (HL),E
1238   08D0 FE 10               CP 10H
1239   08D2 84                  ADD A,H
1240   08D3 43                  LD B,E
1241   08D4 6F                  LD L,A
1242   08D5 6D                  LD L,L
1243   08D6 70                  LD (HL),B
1244   08D7 6C                  LD L,H
1245   08D8 65                  LD H,L
1246   08D9 74                  LD (HL),H
1247   08DA 65                  LD H,L
1248   08DB FE 10               CP 10H
1249   08DD 84          L0148:  ADD A,H
1250   08DE 41                  LD B,C
1251   08DF 62                  LD H,D
1252   08E0 6F                  LD L,A
1253   08E1 72                  LD (HL),D
1254   08E2 74                  LD (HL),H
1255   08E3 65                  LD H,L
1256   08E4 64                  LD H,H
1257   08E5 FE 10       L0149:  CP 10H
1258   08E7 44                  LD B,H
1259   08E8 61          L0150:  LD H,C
1260   08E9 74                  LD (HL),H
1261   08EA 61                  LD H,C
1262   08EB 20 52               JR NZ,L0156
1263   08ED 65                  LD H,L
1264   08EE 61          L0151:  LD H,C
1265   08EF 64                  LD H,H
1266   08F0 20 45               JR NZ,L0157
1267   08F2 72                  LD (HL),D
1268   08F3 72                  LD (HL),D
1269   08F4 6F                  LD L,A
1270   08F5 72                  LD (HL),D
1271   08F6 FE 10               CP 10H
1272   08F8 57                  LD D,A
1273   08F9 72                  LD (HL),D
1274   08FA 6F                  LD L,A
1275   08FB 6E                  LD L,(HL)
1276   08FC 67                  LD H,A
1277   08FD 20 46               JR NZ,L0158
1278   08FF 69                  LD L,C
1279   0900 6C                  LD L,H
1280   0901 65                  LD H,L
1281   0902 20 54               JR NZ,L0159
1282   0904 79                  LD A,C
1283   0905 70                  LD (HL),B
1284   0906 65                  LD H,L
1285   0907 FE 10               CP 10H
1286   0909 FE 10               CP 10H
1287   090B 57                  LD D,A
1288   090C 72                  LD (HL),D
1289   090D 69                  LD L,C
1290   090E 74          L0152:  LD (HL),H
1291   090F 65                  LD H,L
1292   0910 20 50               JR NZ,L0160
1293   0912 72                  LD (HL),D
1294   0913 6F          L0381:  LD L,A
1295   0914 74                  LD (HL),H
1296   0915 65                  LD H,L
1297   0916 63                  LD H,E
1298   0917 74                  LD (HL),H
1299   0918 65                  LD H,L
1300   0919 64                  LD H,H
1301   091A FE 10               CP 10H
1302   091C 44                  LD B,H
1303   091D 69                  LD L,C
1304   091E 73          L0155:  LD (HL),E
1305   091F 6B                  LD L,E
1306   0920 20 52               JR NZ,L0161
1307   0922 64                  LD H,H
1308   0923 2F                  CPL
1309   0924 56                  LD D,(HL)
1310   0925 65                  LD H,L
1311   0926 72                  LD (HL),D
1312   0927 45                  LD B,L
1313   0928 72          L0154:  LD (HL),D
1314   0929 72                  LD (HL),D
1315   092A 6F                  LD L,A
1316   092B 72                  LD (HL),D
1317   092C FE 10               CP 10H
1318   092E 4E                  LD C,(HL)
1319   092F 6F                  LD L,A
1320   0930 44                  LD B,H
1321   0931 69                  LD L,C
1322   0932 73                  LD (HL),E
1323   0933 6B                  LD L,E
1324   0934 20 43               JR NZ,L0162
1325   0936 6F                  LD L,A
1326   0937 6E          L0157:  LD L,(HL)
1327   0938 6E                  LD L,(HL)
1328   0939 65                  LD H,L
1329   093A 63                  LD H,E
1330   093B 74                  LD (HL),H
1331   093C 65                  LD H,L
1332   093D 64                  LD H,H
1333   093E FE 10               CP 10H
1334   0940 44                  LD B,H
1335   0941 72                  LD (HL),D
1336   0942 69                  LD L,C
1337   0943 76                  HALT
1338   0944 65                  LD H,L
1339   0945 20 4E       L0158:  JR NZ,L0163
1340   0947 6F                  LD L,A
1341   0948 74                  LD (HL),H
1342   0949 20 52               JR NZ,L0164
1343   094B 65                  LD H,L
1344   094C 61                  LD H,C
1345   094D 64                  LD H,H
1346   094E 79                  LD A,C
1347   094F FE FD               CP 0FDH
1348   0951 CB 00               RLC B
1349   0953 4E                  LD C,(HL)
1350   0954 C2 38 0D            JP NZ,L0165
1351   0957 C3 E6 0B            JP L0166
1352   095A FD CB 00 4E         BIT 1,(IY+00H)
1353   095E C2 2A 0D            JP NZ,L0167
1354   0961 C3 49 0C            JP L0168
1355   0964 FD CB 00 4E         BIT 1,(IY+00H)
1356   0968 C2 20 0D            JP NZ,L0169
1357   096B AF                  XOR A
1358   096C C9                  RET
1359   096D CD 5A 09    L0129:  CALL L0170
1360   0970 A7                  AND A
1361   0971 C0                  RET NZ
1362   0972 21 00 00            LD HL,0000H
1363   0975 11 01 00            LD DE,0001H
1364   0978 06 00               LD B,00H
1365   097A CD 50 09            CALL L0171
1366   097D A7                  AND A
1367   097E C0                  RET NZ
1368   097F 3A 20 69            LD A,(6920H)
1369   0982 FE 18               CP 18H
1370   0984 3E 03               LD A,03H
1371   0986 28 02               JR Z,L0172
1372   0988 BF                  CP A
1373   0989 C9                  RET
1374   098A 3E FF       L0172:  LD A,0FFH
1375   098C 32 7C 6C            LD (6C7CH),A
1376   098F 21 21 69            LD HL,6921H
1377   0992 11 F0 6B            LD DE,6BF0H
1378   0995 01 FF 00    L0163:  LD BC,00FFH
1379   0998 CD 5B 0A            CALL L0173
1380   099B 06 03               LD B,03H
1381   099D C5          L0164:  PUSH BC
1382   099E D5                  PUSH DE
1383   099F 21 00 00            LD HL,0000H
1384   09A2 11 01 00            LD DE,0001H
1385   09A5 06 00               LD B,00H
1386   09A7 CD 50 09            CALL L0171
1387   09AA D1                  POP DE
1388   09AB C1                  POP BC
1389   09AC D8                  RET C
1390   09AD C5                  PUSH BC
1391   09AE 05                  DEC B
1392   09AF 01 00 01            LD BC,0100H
1393   09B2 20 03               JR NZ,L0174
1394   09B4 01 0F 00            LD BC,000FH
1395   09B7 21 20 69    L0174:  LD HL,6920H
1396   09BA CD 5B 0A            CALL L0173
1397   09BD C1                  POP BC
1398   09BE 10 DD               DJNZ L0164
1399   09C0 21 00 00            LD HL,0000H
1400   09C3 22 D7 68            LD (68D7H),HL
1401   09C6 2A 7A 6C            LD HL,(6C7AH)
1402   09C9 CD DD 0A            CALL L0175
1403   09CC 3E 07               LD A,07H
1404   09CE 32 D6 68            LD (68D6H),A
1405   09D1 7C                  LD A,H
1406   09D2 B5                  OR L
1407   09D3 20 05               JR NZ,L0176
1408   09D5 3E 06               LD A,06H
1409   09D7 32 D6 68            LD (68D6H),A
1410   09DA 22 D9 68    L0176:  LD (68D9H),HL
1411   09DD E5                  PUSH HL
1412   09DE 2A 78 6C            LD HL,(6C78H)
1413   09E1 CD DD 0A            CALL L0175
1414   09E4 D1                  POP DE
1415   09E5 19                  ADD HL,DE
1416   09E6 7C                  LD A,H
1417   09E7 B5                  OR L
1418   09E8 C8                  RET Z
1419   09E9 EB                  EX DE,HL
1420   09EA 21 00 00            LD HL,0000H
1421   09ED 06 00               LD B,00H
1422   09EF DD 21 7D 0A         LD IX,0A7DH
1423   09F3 CD 50 09            CALL L0171
1424   09F6 D8                  RET C
1425   09F7 CD 7D 0A            CALL L0177
1426   09FA F5                  PUSH AF
1427   09FB 21 00 00            LD HL,0000H
1428   09FE 22 74 6C            LD (6C74H),HL
1429   0A01 22 76 6C            LD (6C76H),HL
1430   0A04 DD 21 7E 6C         LD IX,6C7EH
1431   0A08 01 0A 00            LD BC,000AH
1432   0A0B 21 F0 6B            LD HL,6BF0H
1433   0A0E 11 04 00            LD DE,0004H
1434   0A11 3E 20               LD A,20H
1435   0A13 DD CB 01 56 L0180:  BIT 2,(IX+01H)
1436   0A17 20 35               JR NZ,L0178
1437   0A19 36 00               LD (HL),00H
1438   0A1B 23                  INC HL
1439   0A1C 36 00               LD (HL),00H
1440   0A1E 23                  INC HL
1441   0A1F 36 00               LD (HL),00H
1442   0A21 23                  INC HL
1443   0A22 36 00               LD (HL),00H
1444   0A24 DD 36 01 80         LD (IX+01H),80H
1445   0A28 DD 36 00 17         LD (IX+00H),17H
1446   0A2C DD 36 02 00         LD (IX+02H),00H
1447   0A30 DD 36 03 00         LD (IX+03H),00H
1448   0A34 DD 36 04 FD         LD (IX+04H),0FDH
1449   0A38 DD 36 05 FF         LD (IX+05H),0FFH
1450   0A3C DD 36 06 00         LD (IX+06H),00H
1451   0A40 DD 36 07 00         LD (IX+07H),00H
1452   0A44 DD 36 08 FD         LD (IX+08H),0FDH
1453   0A48 DD 36 09 FF         LD (IX+09H),0FFH
1454   0A4C 18 03               JR L0179
1455   0A4E 23          L0178:  INC HL
1456   0A4F 23                  INC HL
1457   0A50 23                  INC HL
1458   0A51 23          L0179:  INC HL
1459   0A52 DD 09               ADD IX,BC
1460   0A54 3D                  DEC A
1461   0A55 20 BC               JR NZ,L0180
1462   0A57 F1                  POP AF
1463   0A58 C3 64 09            JP L0181
1464   0A5B ED B0       L0173:  LDIR
1465   0A5D C9                  RET
1466   0A5E CD F3 0A            CALL L0182
1467   0A61 06 00               LD B,00H
1468   0A63 18 05               JR L0183
1469   0A65 C5                  PUSH BC
1470   0A66 CD F3 0A            CALL L0182
1471   0A69 C1                  POP BC
1472   0A6A 21 20 69    L0183:  LD HL,6920H
1473   0A6D 3A DD 68            LD A,(68DDH)
1474   0A70 A7                  AND A
1475   0A71 28 12               JR Z,L0184
1476   0A73 23          L0185:  INC HL
1477   0A74 05                  DEC B
1478   0A75 3D                  DEC A
1479   0A76 20 FB               JR NZ,L0185
1480   0A78 32 DD 68            LD (68DDH),A
1481   0A7B 18 08               JR L0184
1482   0A7D CD F3 0A    L0177:  CALL L0182
1483   0A80 06 00               LD B,00H
1484   0A82 21 20 69            LD HL,6920H
1485   0A85 ED 5B D7 68 L0184:  LD DE,(68D7H)
1486   0A89 0E 41               LD C,41H
1487   0A8B FD CB 00 6E         BIT 5,(IY+00H)
1488   0A8F 20 23               JR NZ,L0186
1489   0A91 CB 43               BIT 0,E
1490   0A93 20 0B               JR NZ,L0187
1491   0A95 7B          L0190:  LD A,E
1492   0A96 D3 98               OUT (98H),A
1493   0A98 7A                  LD A,D
1494   0A99 D3 9C               OUT (9CH),A
1495   0A9B ED A3               OUTI
1496   0A9D 13                  INC DE
1497   0A9E 28 22               JR Z,L0188
1498   0AA0 7B          L0187:  LD A,E
1499   0AA1 D3 98               OUT (98H),A
1500   0AA3 7A                  LD A,D
1501   0AA4 D3 9C               OUT (9CH),A
1502   0AA6 ED A3               OUTI
1503   0AA8 28 12               JR Z,L0189
1504   0AAA 13          L0191:  INC DE
1505   0AAB 0D                  DEC C
1506   0AAC ED A3               OUTI
1507   0AAE 28 12               JR Z,L0188
1508   0AB0 0C                  INC C
1509   0AB1 C3 95 0A            JP L0190
1510   0AB4 7B          L0186:  LD A,E
1511   0AB5 D3 98               OUT (98H),A
1512   0AB7 7A                  LD A,D
1513   0AB8 D3 9C               OUT (9CH),A
1514   0ABA 18 EE               JR L0191
1515   0ABC FD CB 00 EE L0189:  SET 5,(IY+00H)
1516   0AC0 18 04               JR L0192
1517   0AC2 FD CB 00 AE L0188:  RES 5,(IY+00H)
1518   0AC6 ED 53 D7 68 L0192:  LD (68D7H),DE
1519   0ACA 2A D9 68            LD HL,(68D9H)
1520   0ACD 2B                  DEC HL
1521   0ACE 22 D9 68            LD (68D9H),HL
1522   0AD1 7C                  LD A,H
1523   0AD2 B5                  OR L
1524   0AD3 C0                  RET NZ
1525   0AD4 3E 06               LD A,06H
1526   0AD6 32 D6 68            LD (68D6H),A
1527   0AD9 22 D7 68            LD (68D7H),HL
1528   0ADC C9                  RET
1529   0ADD 7C          L0175:  LD A,H
1530   0ADE B5                  OR L
1531   0ADF C8                  RET Z
1532   0AE0 2B                  DEC HL
1533   0AE1 6C                  LD L,H
1534   0AE2 26 00               LD H,00H
1535   0AE4 23                  INC HL
1536   0AE5 CB 45               BIT 0,L
1537   0AE7 28 01               JR Z,L0193
1538   0AE9 23                  INC HL
1539   0AEA 7C          L0193:  LD A,H
1540   0AEB 1F                  RRA
1541   0AEC 7D                  LD A,L
1542   0AED 1F                  RRA
1543   0AEE 85                  ADD A,L
1544   0AEF 6F                  LD L,A
1545   0AF0 D0                  RET NC
1546   0AF1 24                  INC H
1547   0AF2 C9                  RET
1548   0AF3 01 80 08    L0182:  LD BC,0880H
1549   0AF6 26 04               LD H,04H
1550   0AF8 3A D6 68            LD A,(68D6H)
1551   0AFB 6F                  LD L,A
1552   0AFC ED 69       L0194:  OUT (C),L
1553   0AFE 7C                  LD A,H
1554   0AFF D3 94               OUT (94H),A
1555   0B01 C6 08               ADD A,08H
1556   0B03 67                  LD H,A
1557   0B04 AF                  XOR A
1558   0B05 D3 9C               OUT (9CH),A
1559   0B07 0C                  INC C
1560   0B08 10 F2               DJNZ L0194
1561   0B0A 3E 07               LD A,07H
1562   0B0C D3 94               OUT (94H),A
1563   0B0E C9                  RET
1564   0B0F CD 5A 09    L0132:  CALL L0170
1565   0B12 A7                  AND A
1566   0B13 C0                  RET NZ
1567   0B14 21 00 00            LD HL,0000H
1568   0B17 11 01 00            LD DE,0001H
1569   0B1A 06 00               LD B,00H
1570   0B1C CD 50 09            CALL L0171
1571   0B1F A7                  AND A
1572   0B20 C0                  RET NZ
1573   0B21 3A 20 69            LD A,(6920H)
1574   0B24 FE 17               CP 17H
1575   0B26 3E 03               LD A,03H
1576   0B28 C2 A7 0B            JP NZ,L0195
1577   0B2B ED 5B 21 69         LD DE,(6921H)
1578   0B2F 2A FE 6E            LD HL,(6EFEH)
1579   0B32 A7                  AND A
1580   0B33 ED 52               SBC HL,DE
1581   0B35 7C                  LD A,H
1582   0B36 32 D6 68            LD (68D6H),A
1583   0B39 2A 21 69            LD HL,(6921H)
1584   0B3C ED 5B 25 69         LD DE,(6925H)
1585   0B40 A7                  AND A
1586   0B41 ED 52               SBC HL,DE
1587   0B43 44                  LD B,H
1588   0B44 4D                  LD C,L
1589   0B45 2A FE 6E            LD HL,(6EFEH)
1590   0B48 A7                  AND A
1591   0B49 ED 42               SBC HL,BC
1592   0B4B 22 02 6F            LD (6F02H),HL
1593   0B4E 23                  INC HL
1594   0B4F 22 DB 68            LD (68DBH),HL
1595   0B52 2A 23 69            LD HL,(6923H)
1596   0B55 22 00 6F            LD (6F00H),HL
1597   0B58 11 04 6F            LD DE,6F04H
1598   0B5B A7                  AND A
1599   0B5C ED 52               SBC HL,DE
1600   0B5E 44                  LD B,H
1601   0B5F 4D                  LD C,L
1602   0B60 21 27 69            LD HL,6927H
1603   0B63 3E F9               LD A,0F9H
1604   0B65 CD D1 0B            CALL L0196
1605   0B68 2A FE 6E            LD HL,(6EFEH)
1606   0B6B ED 5B DB 68         LD DE,(68DBH)
1607   0B6F 23                  INC HL
1608   0B70 A7                  AND A
1609   0B71 ED 52               SBC HL,DE
1610   0B73 09                  ADD HL,BC
1611   0B74 45                  LD B,L
1612   0B75 5C                  LD E,H
1613   0B76 78                  LD A,B
1614   0B77 A7                  AND A
1615   0B78 28 01               JR Z,L0197
1616   0B7A 1C                  INC E
1617   0B7B 16 00       L0197:  LD D,00H
1618   0B7D C5                  PUSH BC
1619   0B7E 21 00 00            LD HL,0000H
1620   0B81 DD 21 C3 0B         LD IX,0BC3H
1621   0B85 CD 50 09            CALL L0171
1622   0B88 C1                  POP BC
1623   0B89 D8                  RET C
1624   0B8A CD C5 0B            CALL L0198
1625   0B8D 3A D6 68            LD A,(68D6H)
1626   0B90 A7                  AND A
1627   0B91 28 11               JR Z,L0199
1628   0B93 4F                  LD C,A
1629   0B94 06 64               LD B,64H
1630   0B96 21 CC 6F            LD HL,6FCCH
1631   0B99 7E          L0201:  LD A,(HL)
1632   0B9A 23                  INC HL
1633   0B9B B6                  OR (HL)
1634   0B9C 28 03               JR Z,L0200
1635   0B9E 7E                  LD A,(HL)
1636   0B9F 81                  ADD A,C
1637   0BA0 77                  LD (HL),A
1638   0BA1 23          L0200:  INC HL
1639   0BA2 10 F5               DJNZ L0201
1640   0BA4 C3 64 09    L0199:  JP L0181
1641   0BA7 F5          L0195:  PUSH AF
1642   0BA8 CD 64 09            CALL L0181
1643   0BAB F1                  POP AF
1644   0BAC A7                  AND A
1645   0BAD C9                  RET
1646   0BAE 06 00               LD B,00H
1647   0BB0 21 20 69            LD HL,6920H
1648   0BB3 3A DD 68            LD A,(68DDH)
1649   0BB6 A7                  AND A
1650   0BB7 28 0F               JR Z,L0202
1651   0BB9 23          L0203:  INC HL
1652   0BBA 05                  DEC B
1653   0BBB 3D                  DEC A
1654   0BBC 20 FB               JR NZ,L0203
1655   0BBE 32 DD 68            LD (68DDH),A
1656   0BC1 18 05               JR L0202
1657   0BC3 06 00               LD B,00H
1658   0BC5 21 20 69    L0198:  LD HL,6920H
1659   0BC8 ED 5B D7 68 L0202:  LD DE,(68D7H)
1660   0BCC 78                  LD A,B
1661   0BCD ED 4B D9 68         LD BC,(68D9H)
1662   0BD1 ED A0       L0196:  LDI
1663   0BD3 EA DA 0B            JP PE,L0204
1664   0BD6 ED 5B DB 68         LD DE,(68DBH)
1665   0BDA 3D          L0204:  DEC A
1666   0BDB 20 F4               JR NZ,L0196
1667   0BDD ED 53 D7 68         LD (68D7H),DE
1668   0BE1 ED 43 D9 68         LD (68D9H),BC
1669   0BE5 C9                  RET
1670   0BE6 C5          L0166:  PUSH BC
1671   0BE7 EB                  EX DE,HL
1672   0BE8 37                  SCF
1673   0BE9 ED 52               SBC HL,DE
1674   0BEB EB                  EX DE,HL
1675   0BEC D8                  RET C
1676   0BED 13                  INC DE
1677   0BEE 7C          L0208:  LD A,H
1678   0BEF B5                  OR L
1679   0BF0 28 0C               JR Z,L0205
1680   0BF2 2B                  DEC HL
1681   0BF3 06 00               LD B,00H
1682   0BF5 E5                  PUSH HL
1683   0BF6 CD 23 0C            CALL L0206
1684   0BF9 E1                  POP HL
1685   0BFA 38 10               JR C,L0207
1686   0BFC 18 F0               JR L0208
1687   0BFE 1B          L0205:  DEC DE
1688   0BFF 7A                  LD A,D
1689   0C00 E6 7F               AND 7FH
1690   0C02 B3                  OR E
1691   0C03 28 15               JR Z,L0209
1692   0C05 06 00               LD B,00H
1693   0C07 CD 23 0C            CALL L0206
1694   0C0A 30 02               JR NC,L0210
1695   0C0C C1          L0207:  POP BC
1696   0C0D C9                  RET
1697   0C0E D5          L0210:  PUSH DE
1698   0C0F B7                  OR A
1699   0C10 CB 7A               BIT 7,D
1700   0C12 CC 21 0C            CALL Z,L0211
1701   0C15 D1                  POP DE
1702   0C16 38 F4               JR C,L0207
1703   0C18 18 E4               JR L0205
1704   0C1A C1          L0209:  POP BC
1705   0C1B CD 23 0C            CALL L0206
1706   0C1E D8                  RET C
1707   0C1F AF                  XOR A
1708   0C20 C9                  RET
1709   0C21 DD E9       L0211:  JP (IX)
1710   0C23 21 20 69    L0206:  LD HL,6920H
1711   0C26 CD 33 0C    L0213:  CALL L0212
1712   0C29 D8                  RET C
1713   0C2A 77                  LD (HL),A
1714   0C2B 23                  INC HL
1715   0C2C 10 F8               DJNZ L0213
1716   0C2E C9                  RET
1717   0C2F CD 93 0C    L0215:  CALL L0214
1718   0C32 D8                  RET C
1719   0C33 DB 53       L0212:  IN A,(53H)
1720   0C35 E6 01               AND 01H
1721   0C37 28 F6               JR Z,L0215
1722   0C39 3E 01               LD A,01H
1723   0C3B D3 53               OUT (53H),A
1724   0C3D DB 53               IN A,(53H)
1725   0C3F E6 10               AND 10H
1726   0C41 3E 02               LD A,02H
1727   0C43 37                  SCF
1728   0C44 C0                  RET NZ
1729   0C45 DB 52               IN A,(52H)
1730   0C47 A7                  AND A
1731   0C48 C9                  RET
1732   0C49 11 9C 0C    L0168:  LD DE,0C9CH
1733   0C4C CD D5 0F            CALL L0007
1734   0C4F CD 68 0C            CALL L0216
1735   0C52 CD 93 0C    L0217:  CALL L0214
1736   0C55 D8                  RET C
1737   0C56 3E 10               LD A,10H
1738   0C58 D3 53               OUT (53H),A
1739   0C5A DB 53               IN A,(53H)
1740   0C5C E6 10               AND 10H
1741   0C5E 20 F2               JR NZ,L0217
1742   0C60 11 AE 0C            LD DE,0CAEH
1743   0C63 CD D5 0F            CALL L0007
1744   0C66 AF                  XOR A
1745   0C67 C9                  RET
1746   0C68 3E 03       L0216:  LD A,03H
1747   0C6A D3 49               OUT (49H),A
1748   0C6C D3 4A               OUT (4AH),A
1749   0C6E 3E 07               LD A,07H
1750   0C70 D3 4A               OUT (4AH),A
1751   0C72 3E 2B               LD A,2BH
1752   0C74 D3 4A               OUT (4AH),A
1753   0C76 21 89 0C            LD HL,0C89H
1754   0C79 01 53 0A            LD BC,0A53H
1755   0C7C ED B3               OTIR
1756   0C7E 06 04               LD B,04H
1757   0C80 DB 52       L0218:  IN A,(52H)
1758   0C82 10 FC               DJNZ L0218
1759   0C84 3E 30               LD A,30H
1760   0C86 D3 53               OUT (53H),A
1761   0C88 C9                  RET
1762   0C89 04                  INC B
1763   0C8A 11 06 9D            LD DE,9D06H
1764   0C8D 07                  RLCA
1765   0C8E 65                  LD H,L
1766   0C8F 05                  DEC B
1767   0C90 E0                  RET PO
1768   0C91 03                  INC BC
1769   0C92 D1                  POP DE
1770   0C93 DB 58       L0214:  IN A,(58H)
1771   0C95 E6 20               AND 20H
1772   0C97 C0                  RET NZ
1773   0C98 3E 01               LD A,01H
1774   0C9A 37                  SCF
1775   0C9B C9                  RET
1776   0C9C 80                  ADD A,B
1777   0C9D 57                  LD D,A
1778   0C9E 61                  LD H,C
1779   0C9F 69                  LD L,C
1780   0CA0 74                  LD (HL),H
1781   0CA1 69                  LD L,C
1782   0CA2 6E                  LD L,(HL)
1783   0CA3 67                  LD H,A
1784   0CA4 20 66               JR NZ,L0219
1785   0CA6 6F                  LD L,A
1786   0CA7 72                  LD (HL),D
1787   0CA8 20 53               JR NZ,L0220
1788   0CAA 79                  LD A,C
1789   0CAB 6E                  LD L,(HL)
1790   0CAC 63                  LD H,E
1791   0CAD FE 80               CP 80H
1792   0CAF 52                  LD D,D
1793   0CB0 65                  LD H,L
1794   0CB1 61                  LD H,C
1795   0CB2 64                  LD H,H
1796   0CB3 69                  LD L,C
1797   0CB4 6E                  LD L,(HL)
1798   0CB5 67                  LD H,A
1799   0CB6 20 74               JR NZ,L0221
1800   0CB8 68                  LD L,B
1801   0CB9 65                  LD H,L
1802   0CBA 20 54               JR NZ,L0222
1803   0CBC 61                  LD H,C
1804   0CBD 70                  LD (HL),B
1805   0CBE 65                  LD H,L
1806   0CBF FE CD               CP 0CDH
1807   0CC1 CD 0C F5            CALL L0223
1808   0CC4 CD CD 0C            CALL L0224
1809   0CC7 FE F7               CP 0F7H
1810   0CC9 20 F9               JR NZ,L0225
1811   0CCB F1                  POP AF
1812   0CCC C9                  RET
1813   0CCD CD 48 0E    L0224:  CALL L0226
1814   0CD0 D8                  RET C
1815   0CD1 CD D6 0C            CALL L0227
1816   0CD4 18 F7               JR L0224
1817   0CD6 DB 58       L0227:  IN A,(58H)
1818   0CD8 E6 20               AND 20H
1819   0CDA C0                  RET NZ
1820   0CDB 3E 01               LD A,01H
1821   0CDD F5          L0232:  PUSH AF
1822   0CDE CD 20 0D            CALL L0169
1823   0CE1 F1                  POP AF
1824   0CE2 37                  SCF
1825   0CE3 DD F9               LD SP,IX
1826   0CE5 C9                  RET
1827   0CE6 3E 00       L0238:  LD A,00H
1828   0CE8 CD 22 0D            CALL L0228
1829   0CEB CD 01 0D            CALL L0229
1830   0CEE CD C3 0C            CALL L0230
1831   0CF1 4F                  LD C,A
1832   0CF2 E6 BC               AND 0BCH
1833   0CF4 20 1C               JR NZ,L0231
1834   0CF6 CB 71               BIT 6,C
1835   0CF8 28 18               JR Z,L0231
1836   0CFA CB 41               BIT 0,C
1837   0CFC 3E 09               LD A,09H
1838   0CFE 28 DD               JR Z,L0232
1839   0D00 C9                  RET
1840   0D01 01 00 30    L0229:  LD BC,3000H
1841   0D04 C5          L0233:  PUSH BC
1842   0D05 CD 48 0E            CALL L0226
1843   0D08 C1                  POP BC
1844   0D09 D8                  RET C
1845   0D0A CD D6 0C            CALL L0227
1846   0D0D 0B                  DEC BC
1847   0D0E 78                  LD A,B
1848   0D0F B1                  OR C
1849   0D10 20 F2       L0222:  JR NZ,L0233
1850   0D12 3E 08       L0231:  LD A,08H
1851   0D14 18 C7               JR L0232
1852   0D16 CD C0 0C    L0249:  CALL L0234
1853   0D19 FE 20               CP 20H
1854   0D1B C8                  RET Z
1855   0D1C 3E 02               LD A,02H
1856   0D1E 18 BD               JR L0232
1857   0D20 3E 01       L0169:  LD A,01H
1858   0D22 CD 26 0E    L0228:  CALL L0235
1859   0D25 CD 3B 0E            CALL L0236
1860   0D28 AF                  XOR A
1861   0D29 C9                  RET
1862   0D2A CD 09 0E    L0167:  CALL L0237
1863   0D2D CD E6 0C            CALL L0238
1864   0D30 11 B3 0D            LD DE,0DB3H
1865   0D33 CD D5 0F            CALL L0007
1866   0D36 AF                  XOR A
1867   0D37 C9                  RET
1868   0D38 CD 0F 0E    L0165:  CALL L0239
1869   0D3B EB                  EX DE,HL
1870   0D3C 22 EF 68            LD (68EFH),HL
1871   0D3F CB BC               RES 7,H
1872   0D41 37                  SCF
1873   0D42 ED 52               SBC HL,DE
1874   0D44 23                  INC HL
1875   0D45 D8                  RET C
1876   0D46 EB                  EX DE,HL
1877   0D47 CD AA 0D            CALL L0240
1878   0D4A EB                  EX DE,HL
1879   0D4B CD 74 0D            CALL L0241
1880   0D4E E5                  PUSH HL
1881   0D4F 3E 04               LD A,04H
1882   0D51 CD 8D 0D            CALL L0242
1883   0D54 CD D0 0D            CALL L0243
1884   0D57 CD A7 0D            CALL L0244
1885   0D5A CD 1A 0E            CALL L0245
1886   0D5D 20 0D               JR NZ,L0246
1887   0D5F E1                  POP HL
1888   0D60 7C                  LD A,H
1889   0D61 B5                  OR L
1890   0D62 C8                  RET Z
1891   0D63 CD 74 0D            CALL L0241
1892   0D66 E5                  PUSH HL
1893   0D67 3E 04               LD A,04H
1894   0D69 CD 8D 0D            CALL L0242
1895   0D6C 21 54 0D    L0246:  LD HL,0D54H
1896   0D6F E5                  PUSH HL
1897   0D70 2A ED 68            LD HL,(68EDH)
1898   0D73 E9                  JP (HL)
1899   0D74 11 18 00    L0241:  LD DE,0018H
1900   0D77 B7                  OR A
1901   0D78 ED 52               SBC HL,DE
1902   0D7A 30 05               JR NC,L0247
1903   0D7C 19                  ADD HL,DE
1904   0D7D EB                  EX DE,HL
1905   0D7E 21 00 00            LD HL,0000H
1906   0D81 3A F0 68    L0247:  LD A,(68F0H)
1907   0D84 E6 80               AND 80H
1908   0D86 B2                  OR D
1909   0D87 57                  LD D,A
1910   0D88 ED 53 EF 68         LD (68EFH),DE
1911   0D8C C9                  RET
1912   0D8D CD 26 0E    L0242:  CALL L0235
1913   0D90 3A F2 68            LD A,(68F2H)
1914   0D93 CD 3D 0E            CALL L0248
1915   0D96 3A F1 68            LD A,(68F1H)
1916   0D99 CD 3D 0E            CALL L0248
1917   0D9C 7B                  LD A,E
1918   0D9D CD 3D 0E            CALL L0248
1919   0DA0 CD 3B 0E            CALL L0236
1920   0DA3 CD 16 0D            CALL L0249
1921   0DA6 C9                  RET
1922   0DA7 21 01 00    L0244:  LD HL,0001H
1923   0DAA ED 4B F1 68 L0240:  LD BC,(68F1H)
1924   0DAE 09                  ADD HL,BC
1925   0DAF 22 F1 68            LD (68F1H),HL
1926   0DB2 C9                  RET
1927   0DB3 10 52               DJNZ L0250
1928   0DB5 65                  LD H,L
1929   0DB6 61                  LD H,C
1930   0DB7 64                  LD H,H
1931   0DB8 69                  LD L,C
1932   0DB9 6E                  LD L,(HL)
1933   0DBA 67                  LD H,A
1934   0DBB 20 74               JR NZ,L0251
1935   0DBD 68                  LD L,B
1936   0DBE 65                  LD H,L
1937   0DBF 20 44               JR NZ,L0252
1938   0DC1 69                  LD L,C
1939   0DC2 73                  LD (HL),E
1940   0DC3 6B                  LD L,E
1941   0DC4 93                  SUB E
1942   0DC5 4E                  LD C,(HL)
1943   0DC6 4F                  LD C,A
1944   0DC7 20 3D               JR NZ,L0253
1945   0DC9 20 41               JR NZ,L0254
1946   0DCB 62                  LD H,D
1947   0DCC 6F                  LD L,A
1948   0DCD 72                  LD (HL),D
1949   0DCE 74                  LD (HL),H
1950   0DCF FE 21               CP 21H
1951   0DD1 20 69               JR NZ,L0255
1952   0DD3 E5                  PUSH HL
1953   0DD4 3E 05               LD A,05H
1954   0DD6 CD 22 0D            CALL L0228
1955   0DD9 CD FF 0D            CALL L0256
1956   0DDC E1                  POP HL
1957   0DDD 0E 00               LD C,00H
1958   0DDF 06 01       L0259:  LD B,01H
1959   0DE1 CD FF 0D            CALL L0256
1960   0DE4 EB          L0258:  EX DE,HL
1961   0DE5 67                  LD H,A
1962   0DE6 CD FF 0D            CALL L0256
1963   0DE9 6F                  LD L,A
1964   0DEA CB 15               RL L
1965   0DEC C5                  PUSH BC
1966   0DED 29          L0257:  ADD HL,HL
1967   0DEE 10 FD               DJNZ L0257
1968   0DF0 C1                  POP BC
1969   0DF1 EB                  EX DE,HL
1970   0DF2 72                  LD (HL),D
1971   0DF3 23                  INC HL
1972   0DF4 0D                  DEC C
1973   0DF5 CA C3 0C            JP Z,L0230
1974   0DF8 04                  INC B
1975   0DF9 CB 58               BIT 3,B
1976   0DFB 28 E7               JR Z,L0258
1977   0DFD 18 E0               JR L0259
1978   0DFF C5          L0256:  PUSH BC
1979   0E00 D5                  PUSH DE
1980   0E01 E5                  PUSH HL
1981   0E02 CD CD 0C            CALL L0224
1982   0E05 E1          L0252:  POP HL
1983   0E06 D1          L0253:  POP DE
1984   0E07 C1          L0250:  POP BC
1985   0E08 C9                  RET
1986   0E09 21 00 00    L0237:  LD HL,0000H
1987   0E0C 22 F1 68    L0254:  LD (68F1H),HL
1988   0E0F DD 22 ED 68 L0239:  LD (68EDH),IX
1989   0E13 DD 21 02 00         LD IX,0002H
1990   0E17 DD 39               ADD IX,SP
1991   0E19 C9                  RET
1992   0E1A 2A EF 68    L0245:  LD HL,(68EFH)
1993   0E1D 2B                  DEC HL
1994   0E1E 7C                  LD A,H
1995   0E1F E6 7F               AND 7FH
1996   0E21 B5                  OR L
1997   0E22 22 EF 68            LD (68EFH),HL
1998   0E25 C9                  RET
1999   0E26 F5          L0235:  PUSH AF
2000   0E27 3E F0               LD A,0F0H
2001   0E29 CD 3D 0E            CALL L0248
2002   0E2C 3E 18               LD A,18H
2003   0E2E CD 3D 0E            CALL L0248
2004   0E31 3E 01       L0251:  LD A,01H
2005   0E33 CD 3D 0E            CALL L0248
2006   0E36 F1                  POP AF
2007   0E37 CD 3D 0E            CALL L0248
2008   0E3A C9                  RET
2009   0E3B 3E F7       L0236:  LD A,0F7H
2010   0E3D 4F                  LD C,A
2011   0E3E DB 51               IN A,(51H)
2012   0E40 CB 57               BIT 2,A
2013   0E42 28 FA               JR Z,L0260
2014   0E44 79                  LD A,C
2015   0E45 D3 50               OUT (50H),A
2016   0E47 C9                  RET
2017   0E48 DB 51       L0226:  IN A,(51H)
2018   0E4A E6 01               AND 01H
2019   0E4C C8                  RET Z
2020   0E4D DB 50               IN A,(50H)
2021   0E4F B7                  OR A
2022   0E50 FA 5F 0E            JP M,L0261
2023   0E53 47          L0263:  LD B,A
2024   0E54 3A 0E 69            LD A,(690EH)
2025   0E57 FE 03               CP 03H
2026   0E59 78                  LD A,B
2027   0E5A 37                  SCF
2028   0E5B C8                  RET Z
2029   0E5C B7                  OR A
2030   0E5D 37                  SCF
2031   0E5E F8                  RET M
2032   0E5F F5          L0261:  PUSH AF
2033   0E60 DD E5               PUSH IX
2034   0E62 FD E5               PUSH IY
2035   0E64 CD 72 0E            CALL L0262
2036   0E67 FD E1               POP IY
2037   0E69 DD E1               POP IX
2038   0E6B F1                  POP AF
2039   0E6C FE F7               CP 0F7H
2040   0E6E 28 E3               JR Z,L0263
2041   0E70 B7                  OR A
2042   0E71 C9                  RET
2043   0E72 B7          L0262:  OR A
2044   0E73 F2 82 0E            JP P,L0264
2045   0E76 FE F8               CP 0F8H
2046   0E78 C8                  RET Z
2047   0E79 D0                  RET NC
2048   0E7A 32 A9 68            LD (68A9H),A
2049   0E7D AF                  XOR A
2050   0E7E 32 0E 69            LD (690EH),A
2051   0E81 C9                  RET
2052   0E82 47          L0264:  LD B,A
2053   0E83 3A A9 68            LD A,(68A9H)
2054   0E86 4F                  LD C,A
2055   0E87 FE F0               CP 0F0H
2056   0E89 C0                  RET NZ
2057   0E8A 3A 0E 69            LD A,(690EH)
2058   0E8D FE 02               CP 02H
2059   0E8F D0                  RET NC
2060   0E90 CD 9F 0E            CALL L0265
2061   0E93 EB                  EX DE,HL
2062   0E94 36 02               LD (HL),02H
2063   0E96 FE 01               CP 01H
2064   0E98 C0                  RET NZ
2065   0E99 78                  LD A,B
2066   0E9A FE 18               CP 18H
2067   0E9C C0                  RET NZ
2068   0E9D 34                  INC (HL)
2069   0E9E C9                  RET
2070   0E9F 21 0F 69    L0265:  LD HL,690FH
2071   0EA2 11 0E 69            LD DE,690EH
2072   0EA5 1A                  LD A,(DE)
2073   0EA6 B7                  OR A
2074   0EA7 20 05               JR NZ,L0266
2075   0EA9 3C                  INC A
2076   0EAA 12                  LD (DE),A
2077   0EAB 70                  LD (HL),B
2078   0EAC E1                  POP HL
2079   0EAD C9                  RET
2080   0EAE AF          L0266:  XOR A
2081   0EAF 12                  LD (DE),A
2082   0EB0 78                  LD A,B
2083   0EB1 46                  LD B,(HL)
2084   0EB2 C9                  RET
2085   0EB3 06 C8       L0133:  LD B,0C8H
2086   0EB5 21 04 6F            LD HL,6F04H
2087   0EB8 36 00       L0267:  LD (HL),00H
2088   0EBA 23                  INC HL
2089   0EBB 10 FB               DJNZ L0267
2090   0EBD 06 C8               LD B,0C8H
2091   0EBF 21 CC 6F            LD HL,6FCCH
2092   0EC2 36 00       L0268:  LD (HL),00H
2093   0EC4 23                  INC HL
2094   0EC5 10 FB               DJNZ L0268
2095   0EC7 21 94 71            LD HL,7194H
2096   0ECA 22 00 6F            LD (6F00H),HL
2097   0ECD 21 FF FF            LD HL,0FFFFH
2098   0ED0 22 02 6F            LD (6F02H),HL
2099   0ED3 22 FE 6E            LD (6EFEH),HL
2100   0ED6 C9                  RET
2101   0ED7 21 F0 6B    L0130:  LD HL,6BF0H
2102   0EDA 11 7F 6C            LD DE,6C7FH
2103   0EDD 01 8C 00            LD BC,008CH
2104   0EE0 36 00               LD (HL),00H
2105   0EE2 ED B0               LDIR
2106   0EE4 3E FF               LD A,0FFH
2107   0EE6 32 7C 6C            LD (6C7CH),A
2108   0EE9 3E 1F               LD A,1FH
2109   0EEB 32 7D 6C            LD (6C7DH),A
2110   0EEE 21 4E 0F            LD HL,0F4EH
2111   0EF1 11 7E 6C            LD DE,6C7EH
2112   0EF4 01 0A 00            LD BC,000AH
2113   0EF7 ED B0               LDIR
2114   0EF9 21 7E 6C            LD HL,6C7EH
2115   0EFC 01 36 01            LD BC,0136H
2116   0EFF ED B0               LDIR
2117   0F01 06 04               LD B,04H
2118   0F03 21 0A 00    L0271:  LD HL,000AH
2119   0F06 78                  LD A,B
2120   0F07 3D                  DEC A
2121   0F08 CB 4F               BIT 1,A
2122   0F0A 28 02               JR Z,L0269
2123   0F0C CB D7               SET 2,A
2124   0F0E 32 D6 68    L0269:  LD (68D6H),A
2125   0F11 E5                  PUSH HL
2126   0F12 C5                  PUSH BC
2127   0F13 CD F3 0A            CALL L0182
2128   0F16 C1                  POP BC
2129   0F17 E1                  POP HL
2130   0F18 7D          L0270:  LD A,L
2131   0F19 D3 98               OUT (98H),A
2132   0F1B 7C                  LD A,H
2133   0F1C D3 9C               OUT (9CH),A
2134   0F1E 3E 80               LD A,80H
2135   0F20 D3 41               OUT (41H),A
2136   0F22 AF                  XOR A
2137   0F23 D3 40               OUT (40H),A
2138   0F25 2B                  DEC HL
2139   0F26 7C                  LD A,H
2140   0F27 B5                  OR L
2141   0F28 20 EE               JR NZ,L0270
2142   0F2A 10 D7               DJNZ L0271
2143   0F2C 21 30 6B            LD HL,6B30H
2144   0F2F 3E 20               LD A,20H
2145   0F31 06 04               LD B,04H
2146   0F33 16 C4               LD D,0C4H
2147   0F35 0E 08       L0273:  LD C,08H
2148   0F37 1E B1               LD E,0B1H
2149   0F39 72          L0272:  LD (HL),D
2150   0F3A 23                  INC HL
2151   0F3B 73                  LD (HL),E
2152   0F3C 23                  INC HL
2153   0F3D 36 A0               LD (HL),0A0H
2154   0F3F 23                  INC HL
2155   0F40 77                  LD (HL),A
2156   0F41 23                  INC HL
2157   0F42 77                  LD (HL),A
2158   0F43 23                  INC HL
2159   0F44 77                  LD (HL),A
2160   0F45 23                  INC HL
2161   0F46 1C                  INC E
2162   0F47 0D                  DEC C
2163   0F48 20 EF               JR NZ,L0272
2164   0F4A 15                  DEC D
2165   0F4B 10 E8               DJNZ L0273
2166   0F4D C9                  RET
2167   0F4E 17                  RLA
2168   0F4F 80                  ADD A,B
2169   0F50 00                  NOP
2170   0F51 00                  NOP
2171   0F52 FD                  .DB 0FDH ;UNRECOGNIZED
2172   0F53 FF                  RST 38H
2173   0F54 00                  NOP
2174   0F55 00                  NOP
2175   0F56 FD                  .DB 0FDH ;UNRECOGNIZED
2176   0F57 FF                  RST 38H
2177   0F58 21 B4 0F    L0134:  LD HL,0FB4H
2178   0F5B CD A8 0F            CALL L0274
2179   0F5E CD AE 01            CALL L0010
2180   0F61 C3 97 0F            JP L0275
2181   0F64 21 BF 0F    L0135:  LD HL,0FBFH
2182   0F67 CD A8 0F            CALL L0274
2183   0F6A CD AE 01            CALL L0010
2184   0F6D 20 28               JR NZ,L0275
2185   0F6F 21 CA 0F            LD HL,0FCAH
2186   0F72 CD A8 0F            CALL L0274
2187   0F75 06 04               LD B,04H
2188   0F77 C5          L0277:  PUSH BC
2189   0F78 CD AE 01            CALL L0010
2190   0F7B C1                  POP BC
2191   0F7C 20 19               JR NZ,L0275
2192   0F7E FD 7E 03            LD A,(IY+03H)
2193   0F81 3C                  INC A
2194   0F82 FE 82               CP 82H
2195   0F84 20 02               JR NZ,L0276
2196   0F86 3E 86               LD A,86H
2197   0F88 FD 77 03    L0276:  LD (IY+03H),A
2198   0F8B FD 7E 0A            LD A,(IY+0AH)
2199   0F8E C6 1C               ADD A,1CH
2200   0F90 FD 77 0A            LD (IY+0AH),A
2201   0F93 10 E2               DJNZ L0277
2202   0F95 3E 80               LD A,80H
2203   0F97 D6 80       L0275:  SUB 80H
2204   0F99 C8                  RET Z
2205   0F9A C6 C3               ADD A,0C3H
2206   0F9C FE 06               CP 06H
2207   0F9E C8                  RET Z
2208   0F9F C6 04               ADD A,04H
2209   0FA1 FE 09               CP 09H
2210   0FA3 C8                  RET Z
2211   0FA4 3E 07               LD A,07H
2212   0FA6 37                  SCF
2213   0FA7 C9                  RET
2214   0FA8 11 7B 61    L0274:  LD DE,617BH
2215   0FAB D5                  PUSH DE
2216   0FAC FD E1               POP IY
2217   0FAE 01 0B 00            LD BC,000BH
2218   0FB1 ED B0               LDIR
2219   0FB3 C9                  RET
2220   0FB4 0E 00               LD C,00H
2221   0FB6 6F                  LD L,A
2222   0FB7 00                  NOP
2223   0FB8 00                  NOP
2224   0FB9 9A                  SBC A,D
2225   0FBA 00                  NOP
2226   0FBB 00                  NOP
2227   0FBC 00                  NOP
2228   0FBD 00                  NOP
2229   0FBE 0C                  INC C
2230   0FBF 0E 30               LD C,30H
2231   0FC1 6B                  LD L,E
2232   0FC2 00                  NOP
2233   0FC3 00                  NOP
2234   0FC4 0E 00               LD C,00H
2235   0FC6 00                  NOP
2236   0FC7 00                  NOP
2237   0FC8 00                  NOP
2238   0FC9 17                  RLA
2239   0FCA 0E 00               LD C,00H
2240   0FCC 00                  NOP
2241   0FCD 80                  ADD A,B
2242   0FCE 00                  NOP
2243   0FCF 00                  NOP
2244   0FD0 01 00 00            LD BC,0000H
2245   0FD3 00                  NOP
2246   0FD4 18 1A               JR L0278
2247   0FD6 13                  INC DE
2248   0FD7 FE FE               CP 0FEH
2249   0FD9 C8                  RET Z
2250   0FDA 47                  LD B,A
2251   0FDB E6 60               AND 60H
2252   0FDD 78                  LD A,B
2253   0FDE 20 05               JR NZ,L0279
2254   0FE0 CD EA 0F            CALL L0280
2255   0FE3 18 F0               JR L0007
2256   0FE5 CD 71 10    L0279:  CALL L0281
2257   0FE8 18 EB               JR L0007
2258   0FEA FE 10       L0280:  CP 10H
2259   0FEC 28 75               JR Z,L0282
2260   0FEE FE 17               CP 17H
2261   0FF0 28 16       L0278:  JR Z,L0283
2262   0FF2 FE 18               CP 18H
2263   0FF4 28 17               JR Z,L0284
2264   0FF6 FE 19               CP 19H
2265   0FF8 28 23               JR Z,L0285
2266   0FFA FE 15               CP 15H
2267   0FFC 28 4A               JR Z,L0286
2268   0FFE FE 90               CP 90H
2269   1000 38 63               JR C,L0005
2270   1002 E6 0F               AND 0FH
2271   1004 F6 C0               OR 0C0H
2272   1006 18 5D               JR L0005
2273   1008 CD 40 10    L0283:  CALL L0287
2274   100B 18 62               JR L0288
2275   100D CD 40 10    L0284:  CALL L0287
2276   1010 2E 0A               LD L,0AH
2277   1012 CD 38 10            CALL L0289
2278   1015 F5                  PUSH AF
2279   1016 78                  LD A,B
2280   1017 CD 6F 10            CALL L0288
2281   101A F1                  POP AF
2282   101B 18 52               JR L0288
2283   101D CD 40 10    L0285:  CALL L0287
2284   1020 2E 64               LD L,64H
2285   1022 CD 38 10            CALL L0289
2286   1025 F5                  PUSH AF
2287   1026 78                  LD A,B
2288   1027 CD 6F 10            CALL L0288
2289   102A F1                  POP AF
2290   102B 2E 0A               LD L,0AH
2291   102D CD 38 10            CALL L0289
2292   1030 F5                  PUSH AF
2293   1031 78                  LD A,B
2294   1032 CD 6F 10            CALL L0288
2295   1035 F1                  POP AF
2296   1036 18 37               JR L0288
2297   1038 06 FF       L0289:  LD B,0FFH
2298   103A 04          L0290:  INC B
2299   103B 95                  SUB L
2300   103C 30 FC               JR NC,L0290
2301   103E 85                  ADD A,L
2302   103F C9                  RET
2303   1040 EB          L0287:  EX DE,HL
2304   1041 5E                  LD E,(HL)
2305   1042 23                  INC HL
2306   1043 56                  LD D,(HL)
2307   1044 23                  INC HL
2308   1045 EB                  EX DE,HL
2309   1046 7E                  LD A,(HL)
2310   1047 C9                  RET
2311   1048 FD E5       L0286:  PUSH IY
2312   104A E1                  POP HL
2313   104B 7C                  LD A,H
2314   104C CD 50 10            CALL L0291
2315   104F 7D                  LD A,L
2316   1050 F5          L0291:  PUSH AF
2317   1051 0F                  RRCA
2318   1052 0F                  RRCA
2319   1053 0F                  RRCA
2320   1054 0F                  RRCA
2321   1055 CD 59 10            CALL L0292
2322   1058 F1                  POP AF
2323   1059 E6 0F       L0292:  AND 0FH
2324   105B FE 0A               CP 0AH
2325   105D 38 02               JR C,L0293
2326   105F C6 07               ADD A,07H
2327   1061 18 0C       L0293:  JR L0288
2328   1063 3E 01       L0282:  LD A,01H
2329   1065 0E A2       L0005:  LD C,0A2H
2330   1067 ED 70       L0294:  .DB 0EDH 70H ;UNRECOGNIZED
2331   1069 FA 67 10            JP M,L0294
2332   106C D3 A0               OUT (0A0H),A
2333   106E C9                  RET
2334   106F C6 30       L0288:  ADD A,30H
2335   1071 0E A2       L0281:  LD C,0A2H
2336   1073 ED 70       L0295:  .DB 0EDH 70H ;UNRECOGNIZED
2337   1075 FA 73 10            JP M,L0295
2338   1078 D3 A1               OUT (0A1H),A
2339   107A C9                  RET
2340   107B CD A1 10    L0012:  CALL L0296
2341   107E CD 36 11            CALL L0297
2342   1081 CD 8E 11            CALL L0298
2343   1084 CD 06 13    L0308:  CALL L0299
2344   1087 CD 4A 15            CALL L0300
2345   108A CD 9C 15            CALL L0301
2346   108D CD E0 15            CALL L0302
2347   1090 CD 4B 16            CALL L0303
2348   1093 CD AB 16            CALL L0304
2349   1096 CD 47 17            CALL L0305
2350   1099 CD 93 18            CALL L0306
2351   109C CD 20 19    L0329:  CALL L0307
2352   109F 18 E3               JR L0308
2353   10A1 11 F1 10    L0296:  LD DE,10F1H
2354   10A4 CD D5 0F            CALL L0007
2355   10A7 DD E1               POP IX
2356   10A9 06 01               LD B,01H
2357   10AB 21 00 20    L0312:  LD HL,2000H
2358   10AE 48                  LD C,B
2359   10AF 71          L0309:  LD (HL),C
2360   10B0 23                  INC HL
2361   10B1 CB 11               RL C
2362   10B3 7C                  LD A,H
2363   10B4 B5                  OR L
2364   10B5 20 F8               JR NZ,L0309
2365   10B7 21 00 20            LD HL,2000H
2366   10BA 48                  LD C,B
2367   10BB 7E          L0311:  LD A,(HL)
2368   10BC A9                  XOR C
2369   10BD 20 14               JR NZ,L0310
2370   10BF 23                  INC HL
2371   10C0 CB 11               RL C
2372   10C2 7C                  LD A,H
2373   10C3 B5                  OR L
2374   10C4 20 F5               JR NZ,L0311
2375   10C6 3E 2E               LD A,2EH
2376   10C8 D3 A1               OUT (0A1H),A
2377   10CA CB 10               RL B
2378   10CC 30 DD               JR NC,L0312
2379   10CE 11 22 11            LD DE,1122H
2380   10D1 18 10               JR L0313
2381   10D3 E6 0F       L0310:  AND 0FH
2382   10D5 3E 20               LD A,20H
2383   10D7 28 04               JR Z,L0314
2384   10D9 3C                  INC A
2385   10DA E5                  PUSH HL
2386   10DB FD E1               POP IY
2387   10DD 32 61 68    L0314:  LD (6861H),A
2388   10E0 11 07 11            LD DE,1107H
2389   10E3 CD D5 0F    L0313:  CALL L0007
2390   10E6 3E 7D               LD A,7DH
2391   10E8 D3 88               OUT (88H),A
2392   10EA CD 56 15    L0316:  CALL L0315
2393   10ED 28 FB               JR Z,L0316
2394   10EF DD E9               JP (IX)
2395   10F1 10 52               DJNZ L0317
2396   10F3 41                  LD B,C
2397   10F4 4D                  LD C,L
2398   10F5 20 74               JR NZ,L0318
2399   10F7 65                  LD H,L
2400   10F8 73                  LD (HL),E
2401   10F9 74                  LD (HL),H
2402   10FA 20 69               JR NZ,L0319
2403   10FC 6E                  LD L,(HL)
2404   10FD 90                  SUB B
2405   10FE 70                  LD (HL),B
2406   10FF 72                  LD (HL),D
2407   1100 6F                  LD L,A
2408   1101 67                  LD H,A
2409   1102 72                  LD (HL),D
2410   1103 65                  LD H,L
2411   1104 73                  LD (HL),E
2412   1105 73                  LD (HL),E
2413   1106 FE 10               CP 10H
2414   1108 52                  LD D,D
2415   1109 41                  LD B,C
2416   110A 4D                  LD C,L
2417   110B 20 65               JR NZ,L0320
2418   110D 72                  LD (HL),D
2419   110E 72                  LD (HL),D
2420   110F 6F                  LD L,A
2421   1110 72                  LD (HL),D
2422   1111 20 40               JR NZ,L0321
2423   1113 90                  SUB B
2424   1114 15                  DEC D
2425   1115 20 49               JR NZ,L0322
2426   1117 43                  LD B,E
2427   1118 31 18 61            LD SP,6118H
2428   111B 68                  LD L,B
2429   111C 20 42               JR NZ,L0322
2430   111E 61                  LD H,C
2431   111F 64                  LD H,H
2432   1120 3F                  CCF
2433   1121 FE 10               CP 10H
2434   1123 52                  LD D,D
2435   1124 41                  LD B,C
2436   1125 4D                  LD C,L
2437   1126 20 4F               JR NZ,L0323
2438   1128 4B                  LD C,E
2439   1129 90                  SUB B
2440   112A 50                  LD D,B
2441   112B 72                  LD (HL),D
2442   112C 65                  LD H,L
2443   112D 73                  LD (HL),E
2444   112E 73                  LD (HL),E
2445   112F 20 45               JR NZ,L0324
2446   1131 4E                  LD C,(HL)
2447   1132 54                  LD D,H
2448   1133 45                  LD B,L
2449   1134 52                  LD D,D
2450   1135 FE FD               CP 0FDH
2451   1137 21 00 00            LD HL,0000H
2452   113A 21 00 00            LD HL,0000H
2453   113D 16 00               LD D,00H
2454   113F 5E          L0325:  LD E,(HL)
2455   1140 23                  INC HL
2456   1141 FD 19               ADD IY,DE
2457   1143 7C                  LD A,H
2458   1144 FE 20               CP 20H
2459   1146 20 F7               JR NZ,L0325
2460   1148 11 6E 11            LD DE,116EH
2461   114B 3E 7F               LD A,7FH
2462   114D D3 88               OUT (88H),A
2463   114F 32 79 61            LD (6179H),A
2464   1152 CD D5 0F            CALL L0007
2465   1155 DB 58               IN A,(58H)
2466   1157 CB 77               BIT 6,A
2467   1159 C8                  RET Z
2468   115A CB 6F               BIT 5,A
2469   115C 20 F7               JR NZ,L0326
2470   115E CD 70 15            CALL L0327
2471   1161 DB 58               IN A,(58H)
2472   1163 CB 6F               BIT 5,A
2473   1165 28 FA       L0319:  JR Z,L0328
2474   1167 CD 70 15            CALL L0327
2475   116A F1                  POP AF
2476   116B C3 9C 10    L0318:  JP L0329
2477   116E 10 52               DJNZ L0330
2478   1170 4F                  LD C,A
2479   1171 4D                  LD C,L
2480   1172 20 43       L0320:  JR NZ,L0331
2481   1174 6B                  LD L,E
2482   1175 73                  LD (HL),E
2483   1176 75          L0324:  LD (HL),L
2484   1177 6D          L0323:  LD L,L
2485   1178 20 3D               JR NZ,L0331
2486   117A 20 15               JR NZ,L0332
2487   117C 90                  SUB B
2488   117D 31 3D 53            LD SP,533DH
2489   1180 6E                  LD L,(HL)
2490   1181 64                  LD H,H
2491   1182 20 52               JR NZ,L0333
2492   1184 41                  LD B,C
2493   1185 4D                  LD C,L
2494   1186 20 32               JR NZ,L0334
2495   1188 3D                  DEC A
2496   1189 44                  LD B,H
2497   118A 69                  LD L,C
2498   118B 73                  LD (HL),E
2499   118C 6B                  LD L,E
2500   118D FE 11               CP 11H
2501   118F AC                  XOR H
2502   1190 12                  LD (DE),A
2503   1191 CD D5 0F    L0332:  CALL L0007
2504   1194 AF                  XOR A
2505   1195 CD BF 11            CALL L0335
2506   1198 38 18               JR C,L0336
2507   119A 3E 01               LD A,01H
2508   119C CD BF 11            CALL L0335
2509   119F 38 11               JR C,L0336
2510   11A1 3E 06               LD A,06H
2511   11A3 CD BF 11            CALL L0335
2512   11A6 38 0A               JR C,L0336
2513   11A8 3E 07               LD A,07H
2514   11AA CD BF 11            CALL L0335
2515   11AD 38 03               JR C,L0336
2516   11AF 11 C6 12            LD DE,12C6H
2517   11B2 CD D5 0F    L0336:  CALL L0007
2518   11B5 3E 7D               LD A,7DH
2519   11B7 D3 88       L0331:  OUT (88H),A
2520   11B9 CD 56 15    L0337:  CALL L0315
2521   11BC 28 FB               JR Z,L0337
2522   11BE C9                  RET
2523   11BF 32 62 68    L0335:  LD (6862H),A
2524   11C2 CD 64 01    L0330:  CALL L0004
2525   11C5 21 00 00            LD HL,0000H
2526   11C8 2B          L0338:  DEC HL
2527   11C9 3E 07               LD A,07H
2528   11CB D3 94               OUT (94H),A
2529   11CD 7D                  LD A,L
2530   11CE D3 98               OUT (98H),A
2531   11D0 7C                  LD A,H
2532   11D1 D3 9C               OUT (9CH),A
2533   11D3 7D                  LD A,L
2534   11D4 0F                  RRCA
2535   11D5 9F                  SBC A,A
2536   11D6 D3 41       L0333:  OUT (41H),A
2537   11D8 7D                  LD A,L
2538   11D9 0F                  RRCA
2539   11DA 0F                  RRCA
2540   11DB 9F                  SBC A,A
2541   11DC D3 40               OUT (40H),A
2542   11DE 7C                  LD A,H
2543   11DF B5                  OR L
2544   11E0 C2 C8 11            JP NZ,L0338
2545   11E3 3E 2E               LD A,2EH
2546   11E5 D3 A1               OUT (0A1H),A
2547   11E7 11 00 01            LD DE,0100H
2548   11EA 21 00 00    L0345:  LD HL,0000H
2549   11ED 2B          L0344:  DEC HL
2550   11EE 3E 07               LD A,07H
2551   11F0 D3 94               OUT (94H),A
2552   11F2 7D                  LD A,L
2553   11F3 D3 98               OUT (98H),A
2554   11F5 7C                  LD A,H
2555   11F6 D3 9C               OUT (9CH),A
2556   11F8 CB 45               BIT 0,L
2557   11FA DB 41               IN A,(41H)
2558   11FC 28 01               JR Z,L0339
2559   11FE 2F                  CPL
2560   11FF AB          L0339:  XOR E
2561   1200 20 72               JR NZ,L0340
2562   1202 7D                  LD A,L
2563   1203 0F                  RRCA
2564   1204 9F                  SBC A,A
2565   1205 AA                  XOR D
2566   1206 D3 41               OUT (41H),A
2567   1208 CB 45               BIT 0,L
2568   120A 28 11               JR Z,L0341
2569   120C DB 40               IN A,(40H)
2570   120E CB 4D               BIT 1,L
2571   1210 28 01               JR Z,L0342
2572   1212 2F                  CPL
2573   1213 AB          L0342:  XOR E
2574   1214 20 63               JR NZ,L0343
2575   1216 7D                  LD A,L
2576   1217 0F                  RRCA
2577   1218 0F                  RRCA
2578   1219 9F                  SBC A,A
2579   121A AA                  XOR D
2580   121B D3 40               OUT (40H),A
2581   121D 7C          L0341:  LD A,H
2582   121E B5                  OR L
2583   121F C2 ED 11            JP NZ,L0344
2584   1222 5A                  LD E,D
2585   1223 CB 22               SLA D
2586   1225 7A                  LD A,D
2587   1226 B7                  OR A
2588   1227 20 C1               JR NZ,L0345
2589   1229 21 00 00            LD HL,0000H
2590   122C 01 00 00            LD BC,0000H
2591   122F 3E 07       L0346:  LD A,07H
2592   1231 D3 94               OUT (94H),A
2593   1233 7D                  LD A,L
2594   1234 D3 98               OUT (98H),A
2595   1236 7C                  LD A,H
2596   1237 D3 9C               OUT (9CH),A
2597   1239 AF                  XOR A
2598   123A D3 41               OUT (41H),A
2599   123C D3 40               OUT (40H),A
2600   123E ED A1               CPI
2601   1240 EA 2F 12            JP PE,L0346
2602   1243 3E 2E               LD A,2EH
2603   1245 D3 A1               OUT (0A1H),A
2604   1247 21 00 00            LD HL,0000H
2605   124A 01 00 00            LD BC,0000H
2606   124D 11 00 FF            LD DE,0FF00H
2607   1250 3E 07       L0348:  LD A,07H
2608   1252 D3 94               OUT (94H),A
2609   1254 7D                  LD A,L
2610   1255 D3 98               OUT (98H),A
2611   1257 0F                  RRCA
2612   1258 7C                  LD A,H
2613   1259 D3 9C               OUT (9CH),A
2614   125B 38 08               JR C,L0347
2615   125D DB 40               IN A,(40H)
2616   125F AB                  XOR E
2617   1260 20 17               JR NZ,L0343
2618   1262 7A                  LD A,D
2619   1263 D3 40               OUT (40H),A
2620   1265 DB 41       L0347:  IN A,(41H)
2621   1267 AB                  XOR E
2622   1268 20 0A       L0357:  JR NZ,L0340
2623   126A 7A                  LD A,D
2624   126B D3 41               OUT (41H),A
2625   126D ED A1               CPI
2626   126F EA 50 12            JP PE,L0348
2627   1272 AF                  XOR A
2628   1273 C9                  RET
2629   1274 01 A4 12    L0340:  LD BC,12A4H
2630   1277 18 03               JR L0349
2631   1279 01 9C 12    L0343:  LD BC,129CH
2632   127C E6 0F       L0349:  AND 0FH
2633   127E 20 01               JR NZ,L0350
2634   1280 03                  INC BC
2635   1281 E5          L0350:  PUSH HL
2636   1282 FD E1               POP IY
2637   1284 7D                  LD A,L
2638   1285 E6 01               AND 01H
2639   1287 07                  RLCA
2640   1288 6F                  LD L,A
2641   1289 3A 62 68            LD A,(6862H)
2642   128C E6 04               AND 04H
2643   128E B5                  OR L
2644   128F 6F                  LD L,A
2645   1290 26 00               LD H,00H
2646   1292 09                  ADD HL,BC
2647   1293 7E                  LD A,(HL)
2648   1294 32 63 68            LD (6863H),A
2649   1297 11 E4 12            LD DE,12E4H
2650   129A 37                  SCF
2651   129B C9                  RET
2652   129C 26 24               LD H,24H
2653   129E 26 24               LD H,24H
2654   12A0 27                  DAA
2655   12A1 25                  DEC H
2656   12A2 27                  DAA
2657   12A3 25                  DEC H
2658   12A4 2E 2F               LD L,2FH
2659   12A6 2C                  INC L
2660   12A7 2D                  DEC L
2661   12A8 2A 2B 28            LD HL,(282BH)
2662   12AB 29                  ADD HL,HL
2663   12AC 10 53               DJNZ L0351
2664   12AE 6E                  LD L,(HL)
2665   12AF 64                  LD H,H
2666   12B0 20 52               JR NZ,L0352
2667   12B2 41                  LD B,C
2668   12B3 4D                  LD C,L
2669   12B4 20 54               JR NZ,L0353
2670   12B6 65                  LD H,L
2671   12B7 73                  LD (HL),E
2672   12B8 74                  LD (HL),H
2673   12B9 20 69               JR NZ,L0354
2674   12BB 6E                  LD L,(HL)
2675   12BC 90                  SUB B
2676   12BD 50                  LD D,B
2677   12BE 72                  LD (HL),D
2678   12BF 6F                  LD L,A
2679   12C0 67                  LD H,A
2680   12C1 72                  LD (HL),D
2681   12C2 65                  LD H,L
2682   12C3 73                  LD (HL),E
2683   12C4 73                  LD (HL),E
2684   12C5 FE 10               CP 10H
2685   12C7 53                  LD D,E
2686   12C8 6F                  LD L,A
2687   12C9 75                  LD (HL),L
2688   12CA 6E                  LD L,(HL)
2689   12CB 64                  LD H,H
2690   12CC 20 4D               JR NZ,L0355
2691   12CE 65                  LD H,L
2692   12CF 6D                  LD L,L
2693   12D0 3A 20 4F            LD A,(4F20H)
2694   12D3 4B                  LD C,E
2695   12D4 20 20               JR NZ,L0356
2696   12D6 20 90               JR NZ,L0357
2697   12D8 50                  LD D,B
2698   12D9 72                  LD (HL),D
2699   12DA 65                  LD H,L
2700   12DB 73                  LD (HL),E
2701   12DC 73                  LD (HL),E
2702   12DD 20 45               JR NZ,L0354
2703   12DF 4E                  LD C,(HL)
2704   12E0 54                  LD D,H
2705   12E1 45                  LD B,L
2706   12E2 52                  LD D,D
2707   12E3 FE 10               CP 10H
2708   12E5 53                  LD D,E
2709   12E6 6E                  LD L,(HL)
2710   12E7 64                  LD H,H
2711   12E8 20 4D               JR NZ,L0358
2712   12EA 65                  LD H,L
2713   12EB 6D                  LD L,L
2714   12EC 20 45               JR NZ,L0359
2715   12EE 72                  LD (HL),D
2716   12EF 72                  LD (HL),D
2717   12F0 6F                  LD L,A
2718   12F1 72                  LD (HL),D
2719   12F2 20 40               JR NZ,L0360
2720   12F4 90                  SUB B
2721   12F5 17                  RLA
2722   12F6 62          L0356:  LD H,D
2723   12F7 68                  LD L,B
2724   12F8 15                  DEC D
2725   12F9 20 49               JR NZ,L0361
2726   12FB 43                  LD B,E
2727   12FC 31 18 63            LD SP,6318H
2728   12FF 68                  LD L,B
2729   1300 20 42               JR NZ,L0361
2730   1302 61                  LD H,C
2731   1303 64                  LD H,H
2732   1304 3F          L0352:  CCF
2733   1305 FE 11               CP 11H
2734   1307 74                  LD (HL),H
2735   1308 13                  INC DE
2736   1309 CD D5 0F            CALL L0007
2737   130C 0E 08               LD C,08H
2738   130E 3E 78               LD A,78H
2739   1310 0D                  DEC C
2740   1311 B1                  OR C
2741   1312 D3 88               OUT (88H),A
2742   1314 06 05               LD B,05H
2743   1316 DB 58               IN A,(58H)
2744   1318 17          L0363:  RLA
2745   1319 30 13               JR NC,L0362
2746   131B 10 FB       L0355:  DJNZ L0363
2747   131D 79                  LD A,C
2748   131E A7                  AND A
2749   131F 20 ED               JR NZ,L0364
2750   1321 DB 58               IN A,(58H)
2751   1323 1F                  RRA
2752   1324 30 08       L0354:  JR NC,L0362
2753   1326 05                  DEC B
2754   1327 1F                  RRA
2755   1328 30 04               JR NC,L0362
2756   132A 05                  DEC B
2757   132B 1F                  RRA
2758   132C 38 DE               JR C,L0365
2759   132E 78          L0362:  LD A,B
2760   132F A7                  AND A
2761   1330 21 E9 13            LD HL,13E9H
2762   1333 28 0C       L0359:  JR Z,L0366
2763   1335 CB 78               BIT 7,B
2764   1337 28 0C       L0358:  JR Z,L0367
2765   1339 CB 40               BIT 0,B
2766   133B 23                  INC HL
2767   133C 23                  INC HL
2768   133D 20 02               JR NZ,L0366
2769   133F 23                  INC HL
2770   1340 23                  INC HL
2771   1341 AF          L0366:  XOR A
2772   1342 F5                  PUSH AF
2773   1343 18 0E               JR L0368
2774   1345 3D                  DEC A
2775   1346 07                  RLCA
2776   1347 07                  RLCA
2777   1348 07                  RLCA
2778   1349 B1                  OR C
2779   134A F5                  PUSH AF
2780   134B 87                  ADD A,A
2781   134C 21 99 13            LD HL,1399H
2782   134F 4F                  LD C,A
2783   1350 06 00               LD B,00H
2784   1352 09                  ADD HL,BC
2785   1353 5E          L0368:  LD E,(HL)
2786   1354 23                  INC HL
2787   1355 56                  LD D,(HL)
2788   1356 D5                  PUSH DE
2789   1357 11 97 13            LD DE,1397H
2790   135A CD D5 0F            CALL L0007
2791   135D D1                  POP DE
2792   135E CD D5 0F            CALL L0007
2793   1361 21 00 32    L0370:  LD HL,3200H
2794   1364 2B          L0369:  DEC HL
2795   1365 7C                  LD A,H
2796   1366 B5                  OR L
2797   1367 20 FB               JR NZ,L0369
2798   1369 DB 58               IN A,(58H)
2799   136B 3C                  INC A
2800   136C 20 F3               JR NZ,L0370
2801   136E F1                  POP AF
2802   136F FE 25               CP 25H
2803   1371 20 93               JR NZ,L0299
2804   1373 C9                  RET
2805   1374 10 42               DJNZ L0371
2806   1376 75                  LD (HL),L
2807   1377 74                  LD (HL),H
2808   1378 74                  LD (HL),H
2809   1379 6F                  LD L,A
2810   137A 6E                  LD L,(HL)
2811   137B 73                  LD (HL),E
2812   137C 20 52               JR NZ,L0372
2813   137E 65                  LD H,L
2814   137F 6C                  LD L,H
2815   1380 65                  LD H,L
2816   1381 61                  LD H,C
2817   1382 73                  LD (HL),E
2818   1383 65                  LD H,L
2819   1384 64                  LD H,H
2820   1385 90                  SUB B
2821   1386 45                  LD B,L
2822   1387 4E                  LD C,(HL)
2823   1388 54                  LD D,H
2824   1389 45                  LD B,L
2825   138A 52                  LD D,D
2826   138B 20 65               JR NZ,L0373
2827   138D 78                  LD A,B
2828   138E 69                  LD L,C
2829   138F 74                  LD (HL),H
2830   1390 73                  LD (HL),E
2831   1391 20 74               JR NZ,L0374
2832   1393 65                  LD H,L
2833   1394 73                  LD (HL),E
2834   1395 74                  LD (HL),H
2835   1396 FE 10               CP 10H
2836   1398 FE 3F               CP 3FH
2837   139A 14                  INC D
2838   139B 16 14               LD D,14H
2839   139D 62                  LD H,D
2840   139E 14                  INC D
2841   139F A0                  AND B
2842   13A0 14                  INC D
2843   13A1 D8                  RET C
2844   13A2 14                  INC D
2845   13A3 FC 14 45            CALL M,L0375
2846   13A6 15                  DEC D
2847   13A7 2B                  DEC HL
2848   13A8 15                  DEC D
2849   13A9 46                  LD B,(HL)
2850   13AA 14                  INC D
2851   13AB 1F                  RRA
2852   13AC 14                  INC D
2853   13AD 6E                  LD L,(HL)
2854   13AE 14                  INC D
2855   13AF A9                  XOR C
2856   13B0 14                  INC D
2857   13B1 F3                  DI
2858   13B2 14                  INC D
2859   13B3 08                  EX AF,AF'
2860   13B4 15                  DEC D
2861   13B5 3F                  CCF
2862   13B6 15                  DEC D
2863   13B7 25                  DEC H
2864   13B8 15          L0371:  DEC D
2865   13B9 4D                  LD C,L
2866   13BA 14                  INC D
2867   13BB 2A 14 77            LD HL,(7714H)
2868   13BE 14                  INC D
2869   13BF B6                  OR (HL)
2870   13C0 14                  INC D
2871   13C1 EC 14 10            CALL PE,L0376
2872   13C4 15                  DEC D
2873   13C5 39                  ADD HL,SP
2874   13C6 15                  DEC D
2875   13C7 21 15 54            LD HL,5415H
2876   13CA 14                  INC D
2877   13CB 31 14 88            LD SP,8814H
2878   13CE 14                  INC D
2879   13CF C3 14 E7            JP L0377
2880   13D2 14                  INC D
2881   13D3 0E 15               LD C,15H
2882   13D5 35                  DEC (HL)
2883   13D6 15                  DEC D
2884   13D7 1D                  DEC E
2885   13D8 15                  DEC D
2886   13D9 5B                  LD E,E
2887   13DA 14                  INC D
2888   13DB 38 14               JR C,L0378
2889   13DD 92                  SUB D
2890   13DE 14                  INC D
2891   13DF CC 14 03            CALL Z,L0052
2892   13E2 15                  DEC D
2893   13E3 12                  LD (DE),A
2894   13E4 15                  DEC D
2895   13E5 30 15               JR NC,L0379
2896   13E7 18 15               JR L0380
2897   13E9 EF                  RST 28H
2898   13EA 13                  INC DE
2899   13EB FC 13 09            CALL M,L0381
2900   13EE 14                  INC D
2901   13EF 66                  LD H,(HL)
2902   13F0 6F                  LD L,A
2903   13F1 6F          L0378:  LD L,A
2904   13F2 74          L0373:  LD (HL),H
2905   13F3 73                  LD (HL),E
2906   13F4 77                  LD (HL),A
2907   13F5 69                  LD L,C
2908   13F6 74                  LD (HL),H
2909   13F7 63                  LD H,E
2910   13F8 68                  LD L,B
2911   13F9 20 31               JR NZ,L0382
2912   13FB FE 66               CP 66H
2913   13FD 6F                  LD L,A
2914   13FE 6F          L0380:  LD L,A
2915   13FF 74                  LD (HL),H
2916   1400 73                  LD (HL),E
2917   1401 77                  LD (HL),A
2918   1402 69                  LD L,C
2919   1403 74                  LD (HL),H
2920   1404 63                  LD H,E
2921   1405 68                  LD L,B
2922   1406 20 32               JR NZ,L0383
2923   1408 FE 66               CP 66H
2924   140A 6F                  LD L,A
2925   140B 6F                  LD L,A
2926   140C 74                  LD (HL),H
2927   140D 73                  LD (HL),E
2928   140E 77                  LD (HL),A
2929   140F 69                  LD L,C
2930   1410 74                  LD (HL),H
2931   1411 63                  LD H,E
2932   1412 68                  LD L,B
2933   1413 20 33               JR NZ,L0384
2934   1415 FE 72               CP 72H
2935   1417 75                  LD (HL),L
2936   1418 6E                  LD L,(HL)
2937   1419 2F                  CPL
2938   141A 73                  LD (HL),E
2939   141B 74                  LD (HL),H
2940   141C 6F                  LD L,A
2941   141D 70                  LD (HL),B
2942   141E FE 74               CP 74H
2943   1420 61                  LD H,C
2944   1421 70                  LD (HL),B
2945   1422 2F                  CPL
2946   1423 72                  LD (HL),D
2947   1424 65                  LD H,L
2948   1425 70                  LD (HL),B
2949   1426 65                  LD H,L
2950   1427 61                  LD H,C
2951   1428 74                  LD (HL),H
2952   1429 FE 70               CP 70H
2953   142B 6C                  LD L,H
2954   142C 61          L0382:  LD H,C
2955   142D 79                  LD A,C
2956   142E 20 31               JR NZ,L0385
2957   1430 FE 70               CP 70H
2958   1432 6C                  LD L,H
2959   1433 61                  LD H,C
2960   1434 79                  LD A,C
2961   1435 20 32               JR NZ,L0386
2962   1437 FE 70               CP 70H
2963   1439 6C                  LD L,H
2964   143A 61          L0383:  LD H,C
2965   143B 79                  LD A,C
2966   143C 20 33               JR NZ,L0387
2967   143E FE 70               CP 70H
2968   1440 6C                  LD L,H
2969   1441 61                  LD H,C
2970   1442 79                  LD A,C
2971   1443 20 34               JR NZ,L0388
2972   1445 FE 70               CP 70H
2973   1447 6C                  LD L,H
2974   1448 61          L0384:  LD H,C
2975   1449 79                  LD A,C
2976   144A 20 35               JR NZ,L0389
2977   144C FE 70               CP 70H
2978   144E 6C                  LD L,H
2979   144F 61                  LD H,C
2980   1450 79                  LD A,C
2981   1451 20 36               JR NZ,L0390
2982   1453 FE 70               CP 70H
2983   1455 6C                  LD L,H
2984   1456 61                  LD H,C
2985   1457 79                  LD A,C
2986   1458 20 37               JR NZ,L0391
2987   145A FE 70               CP 70H
2988   145C 6C                  LD L,H
2989   145D 61                  LD H,C
2990   145E 79                  LD A,C
2991   145F 20 38               JR NZ,L0392
2992   1461 FE 72       L0385:  CP 72H
2993   1463 65                  LD H,L
2994   1464 63                  LD H,E
2995   1465 6F                  LD L,A
2996   1466 72                  LD (HL),D
2997   1467 64                  LD H,H
2998   1468 2F                  CPL
2999   1469 65          L0386:  LD H,L
3000   146A 64                  LD H,H
3001   146B 69                  LD L,C
3002   146C 74                  LD (HL),H
3003   146D FE 6D               CP 6DH
3004   146F 69                  LD L,C
3005   1470 78                  LD A,B
3006   1471 2F          L0387:  CPL
3007   1472 73                  LD (HL),E
3008   1473 74                  LD (HL),H
3009   1474 65                  LD H,L
3010   1475 70                  LD (HL),B
3011   1476 FE 74               CP 74H
3012   1478 65                  LD H,L
3013   1479 6D          L0388:  LD L,L
3014   147A 70                  LD (HL),B
3015   147B 6F                  LD L,A
3016   147C 43                  LD B,E
3017   147D 68                  LD L,B
3018   147E 2F                  CPL
3019   147F 61                  LD H,C
3020   1480 75                  LD (HL),L
3021   1481 74          L0389:  LD (HL),H
3022   1482 6F                  LD L,A
3023   1483 43                  LD B,E
3024   1484 6F                  LD L,A
3025   1485 72                  LD (HL),D
3026   1486 72                  LD (HL),D
3027   1487 FE 64               CP 64H
3028   1489 65          L0390:  LD H,L
3029   148A 6C                  LD L,H
3030   148B 2F                  CPL
3031   148C 65                  LD H,L
3032   148D 72                  LD (HL),D
3033   148E 61                  LD H,C
3034   148F 73                  LD (HL),E
3035   1490 65                  LD H,L
3036   1491 FE 69       L0391:  CP 69H
3037   1493 6E                  LD L,(HL)
3038   1494 73                  LD (HL),E
3039   1495 2F                  CPL
3040   1496 73                  LD (HL),E
3041   1497 65                  LD H,L
3042   1498 67                  LD H,A
3043   1499 6C          L0392:  LD L,H
3044   149A 65                  LD H,L
3045   149B 6E                  LD L,(HL)
3046   149C 67                  LD H,A
3047   149D 74                  LD (HL),H
3048   149E 68                  LD L,B
3049   149F FE 65               CP 65H
3050   14A1 6E                  LD L,(HL)
3051   14A2 64                  LD H,H
3052   14A3 2F                  CPL
3053   14A4 74                  LD (HL),H
3054   14A5 73                  LD (HL),E
3055   14A6 69                  LD L,C
3056   14A7 67                  LD H,A
3057   14A8 FE 73               CP 73H
3058   14AA 75                  LD (HL),L
3059   14AB 62                  LD H,D
3060   14AC 73                  LD (HL),E
3061   14AD 6F                  LD L,A
3062   14AE 6E                  LD L,(HL)
3063   14AF 67                  LD H,A
3064   14B0 2F                  CPL
3065   14B1 63                  LD H,E
3066   14B2 6F                  LD L,A
3067   14B3 70                  LD (HL),B
3068   14B4 79                  LD A,C
3069   14B5 FE 72               CP 72H
3070   14B7 65                  LD H,L
3071   14B8 70                  LD (HL),B
3072   14B9 65                  LD H,L
3073   14BA 61                  LD H,C
3074   14BB 74                  LD (HL),H
3075   14BC 2F                  CPL
3076   14BD 73                  LD (HL),E
3077   14BE 77                  LD (HL),A
3078   14BF 69                  LD L,C
3079   14C0 6E                  LD L,(HL)
3080   14C1 67                  LD H,A
3081   14C2 FE 74               CP 74H
3082   14C4 72                  LD (HL),D
3083   14C5 69                  LD L,C
3084   14C6 67                  LD H,A
3085   14C7 2F                  CPL
3086   14C8 6D                  LD L,L
3087   14C9 65                  LD H,L
3088   14CA 74                  LD (HL),H
3089   14CB FE 62               CP 62H
3090   14CD 61                  LD H,C
3091   14CE 6E                  LD L,(HL)
3092   14CF 6B                  LD L,E
3093   14D0 20 73               JR NZ,L0393
3094   14D2 65                  LD H,L
3095   14D3 6C                  LD L,H
3096   14D4 65                  LD H,L
3097   14D5 63                  LD H,E
3098   14D6 74                  LD (HL),H
3099   14D7 FE 74               CP 74H
3100   14D9 75                  LD (HL),L
3101   14DA 6E                  LD L,(HL)
3102   14DB 65                  LD H,L
3103   14DC 2F                  CPL
3104   14DD 6D                  LD L,L
3105   14DE 69                  LD L,C
3106   14DF 78                  LD A,B
3107   14E0 2F                  CPL
3108   14E1 6D                  LD L,L
3109   14E2 75                  LD (HL),L
3110   14E3 6C                  LD L,H
3111   14E4 74                  LD (HL),H
3112   14E5 69                  LD L,C
3113   14E6 FE 44               CP 44H
3114   14E8 69                  LD L,C
3115   14E9 73                  LD (HL),E
3116   14EA 6B                  LD L,E
3117   14EB FE 53               CP 53H
3118   14ED 65                  LD H,L
3119   14EE 74                  LD (HL),H
3120   14EF 2D                  DEC L
3121   14F0 75                  LD (HL),L
3122   14F1 70                  LD (HL),B
3123   14F2 FE 73               CP 73H
3124   14F4 6F                  LD L,A
3125   14F5 6E                  LD L,(HL)
3126   14F6 67                  LD H,A
3127   14F7 2F                  CPL
3128   14F8 73                  LD (HL),E
3129   14F9 65                  LD H,L
3130   14FA 67                  LD H,A
3131   14FB FE 53               CP 53H
3132   14FD 61                  LD H,C
3133   14FE 6D                  LD L,L
3134   14FF 70                  LD (HL),B
3135   1500 6C                  LD L,H
3136   1501 65                  LD H,L
3137   1502 FE 53               CP 53H
3138   1504 79                  LD A,C
3139   1505 6E                  LD L,(HL)
3140   1506 63                  LD H,E
3141   1507 FE 74               CP 74H
3142   1509 65                  LD H,L
3143   150A 6D                  LD L,L
3144   150B 70                  LD (HL),B
3145   150C 6F                  LD L,A
3146   150D FE 7E               CP 7EH
3147   150F FE 7F               CP 7FH
3148   1511 FE 65               CP 65H
3149   1513 6E                  LD L,(HL)
3150   1514 74                  LD (HL),H
3151   1515 65                  LD H,L
3152   1516 72                  LD (HL),D
3153   1517 FE 7A               CP 7AH
3154   1519 65                  LD H,L
3155   151A 72                  LD (HL),D
3156   151B 6F                  LD L,A
3157   151C FE 6F               CP 6FH
3158   151E 6E                  LD L,(HL)
3159   151F 65                  LD H,L
3160   1520 FE 74               CP 74H
3161   1522 77                  LD (HL),A
3162   1523 6F                  LD L,A
3163   1524 FE 74               CP 74H
3164   1526 68                  LD L,B
3165   1527 72                  LD (HL),D
3166   1528 65                  LD H,L
3167   1529 65                  LD H,L
3168   152A FE 66               CP 66H
3169   152C 6F                  LD L,A
3170   152D 75                  LD (HL),L
3171   152E 72                  LD (HL),D
3172   152F FE 66               CP 66H
3173   1531 69                  LD L,C
3174   1532 76                  HALT
3175   1533 65                  LD H,L
3176   1534 FE 73               CP 73H
3177   1536 69                  LD L,C
3178   1537 78                  LD A,B
3179   1538 FE 73               CP 73H
3180   153A 65                  LD H,L
3181   153B 76                  HALT
3182   153C 65                  LD H,L
3183   153D 6E                  LD L,(HL)
3184   153E FE 65               CP 65H
3185   1540 69                  LD L,C
3186   1541 67                  LD H,A
3187   1542 68                  LD L,B
3188   1543 74                  LD (HL),H
3189   1544 FE 6E               CP 6EH
3190   1546 69                  LD L,C
3191   1547 6E                  LD L,(HL)
3192   1548 65                  LD H,L
3193   1549 FE 11               CP 11H
3194   154B 79                  LD A,C
3195   154C 15                  DEC D
3196   154D CD D5 0F            CALL L0007
3197   1550 CD 56 15    L0394:  CALL L0315
3198   1553 C0                  RET NZ
3199   1554 18 FA               JR L0394
3200   1556 DB 58       L0315:  IN A,(58H)
3201   1558 3C                  INC A
3202   1559 C8                  RET Z
3203   155A 3D                  DEC A
3204   155B F5                  PUSH AF
3205   155C DB 58       L0395:  IN A,(58H)
3206   155E 3C                  INC A
3207   155F 20 FB               JR NZ,L0395
3208   1561 CD 70 15            CALL L0327
3209   1564 DB 58               IN A,(58H)
3210   1566 3C                  INC A
3211   1567 20 F3               JR NZ,L0395
3212   1569 F1                  POP AF
3213   156A C9                  RET
3214   156B 21 80 00    L0404:  LD HL,0080H
3215   156E 18 03               JR L0396
3216   1570 21 00 64    L0327:  LD HL,6400H
3217   1573 2B          L0396:  DEC HL
3218   1574 7C                  LD A,H
3219   1575 B5                  OR L
3220   1576 20 FB               JR NZ,L0396
3221   1578 C9                  RET
3222   1579 80                  ADD A,B
3223   157A FF                  RST 38H
3224   157B FF                  RST 38H
3225   157C FF                  RST 38H
3226   157D FF                  RST 38H
3227   157E FF                  RST 38H
3228   157F FF                  RST 38H
3229   1580 FF                  RST 38H
3230   1581 FF                  RST 38H
3231   1582 FF                  RST 38H
3232   1583 FF                  RST 38H
3233   1584 FF                  RST 38H
3234   1585 FF                  RST 38H
3235   1586 FF                  RST 38H
3236   1587 FF                  RST 38H
3237   1588 FF                  RST 38H
3238   1589 FF                  RST 38H
3239   158A 90                  SUB B
3240   158B FF                  RST 38H
3241   158C FF                  RST 38H
3242   158D FF                  RST 38H
3243   158E FF                  RST 38H
3244   158F FF                  RST 38H
3245   1590 FF                  RST 38H
3246   1591 FF                  RST 38H
3247   1592 FF                  RST 38H
3248   1593 FF                  RST 38H
3249   1594 FF                  RST 38H
3250   1595 FF                  RST 38H
3251   1596 FF                  RST 38H
3252   1597 FF                  RST 38H
3253   1598 FF                  RST 38H
3254   1599 FF                  RST 38H
3255   159A FF                  RST 38H
3256   159B FE 11               CP 11H
3257   159D C0                  RET NZ
3258   159E 15                  DEC D
3259   159F CD D5 0F            CALL L0007
3260   15A2 11 01 00            LD DE,0001H
3261   15A5 EB          L0399:  EX DE,HL
3262   15A6 29          L0397:  ADD HL,HL
3263   15A7 CB 5D               BIT 3,L
3264   15A9 20 FB               JR NZ,L0397
3265   15AB 30 01               JR NC,L0398
3266   15AD 2C                  INC L
3267   15AE 7D          L0398:  LD A,L
3268   15AF 2F                  CPL
3269   15B0 D3 8C               OUT (8CH),A
3270   15B2 7C                  LD A,H
3271   15B3 2F                  CPL
3272   15B4 D3 90               OUT (90H),A
3273   15B6 EB                  EX DE,HL
3274   15B7 CD 70 15            CALL L0327
3275   15BA CD 56 15            CALL L0315
3276   15BD C0                  RET NZ
3277   15BE 18 E5               JR L0399
3278   15C0 10 4C               DJNZ L0400
3279   15C2 61                  LD H,C
3280   15C3 6D                  LD L,L
3281   15C4 70                  LD (HL),B
3282   15C5 20 54               JR NZ,L0401
3283   15C7 65                  LD H,L
3284   15C8 73                  LD (HL),E
3285   15C9 74                  LD (HL),H
3286   15CA 3A 20 50    L0409:  LD A,(5020H)
3287   15CD 72                  LD (HL),D
3288   15CE 65                  LD H,L
3289   15CF 73                  LD (HL),E
3290   15D0 73                  LD (HL),E
3291   15D1 90                  SUB B
3292   15D2 45                  LD B,L
3293   15D3 4E                  LD C,(HL)
3294   15D4 54                  LD D,H
3295   15D5 45                  LD B,L
3296   15D6 52                  LD D,D
3297   15D7 20 74               JR NZ,L0402
3298   15D9 6F                  LD L,A
3299   15DA 20 65               JR NZ,L0403
3300   15DC 78                  LD A,B
3301   15DD 69                  LD L,C
3302   15DE 74                  LD (HL),H
3303   15DF FE 3E               CP 3EH
3304   15E1 FF                  RST 38H
3305   15E2 D3 8C               OUT (8CH),A
3306   15E4 D3 90               OUT (90H),A
3307   15E6 21 1A 68            LD HL,681AH
3308   15E9 11 1B 68            LD DE,681BH
3309   15EC 01 0F 00            LD BC,000FH
3310   15EF 36 00               LD (HL),00H
3311   15F1 ED B0               LDIR
3312   15F3 11 28 16    L0407:  LD DE,1628H
3313   15F6 CD D5 0F            CALL L0007
3314   15F9 CD 56 15            CALL L0315
3315   15FC C0                  RET NZ
3316   15FD 06 08               LD B,08H
3317   15FF 78          L0406:  LD A,B
3318   1600 3D                  DEC A
3319   1601 D3 C0               OUT (0C0H),A
3320   1603 CD 6B 15            CALL L0404
3321   1606 DB C0               IN A,(0C0H)
3322   1608 58                  LD E,B
3323   1609 1D                  DEC E
3324   160A 37                  SCF
3325   160B CB 13               RL E
3326   160D 16 00               LD D,00H
3327   160F 21 1A 68            LD HL,681AH
3328   1612 19                  ADD HL,DE
3329   1613 5F                  LD E,A
3330   1614 96                  SUB (HL)
3331   1615 28 0D               JR Z,L0405
3332   1617 3D                  DEC A
3333   1618 28 0A               JR Z,L0405
3334   161A 3C                  INC A
3335   161B 3C          L0401:  INC A
3336   161C 28 06               JR Z,L0405
3337   161E 73                  LD (HL),E
3338   161F 2B                  DEC HL
3339   1620 A7                  AND A
3340   1621 CB 1B               RR E
3341   1623 73                  LD (HL),E
3342   1624 10 D9       L0405:  DJNZ L0406
3343   1626 18 CB               JR L0407
3344   1628 80                  ADD A,B
3345   1629 19                  ADD HL,DE
3346   162A 1A          L0423:  LD A,(DE)
3347   162B 68                  LD L,B
3348   162C 20 19               JR NZ,L0408
3349   162E 1E 68               LD E,68H
3350   1630 20 19               JR NZ,L0303
3351   1632 22 68 20            LD (2068H),HL
3352   1635 19                  ADD HL,DE
3353   1636 26 68               LD H,68H
3354   1638 20 90               JR NZ,L0409
3355   163A 20 19               JR NZ,L0410
3356   163C 1C                  INC E
3357   163D 68                  LD L,B
3358   163E 20 19               JR NZ,L0411
3359   1640 20 68               JR NZ,L0412
3360   1642 20 19               JR NZ,L0413
3361   1644 24                  INC H
3362   1645 68                  LD L,B
3363   1646 20 19               JR NZ,L0414
3364   1648 28 68               JR Z,L0415
3365   164A FE 11               CP 11H
3366   164C 88                  ADC A,B
3367   164D 16 CD       L0402:  LD D,0CDH
3368   164F D5                  PUSH DE
3369   1650 0F                  RRCA
3370   1651 11 A1 16    L0418:  LD DE,16A1H
3371   1654 CD D5 0F            CALL L0007
3372   1657 3E 1D               LD A,1DH
3373   1659 D3 88       L0411:  OUT (88H),A
3374   165B 06 10               LD B,10H
3375   165D 11 00 00    L0413:  LD DE,0000H
3376   1660 DB 41       L0416:  IN A,(41H)
3377   1662 6F                  LD L,A
3378   1663 DB 40               IN A,(40H)
3379   1665 26 00               LD H,00H
3380   1667 29                  ADD HL,HL
3381   1668 29                  ADD HL,HL
3382   1669 29                  ADD HL,HL
3383   166A 29                  ADD HL,HL
3384   166B E6 0F               AND 0FH
3385   166D B5                  OR L
3386   166E 6F                  LD L,A
3387   166F 19                  ADD HL,DE
3388   1670 EB                  EX DE,HL
3389   1671 10 ED               DJNZ L0416
3390   1673 06 04               LD B,04H
3391   1675 CB 3A       L0417:  SRL D
3392   1677 CB 1B               RR E
3393   1679 10 FA               DJNZ L0417
3394   167B D5                  PUSH DE
3395   167C FD E1               POP IY
3396   167E CD 56 15            CALL L0315
3397   1681 28 CE               JR Z,L0418
3398   1683 3E 7D               LD A,7DH
3399   1685 D3 88               OUT (88H),A
3400   1687 C9                  RET
3401   1688 10 54               DJNZ L0419
3402   168A 72                  LD (HL),D
3403   168B 69                  LD L,C
3404   168C 6D                  LD L,L
3405   168D 20 52               JR NZ,L0420
3406   168F 54                  LD D,H
3407   1690 31 20 54            LD SP,5420H
3408   1693 6F                  LD L,A
3409   1694 20 30               JR NZ,L0421
3410   1696 38 30               JR C,L0422
3411   1698 30 90               JR NC,L0423
3412   169A 52                  LD D,D
3413   169B 54                  LD D,H
3414   169C 31 20 3D            LD SP,3D20H
3415   169F 20 FE       L0424:  JR NZ,L0424
3416   16A1 96                  SUB (HL)
3417   16A2 15                  DEC D
3418   16A3 FE 18               CP 18H
3419   16A5 04                  INC B
3420   16A6 CC 05 68            CALL Z,L0127
3421   16A9 03                  INC BC
3422   16AA C1          L0412:  POP BC
3423   16AB 11 EC 16    L0304:  LD DE,16ECH
3424   16AE CD D5 0F            CALL L0007
3425   16B1 CD 56 15    L0425:  CALL L0315
3426   16B4 28 FB               JR Z,L0425
3427   16B6 21 A4 16            LD HL,16A4H
3428   16B9 01 51 07            LD BC,0751H
3429   16BC ED B3               OTIR
3430   16BE 06 00               LD B,00H
3431   16C0 78          L0428:  LD A,B
3432   16C1 D3 50               OUT (50H),A
3433   16C3 0E 00               LD C,00H
3434   16C5 0D          L0427:  DEC C
3435   16C6 28 14       L0421:  JR Z,L0426
3436   16C8 DB 51       L0422:  IN A,(51H)
3437   16CA 0F                  RRCA
3438   16CB 30 F8               JR NC,L0427
3439   16CD DB 50               IN A,(50H)
3440   16CF B8                  CP B
3441   16D0 20 0A               JR NZ,L0426
3442   16D2 10 EC               DJNZ L0428
3443   16D4 11 0F 17            LD DE,170FH
3444   16D7 CD D5 0F            CALL L0007
3445   16DA 18 06               JR L0429
3446   16DC 11 25 17    L0426:  LD DE,1725H
3447   16DF CD D5 0F            CALL L0007
3448   16E2 CD 56 15            CALL L0315
3449   16E5 28 FB               JR Z,L0429
3450   16E7 CB 7F               BIT 7,A
3451   16E9 C8                  RET Z
3452   16EA 18 BF               JR L0304
3453   16EC 10 43               DJNZ L0430
3454   16EE 6F                  LD L,A
3455   16EF 6E                  LD L,(HL)
3456   16F0 6E                  LD L,(HL)
3457   16F1 65                  LD H,L
3458   16F2 63                  LD H,E
3459   16F3 74                  LD (HL),H
3460   16F4 20 4D               JR NZ,L0431
3461   16F6 49                  LD C,C
3462   16F7 44                  LD B,H
3463   16F8 49                  LD C,C
3464   16F9 20 49               JR NZ,L0432
3465   16FB 4E                  LD C,(HL)
3466   16FC 26 90               LD H,90H
3467   16FE 4F                  LD C,A
3468   16FF 55                  LD D,L
3469   1700 54                  LD D,H
3470   1701 3B                  DEC SP
3471   1702 20 50               JR NZ,L0433
3472   1704 72                  LD (HL),D
3473   1705 65                  LD H,L
3474   1706 73                  LD (HL),E
3475   1707 73                  LD (HL),E
3476   1708 20 45               JR NZ,L0434
3477   170A 4E                  LD C,(HL)
3478   170B 54                  LD D,H
3479   170C 45                  LD B,L
3480   170D 52                  LD D,D
3481   170E FE 10               CP 10H
3482   1710 4D                  LD C,L
3483   1711 49                  LD C,C
3484   1712 44                  LD B,H
3485   1713 49                  LD C,C
3486   1714 3A 20 4F            LD A,(4F20H)
3487   1717 4B                  LD C,E
3488   1718 90          L0439:  SUB B
3489   1719 50                  LD D,B
3490   171A 72                  LD (HL),D
3491   171B 65                  LD H,L
3492   171C 73                  LD (HL),E
3493   171D 73                  LD (HL),E
3494   171E 20 45               JR NZ,L0435
3495   1720 4E                  LD C,(HL)
3496   1721 54                  LD D,H
3497   1722 45                  LD B,L
3498   1723 52                  LD D,D
3499   1724 FE 10               CP 10H
3500   1726 4D                  LD C,L
3501   1727 49                  LD C,C
3502   1728 44                  LD B,H
3503   1729 49                  LD C,C
3504   172A 20 46               JR NZ,L0436
3505   172C 41                  LD B,C
3506   172D 49                  LD C,C
3507   172E 4C                  LD C,H
3508   172F 2E 20               LD L,20H
3509   1731 49          L0430:  LD C,C
3510   1732 6E                  LD L,(HL)
3511   1733 20 26               JR NZ,L0437
3512   1735 90                  SUB B
3513   1736 4F                  LD C,A
3514   1737 75                  LD (HL),L
3515   1738 74                  LD (HL),H
3516   1739 20 55               JR NZ,L0438
3517   173B 6E                  LD L,(HL)
3518   173C 63                  LD H,E
3519   173D 6F                  LD L,A
3520   173E 6E                  LD L,(HL)
3521   173F 6E                  LD L,(HL)
3522   1740 65                  LD H,L
3523   1741 63                  LD H,E
3524   1742 74                  LD (HL),H
3525   1743 65          L0431:  LD H,L
3526   1744 64          L0432:  LD H,H
3527   1745 3F                  CCF
3528   1746 FE 11               CP 11H
3529   1748 1D                  DEC E
3530   1749 18 CD               JR L0439
3531   174B D5                  PUSH DE
3532   174C 0F                  RRCA
3533   174D CD 56 15    L0440:  CALL L0315
3534   1750 28 FB               JR Z,L0440
3535   1752 11 40 18            LD DE,1840H
3536   1755 CD D5 0F            CALL L0007
3537   1758 06 2B               LD B,2BH
3538   175A CD 94 17            CALL L0441
3539   175D 21 0A 18            LD HL,180AH
3540   1760 01 53 0F            LD BC,0F53H
3541   1763 ED B3               OTIR
3542   1765 CD A0 17    L0435:  CALL L0442
3543   1768 38 1A               JR C,L0443
3544   176A 06 36               LD B,36H
3545   176C CD 94 17            CALL L0441
3546   176F 21 19 18            LD HL,1819H
3547   1772 01 53 04    L0436:  LD BC,0453H
3548   1775 ED B3               OTIR
3549   1777 CD A0 17            CALL L0442
3550   177A 38 08               JR C,L0443
3551   177C 11 52 18            LD DE,1852H
3552   177F CD D5 0F            CALL L0007
3553   1782 18 06               JR L0444
3554   1784 11 70 18    L0443:  LD DE,1870H
3555   1787 CD D5 0F            CALL L0007
3556   178A CD 56 15    L0444:  CALL L0315
3557   178D 28 FB               JR Z,L0444
3558   178F CB 7F               BIT 7,A
3559   1791 C8                  RET Z
3560   1792 18 B3               JR L0305
3561   1794 3E 03       L0441:  LD A,03H
3562   1796 D3 4A               OUT (4AH),A
3563   1798 3E 07               LD A,07H
3564   179A D3 4A               OUT (4AH),A
3565   179C 78                  LD A,B
3566   179D D3 4A               OUT (4AH),A
3567   179F C9                  RET
3568   17A0 06 10       L0442:  LD B,10H
3569   17A2 DB 52       L0445:  IN A,(52H)
3570   17A4 10 FC               DJNZ L0445
3571   17A6 11 14 00            LD DE,0014H
3572   17A9 CD F7 17    L0448:  CALL L0446
3573   17AC FE 5A               CP 5AH
3574   17AE 28 08               JR Z,L0447
3575   17B0 1B                  DEC DE
3576   17B1 7A                  LD A,D
3577   17B2 B3                  OR E
3578   17B3 20 F4               JR NZ,L0448
3579   17B5 37                  SCF
3580   17B6 18 1B               JR L0449
3581   17B8 11 00 00    L0447:  LD DE,0000H
3582   17BB 62                  LD H,D
3583   17BC CD E2 17            CALL L0450
3584   17BF 38 12               JR C,L0449
3585   17C1 62          L0452:  LD H,D
3586   17C2 25                  DEC H
3587   17C3 CD E2 17            CALL L0450
3588   17C6 38 0B               JR C,L0449
3589   17C8 CD F7 17    L0454:  CALL L0446
3590   17CB 38 06               JR C,L0449
3591   17CD BA                  CP D
3592   17CE 20 08               JR NZ,L0451
3593   17D0 15                  DEC D
3594   17D1 20 EE               JR NZ,L0452
3595   17D3 3E 03       L0449:  LD A,03H
3596   17D5 D3 4A               OUT (4AH),A
3597   17D7 C9                  RET
3598   17D8 FE 5A       L0451:  CP 5AH
3599   17DA 20 03               JR NZ,L0453
3600   17DC 1D                  DEC E
3601   17DD 20 E9               JR NZ,L0454
3602   17DF 37          L0453:  SCF
3603   17E0 18 F1               JR L0449
3604   17E2 01 40 00    L0450:  LD BC,0040H
3605   17E5 DB 53       L0456:  IN A,(53H)
3606   17E7 CB 57               BIT 2,A
3607   17E9 20 07               JR NZ,L0455
3608   17EB 10 F8               DJNZ L0456
3609   17ED 0D                  DEC C
3610   17EE 20 F5               JR NZ,L0456
3611   17F0 37                  SCF
3612   17F1 C9                  RET
3613   17F2 7C          L0455:  LD A,H
3614   17F3 D3 52               OUT (52H),A
3615   17F5 B7                  OR A
3616   17F6 C9                  RET
3617   17F7 01 40 00    L0446:  LD BC,0040H
3618   17FA DB 53       L0458:  IN A,(53H)
3619   17FC 0F                  RRCA
3620   17FD 38 07               JR C,L0457
3621   17FF 10 F9               DJNZ L0458
3622   1801 0D                  DEC C
3623   1802 20 F6               JR NZ,L0458
3624   1804 37                  SCF
3625   1805 C9                  RET
3626   1806 DB 52       L0457:  IN A,(52H)
3627   1808 B7                  OR A
3628   1809 C9                  RET
3629   180A 18 18               JR L0459
3630   180C 18 01               JR L0460
3631   180E 04                  INC B
3632   180F 04          L0460:  INC B
3633   1810 00                  NOP
3634   1811 06 5A               LD B,5AH
3635   1813 07                  RLCA
3636   1814 5A                  LD E,D
3637   1815 05                  DEC B
3638   1816 E8                  RET PE
3639   1817 03                  INC BC
3640   1818 D1                  POP DE
3641   1819 05                  DEC B
3642   181A 68                  LD L,B
3643   181B 03                  INC BC
3644   181C D1                  POP DE
3645   181D 10 43               DJNZ L0461
3646   181F 6F                  LD L,A
3647   1820 6E                  LD L,(HL)
3648   1821 6E                  LD L,(HL)
3649   1822 65                  LD H,L
3650   1823 63                  LD H,E
3651   1824 74          L0459:  LD (HL),H
3652   1825 20 53               JR NZ,L0462
3653   1827 4D                  LD C,L
3654   1828 50                  LD D,B
3655   1829 54                  LD D,H
3656   182A 45                  LD B,L
3657   182B 20 49               JR NZ,L0463
3658   182D 4E                  LD C,(HL)
3659   182E 90                  SUB B
3660   182F 26 20               LD H,20H
3661   1831 4F                  LD C,A
3662   1832 55                  LD D,L
3663   1833 54                  LD D,H
3664   1834 3B                  DEC SP
3665   1835 20 68               JR NZ,L0464
3666   1837 69                  LD L,C
3667   1838 74                  LD (HL),H
3668   1839 20 45               JR NZ,L0465
3669   183B 4E                  LD C,(HL)
3670   183C 54                  LD D,H
3671   183D 45                  LD B,L
3672   183E 52                  LD D,D
3673   183F FE 10               CP 10H
3674   1841 54                  LD D,H
3675   1842 65                  LD H,L
3676   1843 73                  LD (HL),E
3677   1844 74                  LD (HL),H
3678   1845 69                  LD L,C
3679   1846 6E                  LD L,(HL)
3680   1847 67                  LD H,A
3681   1848 20 53               JR NZ,L0466
3682   184A 4D                  LD C,L
3683   184B 50                  LD D,B
3684   184C 54                  LD D,H
3685   184D 45                  LD B,L
3686   184E 2E 2E               LD L,2EH
3687   1850 2E FE               LD L,0FEH
3688   1852 10 53               DJNZ L0467
3689   1854 4D                  LD C,L
3690   1855 50                  LD D,B
3691   1856 54                  LD D,H
3692   1857 45                  LD B,L
3693   1858 20 4F               JR NZ,L0468
3694   185A 4B                  LD C,E
3695   185B 20 40               JR NZ,L0466
3696   185D 20 32               JR NZ,L0469
3697   185F 34                  INC (HL)
3698   1860 26 33               LD H,33H
3699   1862 30 90       L0461:  JR NC,L0470
3700   1864 50                  LD D,B
3701   1865 72                  LD (HL),D
3702   1866 65                  LD H,L
3703   1867 73                  LD (HL),E
3704   1868 73                  LD (HL),E
3705   1869 20 45               JR NZ,L0471
3706   186B 4E                  LD C,(HL)
3707   186C 54                  LD D,H
3708   186D 45                  LD B,L
3709   186E 52                  LD D,D
3710   186F FE 10               CP 10H
3711   1871 53                  LD D,E
3712   1872 4D                  LD C,L
3713   1873 50                  LD D,B
3714   1874 54                  LD D,H
3715   1875 45                  LD B,L
3716   1876 20 46       L0463:  JR NZ,L0472
3717   1878 41                  LD B,C
3718   1879 49                  LD C,C
3719   187A 4C          L0462:  LD C,H
3720   187B 2E 20               LD L,20H
3721   187D 49                  LD C,C
3722   187E 6E                  LD L,(HL)
3723   187F 20 26               JR NZ,L0467
3724   1881 90                  SUB B
3725   1882 4F                  LD C,A
3726   1883 75                  LD (HL),L
3727   1884 74                  LD (HL),H
3728   1885 20 55               JR NZ,L0473
3729   1887 6E                  LD L,(HL)
3730   1888 63                  LD H,E
3731   1889 6F                  LD L,A
3732   188A 6E                  LD L,(HL)
3733   188B 6E                  LD L,(HL)
3734   188C 65                  LD H,L
3735   188D 63                  LD H,E
3736   188E 74                  LD (HL),H
3737   188F 65                  LD H,L
3738   1890 64                  LD H,H
3739   1891 3F          L0469:  CCF
3740   1892 FE 11               CP 11H
3741   1894 02                  LD (BC),A
3742   1895 19                  ADD HL,DE
3743   1896 CD D5 0F            CALL L0007
3744   1899 3E 78       L0476:  LD A,78H
3745   189B CD B2 18            CALL L0474
3746   189E 20 1B               JR NZ,L0475
3747   18A0 EB                  EX DE,HL
3748   18A1 3E 79               LD A,79H
3749   18A3 CD B2 18            CALL L0474
3750   18A6 20 13               JR NZ,L0475
3751   18A8 3E 7D               LD A,7DH
3752   18AA CD B2 18            CALL L0474
3753   18AD C2 56 15            JP NZ,L0315
3754   18B0 18 E7       L0471:  JR L0476
3755   18B2 D3 88       L0474:  OUT (88H),A
3756   18B4 CD F9 18            CALL L0477
3757   18B7 DB 58               IN A,(58H)
3758   18B9 3C                  INC A
3759   18BA C9                  RET
3760   18BB 06 08       L0475:  LD B,08H
3761   18BD 3E F7               LD A,0F7H
3762   18BF D3 8C               OUT (8CH),A
3763   18C1 11 81 68            LD DE,6881H
3764   18C4 3E 07       L0478:  LD A,07H
3765   18C6 D3 C0               OUT (0C0H),A
3766   18C8 CD F9 18            CALL L0477
3767   18CB DB C0               IN A,(0C0H)
3768   18CD 12                  LD (DE),A
3769   18CE 13                  INC DE
3770   18CF 10 F3               DJNZ L0478
3771   18D1 01 00 08            LD BC,0800H
3772   18D4 59                  LD E,C
3773   18D5 21 81 68    L0480:  LD HL,6881H
3774   18D8 7E                  LD A,(HL)
3775   18D9 B9                  CP C
3776   18DA 38 01               JR C,L0479
3777   18DC 4F          L0473:  LD C,A
3778   18DD 23          L0479:  INC HL
3779   18DE 10 F5               DJNZ L0480
3780   18E0 79                  LD A,C
3781   18E1 32 61 68            LD (6861H),A
3782   18E4 11 1B 19            LD DE,191BH
3783   18E7 CD D5 0F            CALL L0007
3784   18EA DB 58       L0481:  IN A,(58H)
3785   18EC 3C                  INC A
3786   18ED 20 FB               JR NZ,L0481
3787   18EF CD F9 18            CALL L0477
3788   18F2 DB 58               IN A,(58H)
3789   18F4 3C                  INC A
3790   18F5 28 A2               JR Z,L0476
3791   18F7 18 F1               JR L0481
3792   18F9 21 39 01    L0477:  LD HL,0139H
3793   18FC 2B          L0482:  DEC HL
3794   18FD 7C                  LD A,H
3795   18FE B5                  OR L
3796   18FF 20 FB               JR NZ,L0482
3797   1901 C9                  RET
3798   1902 10 44               DJNZ L0483
3799   1904 79                  LD A,C
3800   1905 6E                  LD L,(HL)
3801   1906 61                  LD H,C
3802   1907 6D                  LD L,L
3803   1908 69                  LD L,C
3804   1909 63                  LD H,E
3805   190A 20 42               JR NZ,L0484
3806   190C 75                  LD (HL),L
3807   190D 74                  LD (HL),H
3808   190E 74                  LD (HL),H
3809   190F 6F                  LD L,A
3810   1910 6E                  LD L,(HL)
3811   1911 73                  LD (HL),E
3812   1912 90                  SUB B
3813   1913 56                  LD D,(HL)
3814   1914 61                  LD H,C
3815   1915 6C                  LD L,H
3816   1916 75                  LD (HL),L
3817   1917 65                  LD H,L
3818   1918 3A 20 FE            LD A,(0FE20H)
3819   191B 97                  SUB A
3820   191C 19                  ADD HL,DE
3821   191D 61                  LD H,C
3822   191E 68                  LD L,B
3823   191F FE 3E               CP 3EH
3824   1921 7F                  LD A,A
3825   1922 D3 88               OUT (88H),A
3826   1924 32 79 61            LD (6179H),A
3827   1927 11 55 1A            LD DE,1A55H
3828   192A CD D5 0F    L0493:  CALL L0007
3829   192D 21 00 00            LD HL,0000H
3830   1930 22 61 68            LD (6861H),HL
3831   1933 22 63 68            LD (6863H),HL
3832   1936 22 6D 61            LD (616DH),HL
3833   1939 22 6F 61            LD (616FH),HL
3834   193C 22 71 61            LD (6171H),HL
3835   193F 22 73 61            LD (6173H),HL
3836   1942 21 0A 1B            LD HL,1B0AH
3837   1945 CD CD 19            CALL L0485
3838   1948 DB 58       L0483:  IN A,(58H)
3839   194A 3C                  INC A
3840   194B 20 FB               JR NZ,L0483
3841   194D CD 70 15            CALL L0327
3842   1950 DB 58               IN A,(58H)
3843   1952 CB 67               BIT 4,A
3844   1954 C8                  RET Z
3845   1955 CB 77               BIT 6,A
3846   1957 28 31               JR Z,L0486
3847   1959 CB 6F               BIT 5,A
3848   195B 20 F3               JR NZ,L0487
3849   195D CD E2 19    L0495:  CALL L0488
3850   1960 C0                  RET NZ
3851   1961 CD 2C 1A            CALL L0489
3852   1964 21 20 1B            LD HL,1B20H
3853   1967 CD D6 19            CALL L0490
3854   196A CD D0 19    L0494:  CALL L0491
3855   196D C4 9B 19            CALL NZ,L0492
3856   1970 38 B8               JR C,L0493
3857   1972 FD 7E 0A            LD A,(IY+0AH)
3858   1975 3C                  INC A
3859   1976 FD 77 0A            LD (IY+0AH),A
3860   1979 FE 88               CP 88H
3861   197B 20 ED               JR NZ,L0494
3862   197D 21 15 1B            LD HL,1B15H
3863   1980 CD CD 19            CALL L0485
3864   1983 C4 9B 19            CALL NZ,L0492
3865   1986 38 A2               JR C,L0493
3866   1988 18 D3               JR L0495
3867   198A CD E2 19    L0486:  CALL L0488
3868   198D C0                  RET NZ
3869   198E 21 15 1B            LD HL,1B15H
3870   1991 CD CD 19            CALL L0485
3871   1994 C4 9B 19            CALL NZ,L0492
3872   1997 38 91               JR C,L0493
3873   1999 18 EF               JR L0486
3874   199B 4F          L0492:  LD C,A
3875   199C 2A 61 68            LD HL,(6861H)
3876   199F 25                  DEC H
3877   19A0 7C                  LD A,H
3878   19A1 B5                  OR L
3879   19A2 20 1C               JR NZ,L0496
3880   19A4 79                  LD A,C
3881   19A5 FE C3               CP 0C3H
3882   19A7 20 05               JR NZ,L0497
3883   19A9 11 9B 1A            LD DE,1A9BH
3884   19AC 18 10               JR L0498
3885   19AE FE C2       L0497:  CP 0C2H
3886   19B0 20 05               JR NZ,L0499
3887   19B2 11 78 1A            LD DE,1A78H
3888   19B5 18 07               JR L0498
3889   19B7 FE C4       L0499:  CP 0C4H
3890   19B9 20 05               JR NZ,L0496
3891   19BB 11 BE 1A            LD DE,1ABEH
3892   19BE 37          L0498:  SCF
3893   19BF C9                  RET
3894   19C0 3A 63 68    L0496:  LD A,(6863H)
3895   19C3 FE 63               CP 63H
3896   19C5 28 04               JR Z,L0500
3897   19C7 3C                  INC A
3898   19C8 32 63 68            LD (6863H),A
3899   19CB A7          L0500:  AND A
3900   19CC C9                  RET
3901   19CD CD D6 19    L0485:  CALL L0490
3902   19D0 CD AE 01    L0491:  CALL L0010
3903   19D3 FE 80               CP 80H
3904   19D5 C9                  RET
3905   19D6 11 7B 61    L0490:  LD DE,617BH
3906   19D9 D5                  PUSH DE
3907   19DA FD E1               POP IY
3908   19DC 01 0B 00            LD BC,000BH
3909   19DF ED B0               LDIR
3910   19E1 C9                  RET
3911   19E2 3A 62 68    L0488:  LD A,(6862H)
3912   19E5 3C                  INC A
3913   19E6 FE 64               CP 64H
3914   19E8 20 08               JR NZ,L0501
3915   19EA 3A 61 68            LD A,(6861H)
3916   19ED 3C                  INC A
3917   19EE 32 61 68            LD (6861H),A
3918   19F1 AF                  XOR A
3919   19F2 32 62 68    L0501:  LD (6862H),A
3920   19F5 2A 6D 61            LD HL,(616DH)
3921   19F8 CD 21 1A            CALL L0502
3922   19FB 32 64 68            LD (6864H),A
3923   19FE 2A 71 61            LD HL,(6171H)
3924   1A01 CD 21 1A            CALL L0502
3925   1A04 32 65 68            LD (6865H),A
3926   1A07 2A 73 61            LD HL,(6173H)
3927   1A0A ED 5B 6F 61         LD DE,(616FH)
3928   1A0E 19                  ADD HL,DE
3929   1A0F CD 21 1A            CALL L0502
3930   1A12 32 66 68            LD (6866H),A
3931   1A15 11 E1 1A            LD DE,1AE1H
3932   1A18 CD D5 0F            CALL L0007
3933   1A1B DB 58               IN A,(58H)
3934   1A1D 2F                  CPL
3935   1A1E E6 17               AND 17H
3936   1A20 C9                  RET
3937   1A21 11 64 00    L0502:  LD DE,0064H
3938   1A24 7D                  LD A,L
3939   1A25 A7                  AND A
3940   1A26 ED 52               SBC HL,DE
3941   1A28 D8                  RET C
3942   1A29 3E 63               LD A,63H
3943   1A2B C9                  RET
3944   1A2C ED 5F       L0489:  LD A,R
3945   1A2E 67                  LD H,A
3946   1A2F 6F                  LD L,A
3947   1A30 37                  SCF
3948   1A31 11 94 71            LD DE,7194H
3949   1A34 0E AB               LD C,0ABH
3950   1A36 3E 05               LD A,05H
3951   1A38 08          L0506:  EX AF,AF'
3952   1A39 06 18       L0505:  LD B,18H
3953   1A3B ED 6A       L0504:  ADC HL,HL
3954   1A3D 8F                  ADC A,A
3955   1A3E CB 6F               BIT 5,A
3956   1A40 28 01               JR Z,L0503
3957   1A42 3F                  CCF
3958   1A43 10 F6       L0503:  DJNZ L0504
3959   1A45 EB                  EX DE,HL
3960   1A46 73                  LD (HL),E
3961   1A47 23                  INC HL
3962   1A48 72                  LD (HL),D
3963   1A49 23                  INC HL
3964   1A4A 77                  LD (HL),A
3965   1A4B 23                  INC HL
3966   1A4C EB                  EX DE,HL
3967   1A4D 0D                  DEC C
3968   1A4E 20 E9               JR NZ,L0505
3969   1A50 08                  EX AF,AF'
3970   1A51 3D                  DEC A
3971   1A52 20 E4               JR NZ,L0506
3972   1A54 C9                  RET
3973   1A55 10 44               DJNZ L0507
3974   1A57 69                  LD L,C
3975   1A58 73                  LD (HL),E
3976   1A59 6B                  LD L,E
3977   1A5A 20 54               JR NZ,L0508
3978   1A5C 65                  LD H,L
3979   1A5D 73                  LD (HL),E
3980   1A5E 74                  LD (HL),H
3981   1A5F 3A 20 31            LD A,(3120H)
3982   1A62 3D                  DEC A
3983   1A63 56                  LD D,(HL)
3984   1A64 45                  LD B,L
3985   1A65 52                  LD D,D
3986   1A66 90                  SUB B
3987   1A67 32 3D 57            LD (573DH),A
3988   1A6A 52                  LD D,D
3989   1A6B 2F                  CPL
3990   1A6C 56                  LD D,(HL)
3991   1A6D 45                  LD B,L
3992   1A6E 52                  LD D,D
3993   1A6F 20 20               JR NZ,L0509
3994   1A71 33                  INC SP
3995   1A72 3D                  DEC A
3996   1A73 45                  LD B,L
3997   1A74 58                  LD E,B
3998   1A75 49                  LD C,C
3999   1A76 54                  LD D,H
4000   1A77 FE 10               CP 10H
4001   1A79 4E                  LD C,(HL)
4002   1A7A 6F                  LD L,A
4003   1A7B 74                  LD (HL),H
4004   1A7C 20 52               JR NZ,L0510
4005   1A7E 65                  LD H,L
4006   1A7F 61                  LD H,C
4007   1A80 64                  LD H,H
4008   1A81 79                  LD A,C
4009   1A82 3A 20 31            LD A,(3120H)
4010   1A85 3D                  DEC A
4011   1A86 56                  LD D,(HL)
4012   1A87 45                  LD B,L
4013   1A88 52                  LD D,D
4014   1A89 90                  SUB B
4015   1A8A 32 3D 57            LD (573DH),A
4016   1A8D 52                  LD D,D
4017   1A8E 2F                  CPL
4018   1A8F 56                  LD D,(HL)
4019   1A90 45                  LD B,L
4020   1A91 52          L0509:  LD D,D
4021   1A92 20 20               JR NZ,L0511
4022   1A94 33                  INC SP
4023   1A95 3D                  DEC A
4024   1A96 45                  LD B,L
4025   1A97 58                  LD E,B
4026   1A98 49                  LD C,C
4027   1A99 54                  LD D,H
4028   1A9A FE 10               CP 10H
4029   1A9C 57                  LD D,A
4030   1A9D 72                  LD (HL),D
4031   1A9E 69                  LD L,C
4032   1A9F 74                  LD (HL),H
4033   1AA0 65                  LD H,L
4034   1AA1 50                  LD D,B
4035   1AA2 72                  LD (HL),D
4036   1AA3 6F                  LD L,A
4037   1AA4 74                  LD (HL),H
4038   1AA5 3A 20 31            LD A,(3120H)
4039   1AA8 3D                  DEC A
4040   1AA9 56                  LD D,(HL)
4041   1AAA 45                  LD B,L
4042   1AAB 52                  LD D,D
4043   1AAC 90                  SUB B
4044   1AAD 32 3D 57            LD (573DH),A
4045   1AB0 52          L0508:  LD D,D
4046   1AB1 2F                  CPL
4047   1AB2 56                  LD D,(HL)
4048   1AB3 45                  LD B,L
4049   1AB4 52          L0511:  LD D,D
4050   1AB5 20 20               JR NZ,L0512
4051   1AB7 33                  INC SP
4052   1AB8 3D                  DEC A
4053   1AB9 45                  LD B,L
4054   1ABA 58                  LD E,B
4055   1ABB 49                  LD C,C
4056   1ABC 54                  LD D,H
4057   1ABD FE 10               CP 10H
4058   1ABF 4E                  LD C,(HL)
4059   1AC0 6F                  LD L,A
4060   1AC1 74                  LD (HL),H
4061   1AC2 46                  LD B,(HL)
4062   1AC3 6D                  LD L,L
4063   1AC4 74                  LD (HL),H
4064   1AC5 74                  LD (HL),H
4065   1AC6 65                  LD H,L
4066   1AC7 64                  LD H,H
4067   1AC8 3A 20 31            LD A,(3120H)
4068   1ACB 3D                  DEC A
4069   1ACC 56                  LD D,(HL)
4070   1ACD 45                  LD B,L
4071   1ACE 52                  LD D,D
4072   1ACF 90                  SUB B
4073   1AD0 32 3D 57    L0510:  LD (573DH),A
4074   1AD3 52                  LD D,D
4075   1AD4 2F                  CPL
4076   1AD5 56                  LD D,(HL)
4077   1AD6 45                  LD B,L
4078   1AD7 52          L0512:  LD D,D
4079   1AD8 20 20               JR NZ,L0513
4080   1ADA 33                  INC SP
4081   1ADB 3D                  DEC A
4082   1ADC 45                  LD B,L
4083   1ADD 58                  LD E,B
4084   1ADE 49                  LD C,C
4085   1ADF 54                  LD D,H
4086   1AE0 FE 10               CP 10H
4087   1AE2 50                  LD D,B
4088   1AE3 61                  LD H,C
4089   1AE4 73                  LD (HL),E
4090   1AE5 73                  LD (HL),E
4091   1AE6 20 48               JR NZ,L0514
4092   1AE8 45                  LD B,L
4093   1AE9 20 44               JR NZ,L0515
4094   1AEB 45                  LD B,L
4095   1AEC 20 53               JR NZ,L0516
4096   1AEE 45                  LD B,L
4097   1AEF 20 50               JR NZ,L0516
4098   1AF1 31 90 18            LD SP,1890H
4099   1AF4 61                  LD H,C
4100   1AF5 68                  LD L,B
4101   1AF6 18 62               JR L0517
4102   1AF8 68                  LD L,B
4103   1AF9 20 18               JR NZ,L0518
4104   1AFB 63                  LD H,E
4105   1AFC 68                  LD L,B
4106   1AFD 20 18               JR NZ,L0519
4107   1AFF 64                  LD H,H
4108   1B00 68                  LD L,B
4109   1B01 20 18               JR NZ,L0520
4110   1B03 65                  LD H,L
4111   1B04 68                  LD L,B
4112   1B05 20 18               JR NZ,L0521
4113   1B07 66                  LD H,(HL)
4114   1B08 68                  LD L,B
4115   1B09 FE 00               CP 00H
4116   1B0B 00                  NOP
4117   1B0C 00                  NOP
4118   1B0D 00                  NOP
4119   1B0E 00                  NOP
4120   1B0F 00                  NOP
4121   1B10 00                  NOP
4122   1B11 00                  NOP
4123   1B12 00                  NOP
4124   1B13 00          L0518:  NOP
4125   1B14 00                  NOP
4126   1B15 0A                  LD A,(BC)
4127   1B16 00                  NOP
4128   1B17 00          L0519:  NOP
4129   1B18 80                  ADD A,B
4130   1B19 00                  NOP
4131   1B1A EA 04 00            JP PE,L0522
4132   1B1D 00                  NOP
4133   1B1E 00                  NOP
4134   1B1F 00          L0521:  NOP
4135   1B20 0E 94               LD C,94H
4136   1B22 71                  LD (HL),C
4137   1B23 00                  NOP
4138   1B24 00                  NOP
4139   1B25 0E 00               LD C,00H
4140   1B27 00                  NOP
4141   1B28 00                  NOP
4142   1B29 00                  NOP
4143   1B2A 00                  NOP
4144   1B2B 00                  NOP
4145   1B2C 00                  NOP
4146   1B2D 00                  NOP
4147   1B2E 00                  NOP
4148   1B2F 00          L0515:  NOP
4149   1B30 00          L0514:  NOP
4150   1B31 00                  NOP
4151   1B32 00                  NOP
4152   1B33 00                  NOP
4153   1B34 00                  NOP
4154   1B35 00                  NOP
4155   1B36 00                  NOP
4156   1B37 00                  NOP
4157   1B38 00                  NOP
4158   1B39 00                  NOP
4159   1B3A 00                  NOP
4160   1B3B 00                  NOP
4161   1B3C 00                  NOP
4162   1B3D 00                  NOP
4163   1B3E 00                  NOP
4164   1B3F 00                  NOP
4165   1B40 00                  NOP
4166   1B41 00          L0516:  NOP
4167   1B42 00                  NOP
4168   1B43 00                  NOP
4169   1B44 00                  NOP
4170   1B45 00                  NOP
4171   1B46 00                  NOP
4172   1B47 00                  NOP
4173   1B48 00                  NOP
4174   1B49 00                  NOP
4175   1B4A 00                  NOP
4176   1B4B 00                  NOP
4177   1B4C 00                  NOP
4178   1B4D 00                  NOP
4179   1B4E 00                  NOP
4180   1B4F 00                  NOP
4181   1B50 00                  NOP
4182   1B51 00                  NOP
4183   1B52 00                  NOP
4184   1B53 00                  NOP
4185   1B54 00                  NOP
4186   1B55 00                  NOP
4187   1B56 00                  NOP
4188   1B57 00                  NOP
4189   1B58 00                  NOP
4190   1B59 00                  NOP
4191   1B5A 00          L0517:  NOP
4192   1B5B 00                  NOP
4193   1B5C 00                  NOP
4194   1B5D 00                  NOP
4195   1B5E 00                  NOP
4196   1B5F 00                  NOP
4197   1B60 00                  NOP
4198   1B61 00                  NOP
4199   1B62 00                  NOP
4200   1B63 00                  NOP
4201   1B64 00                  NOP
4202   1B65 00                  NOP
4203   1B66 00                  NOP
4204   1B67 00                  NOP
4205   1B68 00                  NOP
4206   1B69 00                  NOP
4207   1B6A 00                  NOP
4208   1B6B 00                  NOP
4209   1B6C 00                  NOP
4210   1B6D 00                  NOP
4211   1B6E 00                  NOP
4212   1B6F 00                  NOP
4213   1B70 00                  NOP
4214   1B71 00                  NOP
4215   1B72 00                  NOP
4216   1B73 00                  NOP
4217   1B74 00                  NOP
4218   1B75 00                  NOP
4219   1B76 00                  NOP
4220   1B77 00                  NOP
4221   1B78 00                  NOP
4222   1B79 00                  NOP
4223   1B7A 00                  NOP
4224   1B7B 00                  NOP
4225   1B7C 00                  NOP
4226   1B7D 00                  NOP
4227   1B7E 00                  NOP
4228   1B7F 00                  NOP
4229   1B80 00                  NOP
4230   1B81 00                  NOP
4231   1B82 00                  NOP
4232   1B83 00                  NOP
4233   1B84 00                  NOP
4234   1B85 00                  NOP
4235   1B86 00                  NOP
4236   1B87 00                  NOP
4237   1B88 00                  NOP
4238   1B89 00                  NOP
4239   1B8A 00                  NOP
4240   1B8B 00                  NOP
4241   1B8C 00                  NOP
4242   1B8D 00                  NOP
4243   1B8E 00                  NOP
4244   1B8F 00                  NOP
4245   1B90 00                  NOP
4246   1B91 00                  NOP
4247   1B92 00                  NOP
4248   1B93 00                  NOP
4249   1B94 00                  NOP
4250   1B95 00                  NOP
4251   1B96 00                  NOP
4252   1B97 00                  NOP
4253   1B98 00                  NOP
4254   1B99 00                  NOP
4255   1B9A 00                  NOP
4256   1B9B 00                  NOP
4257   1B9C 00                  NOP
4258   1B9D 00                  NOP
4259   1B9E 00                  NOP
4260   1B9F 00                  NOP
4261   1BA0 00                  NOP
4262   1BA1 00                  NOP
4263   1BA2 00                  NOP
4264   1BA3 00                  NOP
4265   1BA4 00                  NOP
4266   1BA5 00                  NOP
4267   1BA6 00                  NOP
4268   1BA7 00                  NOP
4269   1BA8 00                  NOP
4270   1BA9 00                  NOP
4271   1BAA 00                  NOP
4272   1BAB 00                  NOP
4273   1BAC 00                  NOP
4274   1BAD 00                  NOP
4275   1BAE 00                  NOP
4276   1BAF 00                  NOP
4277   1BB0 00                  NOP
4278   1BB1 00                  NOP
4279   1BB2 00                  NOP
4280   1BB3 00                  NOP
4281   1BB4 00                  NOP
4282   1BB5 00                  NOP
4283   1BB6 00                  NOP
4284   1BB7 00                  NOP
4285   1BB8 00                  NOP
4286   1BB9 00                  NOP
4287   1BBA 00                  NOP
4288   1BBB 00                  NOP
4289   1BBC 00                  NOP
4290   1BBD 00                  NOP
4291   1BBE 00                  NOP
4292   1BBF 00                  NOP
4293   1BC0 00                  NOP
4294   1BC1 00                  NOP
4295   1BC2 00                  NOP
4296   1BC3 00                  NOP
4297   1BC4 00                  NOP
4298   1BC5 00                  NOP
4299   1BC6 00                  NOP
4300   1BC7 00                  NOP
4301   1BC8 00                  NOP
4302   1BC9 00                  NOP
4303   1BCA 00                  NOP
4304   1BCB 00                  NOP
4305   1BCC 00                  NOP
4306   1BCD 00                  NOP
4307   1BCE 00                  NOP
4308   1BCF 00                  NOP
4309   1BD0 00                  NOP
4310   1BD1 00                  NOP
4311   1BD2 00                  NOP
4312   1BD3 00                  NOP
4313   1BD4 00                  NOP
4314   1BD5 00                  NOP
4315   1BD6 00                  NOP
4316   1BD7 00                  NOP
4317   1BD8 00                  NOP
4318   1BD9 00                  NOP
4319   1BDA 00                  NOP
4320   1BDB 00                  NOP
4321   1BDC 00                  NOP
4322   1BDD 00                  NOP
4323   1BDE 00                  NOP
4324   1BDF 00                  NOP
4325   1BE0 00                  NOP
4326   1BE1 00                  NOP
4327   1BE2 00                  NOP
4328   1BE3 00                  NOP
4329   1BE4 00                  NOP
4330   1BE5 00                  NOP
4331   1BE6 00                  NOP
4332   1BE7 00                  NOP
4333   1BE8 00                  NOP
4334   1BE9 00                  NOP
4335   1BEA 00                  NOP
4336   1BEB 00                  NOP
4337   1BEC 00                  NOP
4338   1BED 00                  NOP
4339   1BEE 00                  NOP
4340   1BEF 00                  NOP
4341   1BF0 00                  NOP
4342   1BF1 00                  NOP
4343   1BF2 00                  NOP
4344   1BF3 00                  NOP
4345   1BF4 00                  NOP
4346   1BF5 00                  NOP
4347   1BF6 00                  NOP
4348   1BF7 00                  NOP
4349   1BF8 00                  NOP
4350   1BF9 00                  NOP
4351   1BFA 00                  NOP
4352   1BFB 00                  NOP
4353   1BFC 00                  NOP
4354   1BFD 00                  NOP
4355   1BFE 00                  NOP
4356   1BFF 00                  NOP
4357   1C00 00                  NOP
4358   1C01 00                  NOP
4359   1C02 00                  NOP
4360   1C03 00                  NOP
4361   1C04 00                  NOP
4362   1C05 00                  NOP
4363   1C06 00                  NOP
4364   1C07 00                  NOP
4365   1C08 00                  NOP
4366   1C09 00                  NOP
4367   1C0A 00                  NOP
4368   1C0B 00                  NOP
4369   1C0C 00                  NOP
4370   1C0D 00                  NOP
4371   1C0E 00                  NOP
4372   1C0F 00                  NOP
4373   1C10 00                  NOP
4374   1C11 00                  NOP
4375   1C12 00                  NOP
4376   1C13 00                  NOP
4377   1C14 00                  NOP
4378   1C15 00                  NOP
4379   1C16 00                  NOP
4380   1C17 00                  NOP
4381   1C18 00                  NOP
4382   1C19 00                  NOP
4383   1C1A 00                  NOP
4384   1C1B 00                  NOP
4385   1C1C 00                  NOP
4386   1C1D 00                  NOP
4387   1C1E 00                  NOP
4388   1C1F 00                  NOP
4389   1C20 00                  NOP
4390   1C21 00                  NOP
4391   1C22 00                  NOP
4392   1C23 00                  NOP
4393   1C24 00                  NOP
4394   1C25 00                  NOP
4395   1C26 00                  NOP
4396   1C27 00                  NOP
4397   1C28 00                  NOP
4398   1C29 00                  NOP
4399   1C2A 00                  NOP
4400   1C2B 00                  NOP
4401   1C2C 00                  NOP
4402   1C2D 00                  NOP
4403   1C2E 00                  NOP
4404   1C2F 00                  NOP
4405   1C30 00                  NOP
4406   1C31 00                  NOP
4407   1C32 00                  NOP
4408   1C33 00                  NOP
4409   1C34 00                  NOP
4410   1C35 00                  NOP
4411   1C36 00                  NOP
4412   1C37 00                  NOP
4413   1C38 00                  NOP
4414   1C39 00                  NOP
4415   1C3A 00                  NOP
4416   1C3B 00                  NOP
4417   1C3C 00                  NOP
4418   1C3D 00                  NOP
4419   1C3E 00                  NOP
4420   1C3F 00                  NOP
4421   1C40 00                  NOP
4422   1C41 00                  NOP
4423   1C42 00                  NOP
4424   1C43 00                  NOP
4425   1C44 00                  NOP
4426   1C45 00                  NOP
4427   1C46 00                  NOP
4428   1C47 00                  NOP
4429   1C48 00                  NOP
4430   1C49 00                  NOP
4431   1C4A 00                  NOP
4432   1C4B 00                  NOP
4433   1C4C 00                  NOP
4434   1C4D 00                  NOP
4435   1C4E 00                  NOP
4436   1C4F 00                  NOP
4437   1C50 00                  NOP
4438   1C51 00                  NOP
4439   1C52 00                  NOP
4440   1C53 00                  NOP
4441   1C54 00                  NOP
4442   1C55 00                  NOP
4443   1C56 00                  NOP
4444   1C57 00                  NOP
4445   1C58 00                  NOP
4446   1C59 00                  NOP
4447   1C5A 00                  NOP
4448   1C5B 00                  NOP
4449   1C5C 00                  NOP
4450   1C5D 00                  NOP
4451   1C5E 00                  NOP
4452   1C5F 00                  NOP
4453   1C60 00                  NOP
4454   1C61 00                  NOP
4455   1C62 00                  NOP
4456   1C63 00                  NOP
4457   1C64 00                  NOP
4458   1C65 00                  NOP
4459   1C66 00                  NOP
4460   1C67 00                  NOP
4461   1C68 00                  NOP
4462   1C69 00                  NOP
4463   1C6A 00                  NOP
4464   1C6B 00                  NOP
4465   1C6C 00                  NOP
4466   1C6D 00                  NOP
4467   1C6E 00                  NOP
4468   1C6F 00                  NOP
4469   1C70 00                  NOP
4470   1C71 00                  NOP
4471   1C72 00                  NOP
4472   1C73 00                  NOP
4473   1C74 00                  NOP
4474   1C75 00                  NOP
4475   1C76 00                  NOP
4476   1C77 00                  NOP
4477   1C78 00                  NOP
4478   1C79 00                  NOP
4479   1C7A 00                  NOP
4480   1C7B 00                  NOP
4481   1C7C 00                  NOP
4482   1C7D 00                  NOP
4483   1C7E 00                  NOP
4484   1C7F 00                  NOP
4485   1C80 00                  NOP
4486   1C81 00                  NOP
4487   1C82 00                  NOP
4488   1C83 00                  NOP
4489   1C84 00                  NOP
4490   1C85 00                  NOP
4491   1C86 00                  NOP
4492   1C87 00                  NOP
4493   1C88 00                  NOP
4494   1C89 00                  NOP
4495   1C8A 00                  NOP
4496   1C8B 00                  NOP
4497   1C8C 00                  NOP
4498   1C8D 00                  NOP
4499   1C8E 00                  NOP
4500   1C8F 00                  NOP
4501   1C90 00                  NOP
4502   1C91 00                  NOP
4503   1C92 00                  NOP
4504   1C93 00                  NOP
4505   1C94 00                  NOP
4506   1C95 00                  NOP
4507   1C96 00                  NOP
4508   1C97 00                  NOP
4509   1C98 00                  NOP
4510   1C99 00                  NOP
4511   1C9A 00                  NOP
4512   1C9B 00                  NOP
4513   1C9C 00                  NOP
4514   1C9D 00                  NOP
4515   1C9E 00                  NOP
4516   1C9F 00                  NOP
4517   1CA0 00                  NOP
4518   1CA1 00                  NOP
4519   1CA2 00                  NOP
4520   1CA3 00                  NOP
4521   1CA4 00                  NOP
4522   1CA5 00                  NOP
4523   1CA6 00                  NOP
4524   1CA7 00                  NOP
4525   1CA8 00                  NOP
4526   1CA9 00                  NOP
4527   1CAA 00                  NOP
4528   1CAB 00                  NOP
4529   1CAC 00                  NOP
4530   1CAD 00                  NOP
4531   1CAE 00                  NOP
4532   1CAF 00                  NOP
4533   1CB0 00                  NOP
4534   1CB1 00                  NOP
4535   1CB2 00                  NOP
4536   1CB3 00                  NOP
4537   1CB4 00                  NOP
4538   1CB5 00                  NOP
4539   1CB6 00                  NOP
4540   1CB7 00                  NOP
4541   1CB8 00                  NOP
4542   1CB9 00                  NOP
4543   1CBA 00                  NOP
4544   1CBB 00                  NOP
4545   1CBC 00                  NOP
4546   1CBD 00                  NOP
4547   1CBE 00                  NOP
4548   1CBF 00                  NOP
4549   1CC0 00                  NOP
4550   1CC1 00                  NOP
4551   1CC2 00                  NOP
4552   1CC3 00                  NOP
4553   1CC4 00                  NOP
4554   1CC5 00                  NOP
4555   1CC6 00                  NOP
4556   1CC7 00                  NOP
4557   1CC8 00                  NOP
4558   1CC9 00                  NOP
4559   1CCA 00                  NOP
4560   1CCB 00                  NOP
4561   1CCC 00                  NOP
4562   1CCD 00                  NOP
4563   1CCE 00                  NOP
4564   1CCF 00                  NOP
4565   1CD0 00                  NOP
4566   1CD1 00                  NOP
4567   1CD2 00                  NOP
4568   1CD3 00                  NOP
4569   1CD4 00                  NOP
4570   1CD5 00                  NOP
4571   1CD6 00                  NOP
4572   1CD7 00                  NOP
4573   1CD8 00                  NOP
4574   1CD9 00                  NOP
4575   1CDA 00                  NOP
4576   1CDB 00                  NOP
4577   1CDC 00                  NOP
4578   1CDD 00                  NOP
4579   1CDE 00                  NOP
4580   1CDF 00                  NOP
4581   1CE0 00                  NOP
4582   1CE1 00                  NOP
4583   1CE2 00                  NOP
4584   1CE3 00                  NOP
4585   1CE4 00                  NOP
4586   1CE5 00                  NOP
4587   1CE6 00                  NOP
4588   1CE7 00                  NOP
4589   1CE8 00                  NOP
4590   1CE9 00                  NOP
4591   1CEA 00                  NOP
4592   1CEB 00                  NOP
4593   1CEC 00                  NOP
4594   1CED 00                  NOP
4595   1CEE 00                  NOP
4596   1CEF 00                  NOP
4597   1CF0 00                  NOP
4598   1CF1 00                  NOP
4599   1CF2 00                  NOP
4600   1CF3 00                  NOP
4601   1CF4 00                  NOP
4602   1CF5 00                  NOP
4603   1CF6 00                  NOP
4604   1CF7 00                  NOP
4605   1CF8 00                  NOP
4606   1CF9 00                  NOP
4607   1CFA 00                  NOP
4608   1CFB 00                  NOP
4609   1CFC 00                  NOP
4610   1CFD 00                  NOP
4611   1CFE 00                  NOP
4612   1CFF 00                  NOP
4613   1D00 00                  NOP
4614   1D01 00                  NOP
4615   1D02 00                  NOP
4616   1D03 00                  NOP
4617   1D04 00                  NOP
4618   1D05 00                  NOP
4619   1D06 00                  NOP
4620   1D07 00                  NOP
4621   1D08 00                  NOP
4622   1D09 00                  NOP
4623   1D0A 00                  NOP
4624   1D0B 00                  NOP
4625   1D0C 00                  NOP
4626   1D0D 00                  NOP
4627   1D0E 00                  NOP
4628   1D0F 00                  NOP
4629   1D10 00                  NOP
4630   1D11 00                  NOP
4631   1D12 00                  NOP
4632   1D13 00                  NOP
4633   1D14 00                  NOP
4634   1D15 00                  NOP
4635   1D16 00                  NOP
4636   1D17 00                  NOP
4637   1D18 00                  NOP
4638   1D19 00                  NOP
4639   1D1A 00                  NOP
4640   1D1B 00                  NOP
4641   1D1C 00                  NOP
4642   1D1D 00                  NOP
4643   1D1E 00                  NOP
4644   1D1F 00                  NOP
4645   1D20 00                  NOP
4646   1D21 00                  NOP
4647   1D22 00                  NOP
4648   1D23 00                  NOP
4649   1D24 00                  NOP
4650   1D25 00                  NOP
4651   1D26 00                  NOP
4652   1D27 00                  NOP
4653   1D28 00                  NOP
4654   1D29 00                  NOP
4655   1D2A 00                  NOP
4656   1D2B 00                  NOP
4657   1D2C 00                  NOP
4658   1D2D 00                  NOP
4659   1D2E 00                  NOP
4660   1D2F 00                  NOP
4661   1D30 00                  NOP
4662   1D31 00                  NOP
4663   1D32 00                  NOP
4664   1D33 00                  NOP
4665   1D34 00                  NOP
4666   1D35 00                  NOP
4667   1D36 00                  NOP
4668   1D37 00                  NOP
4669   1D38 00                  NOP
4670   1D39 00                  NOP
4671   1D3A 00                  NOP
4672   1D3B 00                  NOP
4673   1D3C 00                  NOP
4674   1D3D 00                  NOP
4675   1D3E 00                  NOP
4676   1D3F 00                  NOP
4677   1D40 00                  NOP
4678   1D41 00                  NOP
4679   1D42 00                  NOP
4680   1D43 00                  NOP
4681   1D44 00                  NOP
4682   1D45 00                  NOP
4683   1D46 00                  NOP
4684   1D47 00                  NOP
4685   1D48 00                  NOP
4686   1D49 00                  NOP
4687   1D4A 00                  NOP
4688   1D4B 00                  NOP
4689   1D4C 00                  NOP
4690   1D4D 00                  NOP
4691   1D4E 00                  NOP
4692   1D4F 00                  NOP
4693   1D50 00                  NOP
4694   1D51 00                  NOP
4695   1D52 00                  NOP
4696   1D53 00                  NOP
4697   1D54 00                  NOP
4698   1D55 00                  NOP
4699   1D56 00                  NOP
4700   1D57 00                  NOP
4701   1D58 00                  NOP
4702   1D59 00                  NOP
4703   1D5A 00                  NOP
4704   1D5B 00                  NOP
4705   1D5C 00                  NOP
4706   1D5D 00                  NOP
4707   1D5E 00                  NOP
4708   1D5F 00                  NOP
4709   1D60 00                  NOP
4710   1D61 00                  NOP
4711   1D62 00                  NOP
4712   1D63 00                  NOP
4713   1D64 00                  NOP
4714   1D65 00                  NOP
4715   1D66 00                  NOP
4716   1D67 00                  NOP
4717   1D68 00                  NOP
4718   1D69 00                  NOP
4719   1D6A 00                  NOP
4720   1D6B 00                  NOP
4721   1D6C 00                  NOP
4722   1D6D 00                  NOP
4723   1D6E 00                  NOP
4724   1D6F 00                  NOP
4725   1D70 00                  NOP
4726   1D71 00                  NOP
4727   1D72 00                  NOP
4728   1D73 00                  NOP
4729   1D74 00                  NOP
4730   1D75 00                  NOP
4731   1D76 00                  NOP
4732   1D77 00                  NOP
4733   1D78 00                  NOP
4734   1D79 00                  NOP
4735   1D7A 00                  NOP
4736   1D7B 00                  NOP
4737   1D7C 00                  NOP
4738   1D7D 00                  NOP
4739   1D7E 00                  NOP
4740   1D7F 00                  NOP
4741   1D80 00                  NOP
4742   1D81 00                  NOP
4743   1D82 00                  NOP
4744   1D83 00                  NOP
4745   1D84 00                  NOP
4746   1D85 00                  NOP
4747   1D86 00                  NOP
4748   1D87 00                  NOP
4749   1D88 00                  NOP
4750   1D89 00                  NOP
4751   1D8A 00                  NOP
4752   1D8B 00                  NOP
4753   1D8C 00                  NOP
4754   1D8D 00                  NOP
4755   1D8E 00                  NOP
4756   1D8F 00                  NOP
4757   1D90 00                  NOP
4758   1D91 00                  NOP
4759   1D92 00                  NOP
4760   1D93 00                  NOP
4761   1D94 00                  NOP
4762   1D95 00                  NOP
4763   1D96 00                  NOP
4764   1D97 00                  NOP
4765   1D98 00                  NOP
4766   1D99 00                  NOP
4767   1D9A 00                  NOP
4768   1D9B 00                  NOP
4769   1D9C 00                  NOP
4770   1D9D 00                  NOP
4771   1D9E 00                  NOP
4772   1D9F 00                  NOP
4773   1DA0 00                  NOP
4774   1DA1 00                  NOP
4775   1DA2 00                  NOP
4776   1DA3 00                  NOP
4777   1DA4 00                  NOP
4778   1DA5 00                  NOP
4779   1DA6 00                  NOP
4780   1DA7 00                  NOP
4781   1DA8 00                  NOP
4782   1DA9 00                  NOP
4783   1DAA 00                  NOP
4784   1DAB 00                  NOP
4785   1DAC 00                  NOP
4786   1DAD 00                  NOP
4787   1DAE 00                  NOP
4788   1DAF 00                  NOP
4789   1DB0 00                  NOP
4790   1DB1 00                  NOP
4791   1DB2 00                  NOP
4792   1DB3 00                  NOP
4793   1DB4 00                  NOP
4794   1DB5 00                  NOP
4795   1DB6 00                  NOP
4796   1DB7 00                  NOP
4797   1DB8 00                  NOP
4798   1DB9 00                  NOP
4799   1DBA 00                  NOP
4800   1DBB 00                  NOP
4801   1DBC 00                  NOP
4802   1DBD 00                  NOP
4803   1DBE 00                  NOP
4804   1DBF 00                  NOP
4805   1DC0 00                  NOP
4806   1DC1 00                  NOP
4807   1DC2 00                  NOP
4808   1DC3 00                  NOP
4809   1DC4 00                  NOP
4810   1DC5 00                  NOP
4811   1DC6 00                  NOP
4812   1DC7 00                  NOP
4813   1DC8 00                  NOP
4814   1DC9 00                  NOP
4815   1DCA 00                  NOP
4816   1DCB 00                  NOP
4817   1DCC 00                  NOP
4818   1DCD 00                  NOP
4819   1DCE 00                  NOP
4820   1DCF 00                  NOP
4821   1DD0 00                  NOP
4822   1DD1 00                  NOP
4823   1DD2 00                  NOP
4824   1DD3 00                  NOP
4825   1DD4 00                  NOP
4826   1DD5 00                  NOP
4827   1DD6 00                  NOP
4828   1DD7 00                  NOP
4829   1DD8 00                  NOP
4830   1DD9 00                  NOP
4831   1DDA 00                  NOP
4832   1DDB 00                  NOP
4833   1DDC 00                  NOP
4834   1DDD 00                  NOP
4835   1DDE 00                  NOP
4836   1DDF 00                  NOP
4837   1DE0 00                  NOP
4838   1DE1 00                  NOP
4839   1DE2 00                  NOP
4840   1DE3 00                  NOP
4841   1DE4 00                  NOP
4842   1DE5 00                  NOP
4843   1DE6 00                  NOP
4844   1DE7 00                  NOP
4845   1DE8 00                  NOP
4846   1DE9 00                  NOP
4847   1DEA 00                  NOP
4848   1DEB 00                  NOP
4849   1DEC 00                  NOP
4850   1DED 00                  NOP
4851   1DEE 00                  NOP
4852   1DEF 00                  NOP
4853   1DF0 00                  NOP
4854   1DF1 00                  NOP
4855   1DF2 00                  NOP
4856   1DF3 00                  NOP
4857   1DF4 00                  NOP
4858   1DF5 00                  NOP
4859   1DF6 00                  NOP
4860   1DF7 00                  NOP
4861   1DF8 00                  NOP
4862   1DF9 00                  NOP
4863   1DFA 00                  NOP
4864   1DFB 00                  NOP
4865   1DFC 00                  NOP
4866   1DFD 00                  NOP
4867   1DFE 00                  NOP
4868   1DFF 00                  NOP
4869   1E00 00                  NOP
4870   1E01 00                  NOP
4871   1E02 00                  NOP
4872   1E03 00                  NOP
4873   1E04 00                  NOP
4874   1E05 00                  NOP
4875   1E06 00                  NOP
4876   1E07 00                  NOP
4877   1E08 00                  NOP
4878   1E09 00                  NOP
4879   1E0A 00                  NOP
4880   1E0B 00                  NOP
4881   1E0C 00                  NOP
4882   1E0D 00                  NOP
4883   1E0E 00                  NOP
4884   1E0F 00                  NOP
4885   1E10 00                  NOP
4886   1E11 00                  NOP
4887   1E12 00                  NOP
4888   1E13 00                  NOP
4889   1E14 00                  NOP
4890   1E15 00                  NOP
4891   1E16 00                  NOP
4892   1E17 00                  NOP
4893   1E18 00                  NOP
4894   1E19 00                  NOP
4895   1E1A 00                  NOP
4896   1E1B 00                  NOP
4897   1E1C 00                  NOP
4898   1E1D 00                  NOP
4899   1E1E 00                  NOP
4900   1E1F 00                  NOP
4901   1E20 00                  NOP
4902   1E21 00                  NOP
4903   1E22 00                  NOP
4904   1E23 00                  NOP
4905   1E24 00                  NOP
4906   1E25 00                  NOP
4907   1E26 00                  NOP
4908   1E27 00                  NOP
4909   1E28 00                  NOP
4910   1E29 00                  NOP
4911   1E2A 00                  NOP
4912   1E2B 00                  NOP
4913   1E2C 00                  NOP
4914   1E2D 00                  NOP
4915   1E2E 00                  NOP
4916   1E2F 00                  NOP
4917   1E30 00                  NOP
4918   1E31 00                  NOP
4919   1E32 00                  NOP
4920   1E33 00                  NOP
4921   1E34 00                  NOP
4922   1E35 00                  NOP
4923   1E36 00                  NOP
4924   1E37 00                  NOP
4925   1E38 00                  NOP
4926   1E39 00                  NOP
4927   1E3A 00                  NOP
4928   1E3B 00                  NOP
4929   1E3C 00                  NOP
4930   1E3D 00                  NOP
4931   1E3E 00                  NOP
4932   1E3F 00                  NOP
4933   1E40 00                  NOP
4934   1E41 00                  NOP
4935   1E42 00                  NOP
4936   1E43 00                  NOP
4937   1E44 00                  NOP
4938   1E45 00                  NOP
4939   1E46 00                  NOP
4940   1E47 00                  NOP
4941   1E48 00                  NOP
4942   1E49 00                  NOP
4943   1E4A 00                  NOP
4944   1E4B 00                  NOP
4945   1E4C 00                  NOP
4946   1E4D 00                  NOP
4947   1E4E 00                  NOP
4948   1E4F 00                  NOP
4949   1E50 00                  NOP
4950   1E51 00                  NOP
4951   1E52 00                  NOP
4952   1E53 00                  NOP
4953   1E54 00                  NOP
4954   1E55 00                  NOP
4955   1E56 00                  NOP
4956   1E57 00                  NOP
4957   1E58 00                  NOP
4958   1E59 00                  NOP
4959   1E5A 00                  NOP
4960   1E5B 00                  NOP
4961   1E5C 00                  NOP
4962   1E5D 00                  NOP
4963   1E5E 00                  NOP
4964   1E5F 00                  NOP
4965   1E60 00                  NOP
4966   1E61 00                  NOP
4967   1E62 00                  NOP
4968   1E63 00                  NOP
4969   1E64 00                  NOP
4970   1E65 00                  NOP
4971   1E66 00                  NOP
4972   1E67 00                  NOP
4973   1E68 00                  NOP
4974   1E69 00                  NOP
4975   1E6A 00                  NOP
4976   1E6B 00                  NOP
4977   1E6C 00                  NOP
4978   1E6D 00                  NOP
4979   1E6E 00                  NOP
4980   1E6F 00                  NOP
4981   1E70 00                  NOP
4982   1E71 00                  NOP
4983   1E72 00                  NOP
4984   1E73 00                  NOP
4985   1E74 00                  NOP
4986   1E75 00                  NOP
4987   1E76 00                  NOP
4988   1E77 00                  NOP
4989   1E78 00                  NOP
4990   1E79 00                  NOP
4991   1E7A 00                  NOP
4992   1E7B 00                  NOP
4993   1E7C 00                  NOP
4994   1E7D 00                  NOP
4995   1E7E 00                  NOP
4996   1E7F 00                  NOP
4997   1E80 00                  NOP
4998   1E81 00                  NOP
4999   1E82 00                  NOP
5000   1E83 00                  NOP
5001   1E84 00                  NOP
5002   1E85 00                  NOP
5003   1E86 00                  NOP
5004   1E87 00                  NOP
5005   1E88 00                  NOP
5006   1E89 00                  NOP
5007   1E8A 00                  NOP
5008   1E8B 00                  NOP
5009   1E8C 00                  NOP
5010   1E8D 00                  NOP
5011   1E8E 00                  NOP
5012   1E8F 00                  NOP
5013   1E90 00                  NOP
5014   1E91 00                  NOP
5015   1E92 00                  NOP
5016   1E93 00                  NOP
5017   1E94 00                  NOP
5018   1E95 00                  NOP
5019   1E96 00                  NOP
5020   1E97 00                  NOP
5021   1E98 00                  NOP
5022   1E99 00                  NOP
5023   1E9A 00                  NOP
5024   1E9B 00                  NOP
5025   1E9C 00                  NOP
5026   1E9D 00                  NOP
5027   1E9E 00                  NOP
5028   1E9F 00                  NOP
5029   1EA0 00                  NOP
5030   1EA1 00                  NOP
5031   1EA2 00                  NOP
5032   1EA3 00                  NOP
5033   1EA4 00                  NOP
5034   1EA5 00                  NOP
5035   1EA6 00                  NOP
5036   1EA7 00                  NOP
5037   1EA8 00                  NOP
5038   1EA9 00                  NOP
5039   1EAA 00                  NOP
5040   1EAB 00                  NOP
5041   1EAC 00                  NOP
5042   1EAD 00                  NOP
5043   1EAE 00                  NOP
5044   1EAF 00                  NOP
5045   1EB0 00                  NOP
5046   1EB1 00                  NOP
5047   1EB2 00                  NOP
5048   1EB3 00                  NOP
5049   1EB4 00                  NOP
5050   1EB5 00                  NOP
5051   1EB6 00                  NOP
5052   1EB7 00                  NOP
5053   1EB8 00                  NOP
5054   1EB9 00                  NOP
5055   1EBA 00                  NOP
5056   1EBB 00                  NOP
5057   1EBC 00                  NOP
5058   1EBD 00                  NOP
5059   1EBE 00                  NOP
5060   1EBF 00                  NOP
5061   1EC0 00                  NOP
5062   1EC1 00                  NOP
5063   1EC2 00                  NOP
5064   1EC3 00                  NOP
5065   1EC4 00                  NOP
5066   1EC5 00                  NOP
5067   1EC6 00                  NOP
5068   1EC7 00                  NOP
5069   1EC8 00                  NOP
5070   1EC9 00                  NOP
5071   1ECA 00                  NOP
5072   1ECB 00                  NOP
5073   1ECC 00                  NOP
5074   1ECD 00                  NOP
5075   1ECE 00                  NOP
5076   1ECF 00                  NOP
5077   1ED0 00                  NOP
5078   1ED1 00                  NOP
5079   1ED2 00                  NOP
5080   1ED3 00                  NOP
5081   1ED4 00                  NOP
5082   1ED5 00                  NOP
5083   1ED6 00                  NOP
5084   1ED7 00                  NOP
5085   1ED8 00                  NOP
5086   1ED9 00                  NOP
5087   1EDA 00                  NOP
5088   1EDB 00                  NOP
5089   1EDC 00                  NOP
5090   1EDD 00                  NOP
5091   1EDE 00                  NOP
5092   1EDF 00                  NOP
5093   1EE0 00                  NOP
5094   1EE1 00                  NOP
5095   1EE2 00                  NOP
5096   1EE3 00                  NOP
5097   1EE4 00                  NOP
5098   1EE5 00                  NOP
5099   1EE6 00                  NOP
5100   1EE7 00                  NOP
5101   1EE8 00                  NOP
5102   1EE9 00                  NOP
5103   1EEA 00                  NOP
5104   1EEB 00                  NOP
5105   1EEC 00                  NOP
5106   1EED 00                  NOP
5107   1EEE 00                  NOP
5108   1EEF 00                  NOP
5109   1EF0 00                  NOP
5110   1EF1 00                  NOP
5111   1EF2 00                  NOP
5112   1EF3 00                  NOP
5113   1EF4 00                  NOP
5114   1EF5 00                  NOP
5115   1EF6 00                  NOP
5116   1EF7 00                  NOP
5117   1EF8 00                  NOP
5118   1EF9 00                  NOP
5119   1EFA 00                  NOP
5120   1EFB 00                  NOP
5121   1EFC 00                  NOP
5122   1EFD 00                  NOP
5123   1EFE 00                  NOP
5124   1EFF 00                  NOP
5125   1F00 00                  NOP
5126   1F01 00                  NOP
5127   1F02 00                  NOP
5128   1F03 00                  NOP
5129   1F04 00                  NOP
5130   1F05 00                  NOP
5131   1F06 00                  NOP
5132   1F07 00                  NOP
5133   1F08 00                  NOP
5134   1F09 00                  NOP
5135   1F0A 00                  NOP
5136   1F0B 00                  NOP
5137   1F0C 00                  NOP
5138   1F0D 00                  NOP
5139   1F0E 00                  NOP
5140   1F0F 00                  NOP
5141   1F10 00                  NOP
5142   1F11 00                  NOP
5143   1F12 00                  NOP
5144   1F13 00                  NOP
5145   1F14 00                  NOP
5146   1F15 00                  NOP
5147   1F16 00                  NOP
5148   1F17 00                  NOP
5149   1F18 00                  NOP
5150   1F19 00                  NOP
5151   1F1A 00                  NOP
5152   1F1B 00                  NOP
5153   1F1C 00                  NOP
5154   1F1D 00                  NOP
5155   1F1E 00                  NOP
5156   1F1F 00                  NOP
5157   1F20 00                  NOP
5158   1F21 00                  NOP
5159   1F22 00                  NOP
5160   1F23 00                  NOP
5161   1F24 00                  NOP
5162   1F25 00                  NOP
5163   1F26 00                  NOP
5164   1F27 00                  NOP
5165   1F28 00                  NOP
5166   1F29 00                  NOP
5167   1F2A 00                  NOP
5168   1F2B 00                  NOP
5169   1F2C 00                  NOP
5170   1F2D 00                  NOP
5171   1F2E 00                  NOP
5172   1F2F 00                  NOP
5173   1F30 00                  NOP
5174   1F31 00                  NOP
5175   1F32 00                  NOP
5176   1F33 00                  NOP
5177   1F34 00                  NOP
5178   1F35 00                  NOP
5179   1F36 00                  NOP
5180   1F37 00                  NOP
5181   1F38 00                  NOP
5182   1F39 00                  NOP
5183   1F3A 00                  NOP
5184   1F3B 00                  NOP
5185   1F3C 00                  NOP
5186   1F3D 00                  NOP
5187   1F3E 00                  NOP
5188   1F3F 00                  NOP
5189   1F40 00                  NOP
5190   1F41 00                  NOP
5191   1F42 00                  NOP
5192   1F43 00                  NOP
5193   1F44 00                  NOP
5194   1F45 00                  NOP
5195   1F46 00                  NOP
5196   1F47 00                  NOP
5197   1F48 00                  NOP
5198   1F49 00                  NOP
5199   1F4A 00                  NOP
5200   1F4B 00                  NOP
5201   1F4C 00                  NOP
5202   1F4D 00                  NOP
5203   1F4E 00                  NOP
5204   1F4F 00                  NOP
5205   1F50 00                  NOP
5206   1F51 00                  NOP
5207   1F52 00                  NOP
5208   1F53 00                  NOP
5209   1F54 00                  NOP
5210   1F55 00                  NOP
5211   1F56 00                  NOP
5212   1F57 00                  NOP
5213   1F58 00                  NOP
5214   1F59 00                  NOP
5215   1F5A 00                  NOP
5216   1F5B 00                  NOP
5217   1F5C 00                  NOP
5218   1F5D 00                  NOP
5219   1F5E 00                  NOP
5220   1F5F 00                  NOP
5221   1F60 00                  NOP
5222   1F61 00                  NOP
5223   1F62 00                  NOP
5224   1F63 00                  NOP
5225   1F64 00                  NOP
5226   1F65 00                  NOP
5227   1F66 00                  NOP
5228   1F67 00                  NOP
5229   1F68 00                  NOP
5230   1F69 00                  NOP
5231   1F6A 00                  NOP
5232   1F6B 00                  NOP
5233   1F6C 00                  NOP
5234   1F6D 00                  NOP
5235   1F6E 00                  NOP
5236   1F6F 00                  NOP
5237   1F70 00                  NOP
5238   1F71 00                  NOP
5239   1F72 00                  NOP
5240   1F73 00                  NOP
5241   1F74 00                  NOP
5242   1F75 00                  NOP
5243   1F76 00                  NOP
5244   1F77 00                  NOP
5245   1F78 00                  NOP
5246   1F79 00                  NOP
5247   1F7A 00                  NOP
5248   1F7B 00                  NOP
5249   1F7C 00                  NOP
5250   1F7D 00                  NOP
5251   1F7E 00                  NOP
5252   1F7F 00                  NOP
5253   1F80 00                  NOP
5254   1F81 00                  NOP
5255   1F82 00                  NOP
5256   1F83 00                  NOP
5257   1F84 00                  NOP
5258   1F85 00                  NOP
5259   1F86 00                  NOP
5260   1F87 00                  NOP
5261   1F88 00                  NOP
5262   1F89 00                  NOP
5263   1F8A 00                  NOP
5264   1F8B 00                  NOP
5265   1F8C 00                  NOP
5266   1F8D 00                  NOP
5267   1F8E 00                  NOP
5268   1F8F 00                  NOP
5269   1F90 00                  NOP
5270   1F91 00                  NOP
5271   1F92 00                  NOP
5272   1F93 00                  NOP
5273   1F94 00                  NOP
5274   1F95 00                  NOP
5275   1F96 00                  NOP
5276   1F97 00                  NOP
5277   1F98 00                  NOP
5278   1F99 00                  NOP
5279   1F9A 00                  NOP
5280   1F9B 00                  NOP
5281   1F9C 00                  NOP
5282   1F9D 00                  NOP
5283   1F9E 00                  NOP
5284   1F9F 00                  NOP
5285   1FA0 00                  NOP
5286   1FA1 00                  NOP
5287   1FA2 00                  NOP
5288   1FA3 00                  NOP
5289   1FA4 00                  NOP
5290   1FA5 00                  NOP
5291   1FA6 00                  NOP
5292   1FA7 00                  NOP
5293   1FA8 00                  NOP
5294   1FA9 00                  NOP
5295   1FAA 00                  NOP
5296   1FAB 00                  NOP
5297   1FAC 00                  NOP
5298   1FAD 00                  NOP
5299   1FAE 00                  NOP
5300   1FAF 00                  NOP
5301   1FB0 00                  NOP
5302   1FB1 00                  NOP
5303   1FB2 00                  NOP
5304   1FB3 00                  NOP
5305   1FB4 00                  NOP
5306   1FB5 00                  NOP
5307   1FB6 00                  NOP
5308   1FB7 00                  NOP
5309   1FB8 00                  NOP
5310   1FB9 00                  NOP
5311   1FBA 00                  NOP
5312   1FBB 00                  NOP
5313   1FBC 00                  NOP
5314   1FBD 00                  NOP
5315   1FBE 00                  NOP
5316   1FBF 00                  NOP
5317   1FC0 00                  NOP
5318   1FC1 00                  NOP
5319   1FC2 00                  NOP
5320   1FC3 00                  NOP
5321   1FC4 00                  NOP
5322   1FC5 00                  NOP
5323   1FC6 00                  NOP
5324   1FC7 00                  NOP
5325   1FC8 00                  NOP
5326   1FC9 00                  NOP
5327   1FCA 00                  NOP
5328   1FCB 00                  NOP
5329   1FCC 00                  NOP
5330   1FCD 00                  NOP
5331   1FCE 00                  NOP
5332   1FCF 00                  NOP
5333   1FD0 00                  NOP
5334   1FD1 00                  NOP
5335   1FD2 00                  NOP
5336   1FD3 00                  NOP
5337   1FD4 00                  NOP
5338   1FD5 00                  NOP
5339   1FD6 00                  NOP
5340   1FD7 00                  NOP
5341   1FD8 00                  NOP
5342   1FD9 00                  NOP
5343   1FDA 00                  NOP
5344   1FDB 00                  NOP
5345   1FDC 00                  NOP
5346   1FDD 00                  NOP
5347   1FDE 00                  NOP
5348   1FDF 00                  NOP
5349   1FE0 00                  NOP
5350   1FE1 00                  NOP
5351   1FE2 00                  NOP
5352   1FE3 00                  NOP
5353   1FE4 00                  NOP
5354   1FE5 00                  NOP
5355   1FE6 00                  NOP
5356   1FE7 00                  NOP
5357   1FE8 00                  NOP
5358   1FE9 00                  NOP
5359   1FEA 00                  NOP
5360   1FEB 00                  NOP
5361   1FEC 00                  NOP
5362   1FED 00                  NOP
5363   1FEE 00                  NOP
5364   1FEF 00                  NOP
5365   1FF0 00                  NOP
5366   1FF1 00                  NOP
5367   1FF2 00                  NOP
5368   1FF3 00                  NOP
5369   1FF4 00                  NOP
5370   1FF5 00                  NOP
5371   1FF6 00                  NOP
5372   1FF7 00                  NOP
5373   1FF8 00                  NOP
5374   1FF9 00                  NOP
5375   1FFA 00                  NOP
5376   1FFB 00                  NOP
5377   1FFC 00                  NOP
5378   1FFD 00                  NOP
5379   1FFE 00                  NOP
5380   1FFF 00                  NOP

---------------------------------------------
LIST OF LABELS
Sorted by address:      Sorted by name:
---------------------------------------------

L0032_ORG:  0000            L0001_INIT:  0069
L0016:  0002            L0002:  001B
L0522:  0004            L0003:  01AB
L0002:  001B            L0004:  0164
L0001_INIT:  0069            L0005:  1065
L0006:  0078            L0006:  0078
L0008:  0091            L0007:  0FD5
L0015:  00B0            L0008:  0091
L0017:  00DA            L0009:  019F
L0014:  00E4            L0010:  01AE
L0013:  00E9            L0011:  06FF
L0018:  013B            L0012:  107B
L0021:  0143            L0013:  00E9
L0024:  0145            L0014:  00E4
L0027:  0157            L0015:  00B0
L0020:  0163            L0016:  0002
L0004:  0164            L0017:  00DA
L0030:  0167            L0018:  013B
L0028:  0168            L0019:  016F
L0019:  016F            L0020:  0163
L0022:  0180            L0021:  0143
L0023:  0182            L0022:  0180
L0031:  0195            L0023:  0182
L0026:  0198            L0024:  0145
L0009:  019F            L0025:  01A0
L0025:  01A0            L0026:  0198
L0003:  01AB            L0027:  0157
L0010:  01AE            L0028:  0168
L0036:  01C1            L0029:  C103
L0035:  01D0            L0030:  0167
L0033:  01DE            L0031:  0195
L0034:  01E6            L0032_ORG:  0000
L0037:  01FA            L0033:  01DE
L0038:  0210            L0034:  01E6
L0040:  0253            L0035:  01D0
L0039:  0263            L0036:  01C1
L0050:  0284            L0037:  01FA
L0042:  0299            L0038:  0210
L0044:  02AB            L0039:  0263
L0048:  02BA            L0040:  0253
L0045:  02CA            L0041:  06DB
L0046:  02CD            L0042:  0299
L0047:  02ED            L0043:  0307
L0049:  02F9            L0044:  02AB
L0051:  0302            L0045:  02CA
L0043:  0307            L0046:  02CD
L0053:  030A            L0047:  02ED
L0052:  0314            L0048:  02BA
L0054:  0330            L0049:  02F9
L0055:  033D            L0050:  0284
L0057:  0347            L0051:  0302
L0056:  0354            L0052:  0314
L0059:  0372            L0053:  030A
L0058:  0382            L0054:  0330
L0060:  038A            L0055:  033D
L0061:  0394            L0056:  0354
L0095:  03BC            L0057:  0347
L0064:  03EA            L0058:  0382
L0065:  03F6            L0059:  0372
L0067:  03FA            L0060:  038A
L0066:  040A            L0061:  0394
L0071:  0414            L0062:  0490
L0070:  042A            L0063:  05EE
L0068:  0437            L0064:  03EA
L0069:  043A            L0065:  03F6
L0073:  044B            L0066:  040A
L0074:  044D            L0067:  03FA
L0075:  0463            L0068:  0437
L0076:  0472            L0069:  043A
L0077:  048A            L0070:  042A
L0062:  0490            L0071:  0414
L0078:  04A2            L0072:  04C0
L0079:  04BA            L0073:  044B
L0072:  04C0            L0074:  044D
L0080:  04C2            L0075:  0463
L0081:  04CD            L0076:  0472
L0083:  04F1            L0077:  048A
L0084:  04F4            L0078:  04A2
L0085:  051C            L0079:  04BA
L0082:  0556            L0080:  04C2
L0086:  0566            L0081:  04CD
L0087:  056D            L0082:  0556
L0108:  0573            L0083:  04F1
L0088:  057C            L0084:  04F4
L0089:  058F            L0085:  051C
L0090:  05A4            L0086:  0566
L0091:  05AE            L0087:  056D
L0092:  05CC            L0088:  057C
L0093:  05D9            L0089:  058F
L0094:  05EC            L0090:  05A4
L0063:  05EE            L0091:  05AE
L0096:  0603            L0092:  05CC
L0097:  0618            L0093:  05D9
L0098:  0639            L0094:  05EC
L0100:  0648            L0095:  03BC
L0101:  065E            L0096:  0603
L0103:  066D            L0097:  0618
L0099:  0685            L0098:  0639
L0102:  0694            L0099:  0685
L0104:  0698            L0100:  0648
L0105:  06A5            L0101:  065E
L0106:  06AE            L0102:  0694
L0107:  06BF            L0103:  066D
L0041:  06DB            L0104:  0698
L0109:  06F9            L0105:  06A5
L0011:  06FF            L0106:  06AE
L0119:  070D            L0107:  06BF
L0113:  0717            L0108:  0573
L0121:  0721            L0109:  06F9
L0117:  072F            L0110:  9607
L0115:  0742            L0111:  CD96
L0116:  0747            L0112:  074C
L0112:  074C            L0113:  0717
L0125:  0759            L0114:  0806
L0123:  076C            L0115:  0742
L0124:  0771            L0116:  0747
L0126:  077C            L0117:  072F
L0122:  077D            L0118:  0798
L0120:  078B            L0119:  070D
L0118:  0798            L0120:  078B
L0131:  07A6            L0121:  0721
L0128:  07D5            L0122:  077D
L0138:  07E5            L0123:  076C
L0136:  07E8            L0124:  0771
L0139:  07F2            L0125:  0759
L0114:  0806            L0126:  077C
L0140:  0810            L0127:  6805
L0141:  0849            L0128:  07D5
L0153:  0851            L0129:  096D
L0142:  0857            L0130:  0ED7
L0143:  085F            L0131:  07A6
L0144:  0876            L0132:  0B0F
L0145:  087E            L0133:  0EB3
L0146:  08A1            L0134:  0F58
L0147:  08C2            L0135:  0F64
L0148:  08DD            L0136:  07E8
L0149:  08E5            L0137:  E608
L0150:  08E8            L0138:  07E5
L0151:  08EE            L0139:  07F2
L0152:  090E            L0140:  0810
L0381:  0913            L0141:  0849
L0155:  091E            L0142:  0857
L0154:  0928            L0143:  085F
L0157:  0937            L0144:  0876
L0156:  093F            L0145:  087E
L0158:  0945            L0146:  08A1
L0171:  0950            L0147:  08C2
L0159:  0958            L0148:  08DD
L0170:  095A            L0149:  08E5
L0160:  0962            L0150:  08E8
L0181:  0964            L0151:  08EE
L0129:  096D            L0152:  090E
L0161:  0974            L0153:  0851
L0162:  0979            L0154:  0928
L0172:  098A            L0155:  091E
L0163:  0995            L0156:  093F
L0164:  099D            L0157:  0937
L0174:  09B7            L0158:  0945
L0176:  09DA            L0159:  0958
L0180:  0A13            L0160:  0962
L0178:  0A4E            L0161:  0974
L0179:  0A51            L0162:  0979
L0173:  0A5B            L0163:  0995
L0183:  0A6A            L0164:  099D
L0185:  0A73            L0165:  0D38
L0177:  0A7D            L0166:  0BE6
L0184:  0A85            L0167:  0D2A
L0190:  0A95            L0168:  0C49
L0187:  0AA0            L0169:  0D20
L0191:  0AAA            L0170:  095A
L0186:  0AB4            L0171:  0950
L0189:  0ABC            L0172:  098A
L0188:  0AC2            L0173:  0A5B
L0192:  0AC6            L0174:  09B7
L0175:  0ADD            L0175:  0ADD
L0193:  0AEA            L0176:  09DA
L0182:  0AF3            L0177:  0A7D
L0194:  0AFC            L0178:  0A4E
L0132:  0B0F            L0179:  0A51
L0197:  0B7B            L0180:  0A13
L0201:  0B99            L0181:  0964
L0200:  0BA1            L0182:  0AF3
L0199:  0BA4            L0183:  0A6A
L0195:  0BA7            L0184:  0A85
L0203:  0BB9            L0185:  0A73
L0198:  0BC5            L0186:  0AB4
L0202:  0BC8            L0187:  0AA0
L0196:  0BD1            L0188:  0AC2
L0204:  0BDA            L0189:  0ABC
L0166:  0BE6            L0190:  0A95
L0208:  0BEE            L0191:  0AAA
L0205:  0BFE            L0192:  0AC6
L0207:  0C0C            L0193:  0AEA
L0210:  0C0E            L0194:  0AFC
L0209:  0C1A            L0195:  0BA7
L0211:  0C21            L0196:  0BD1
L0206:  0C23            L0197:  0B7B
L0213:  0C26            L0198:  0BC5
L0215:  0C2F            L0199:  0BA4
L0212:  0C33            L0200:  0BA1
L0168:  0C49            L0201:  0B99
L0217:  0C52            L0202:  0BC8
L0216:  0C68            L0203:  0BB9
L0218:  0C80            L0204:  0BDA
L0214:  0C93            L0205:  0BFE
L0234:  0CC0            L0206:  0C23
L0230:  0CC3            L0207:  0C0C
L0225:  0CC4            L0208:  0BEE
L0224:  0CCD            L0209:  0C1A
L0227:  0CD6            L0210:  0C0E
L0232:  0CDD            L0211:  0C21
L0238:  0CE6            L0212:  0C33
L0220:  0CFD            L0213:  0C26
L0229:  0D01            L0214:  0C93
L0233:  0D04            L0215:  0C2F
L0219:  0D0C            L0216:  0C68
L0222:  0D10            L0217:  0C52
L0231:  0D12            L0218:  0C80
L0249:  0D16            L0219:  0D0C
L0169:  0D20            L0220:  0CFD
L0228:  0D22            L0221:  0D2C
L0167:  0D2A            L0222:  0D10
L0221:  0D2C            L0223:  F50C
L0165:  0D38            L0224:  0CCD
L0246:  0D6C            L0225:  0CC4
L0241:  0D74            L0226:  0E48
L0247:  0D81            L0227:  0CD6
L0242:  0D8D            L0228:  0D22
L0244:  0DA7            L0229:  0D01
L0240:  0DAA            L0230:  0CC3
L0243:  0DD0            L0231:  0D12
L0259:  0DDF            L0232:  0CDD
L0258:  0DE4            L0233:  0D04
L0257:  0DED            L0234:  0CC0
L0256:  0DFF            L0235:  0E26
L0252:  0E05            L0236:  0E3B
L0253:  0E06            L0237:  0E09
L0250:  0E07            L0238:  0CE6
L0237:  0E09            L0239:  0E0F
L0254:  0E0C            L0240:  0DAA
L0239:  0E0F            L0241:  0D74
L0245:  0E1A            L0242:  0D8D
L0235:  0E26            L0243:  0DD0
L0251:  0E31            L0244:  0DA7
L0236:  0E3B            L0245:  0E1A
L0255:  0E3C            L0246:  0D6C
L0248:  0E3D            L0247:  0D81
L0260:  0E3E            L0248:  0E3D
L0226:  0E48            L0249:  0D16
L0263:  0E53            L0250:  0E07
L0261:  0E5F            L0251:  0E31
L0262:  0E72            L0252:  0E05
L0264:  0E82            L0253:  0E06
L0265:  0E9F            L0254:  0E0C
L0266:  0EAE            L0255:  0E3C
L0133:  0EB3            L0256:  0DFF
L0267:  0EB8            L0257:  0DED
L0268:  0EC2            L0258:  0DE4
L0130:  0ED7            L0259:  0DDF
L0271:  0F03            L0260:  0E3E
L0269:  0F0E            L0261:  0E5F
L0270:  0F18            L0262:  0E72
L0273:  0F35            L0263:  0E53
L0272:  0F39            L0264:  0E82
L0134:  0F58            L0265:  0E9F
L0135:  0F64            L0266:  0EAE
L0277:  0F77            L0267:  0EB8
L0276:  0F88            L0268:  0EC2
L0275:  0F97            L0269:  0F0E
L0274:  0FA8            L0270:  0F18
L0007:  0FD5            L0271:  0F03
L0279:  0FE5            L0272:  0F39
L0280:  0FEA            L0273:  0F35
L0278:  0FF0            L0274:  0FA8
L0283:  1008            L0275:  0F97
L0284:  100D            L0276:  0F88
L0376:  1014            L0277:  0F77
L0285:  101D            L0278:  0FF0
L0289:  1038            L0279:  0FE5
L0290:  103A            L0280:  0FEA
L0287:  1040            L0281:  1071
L0286:  1048            L0282:  1063
L0291:  1050            L0283:  1008
L0292:  1059            L0284:  100D
L0293:  1061            L0285:  101D
L0282:  1063            L0286:  1048
L0005:  1065            L0287:  1040
L0294:  1067            L0288:  106F
L0288:  106F            L0289:  1038
L0281:  1071            L0290:  103A
L0295:  1073            L0291:  1050
L0012:  107B            L0292:  1059
L0308:  1084            L0293:  1061
L0329:  109C            L0294:  1067
L0296:  10A1            L0295:  1073
L0312:  10AB            L0296:  10A1
L0309:  10AF            L0297:  1136
L0311:  10BB            L0298:  118E
L0310:  10D3            L0299:  1306
L0314:  10DD            L0300:  154A
L0313:  10E3            L0301:  159C
L0316:  10EA            L0302:  15E0
L0297:  1136            L0303:  164B
L0325:  113F            L0304:  16AB
L0317:  1145            L0305:  1747
L0321:  1153            L0306:  1893
L0326:  1155            L0307:  1920
L0322:  1160            L0308:  1084
L0328:  1161            L0309:  10AF
L0319:  1165            L0310:  10D3
L0318:  116B            L0311:  10BB
L0320:  1172            L0312:  10AB
L0324:  1176            L0313:  10E3
L0323:  1177            L0314:  10DD
L0298:  118E            L0315:  1556
L0332:  1191            L0316:  10EA
L0336:  11B2            L0317:  1145
L0331:  11B7            L0318:  116B
L0337:  11B9            L0319:  1165
L0334:  11BA            L0320:  1172
L0335:  11BF            L0321:  1153
L0330:  11C2            L0322:  1160
L0338:  11C8            L0323:  1177
L0333:  11D6            L0324:  1176
L0345:  11EA            L0325:  113F
L0344:  11ED            L0326:  1155
L0339:  11FF            L0327:  1570
L0342:  1213            L0328:  1161
L0341:  121D            L0329:  109C
L0346:  122F            L0330:  11C2
L0348:  1250            L0331:  11B7
L0347:  1265            L0332:  1191
L0357:  1268            L0333:  11D6
L0340:  1274            L0334:  11BA
L0343:  1279            L0335:  11BF
L0349:  127C            L0336:  11B2
L0350:  1281            L0337:  11B9
L0356:  12F6            L0338:  11C8
L0351:  1301            L0339:  11FF
L0352:  1304            L0340:  1274
L0299:  1306            L0341:  121D
L0353:  130A            L0342:  1213
L0365:  130C            L0343:  1279
L0364:  130E            L0344:  11ED
L0363:  1318            L0345:  11EA
L0355:  131B            L0346:  122F
L0354:  1324            L0347:  1265
L0362:  132E            L0348:  1250
L0359:  1333            L0349:  127C
L0360:  1334            L0350:  1281
L0358:  1337            L0351:  1301
L0366:  1341            L0352:  1304
L0361:  1344            L0353:  130A
L0367:  1345            L0354:  1324
L0368:  1353            L0355:  131B
L0370:  1361            L0356:  12F6
L0369:  1364            L0357:  1268
L0371:  13B8            L0358:  1337
L0372:  13D0            L0359:  1333
L0378:  13F1            L0360:  1334
L0373:  13F2            L0361:  1344
L0379:  13FC            L0362:  132E
L0380:  13FE            L0363:  1318
L0374:  1407            L0364:  130E
L0382:  142C            L0365:  130C
L0383:  143A            L0366:  1341
L0384:  1448            L0367:  1345
L0385:  1461            L0368:  1353
L0386:  1469            L0369:  1364
L0387:  1471            L0370:  1361
L0388:  1479            L0371:  13B8
L0389:  1481            L0372:  13D0
L0390:  1489            L0373:  13F2
L0391:  1491            L0374:  1407
L0392:  1499            L0375:  4514
L0393:  1545            L0376:  1014
L0300:  154A            L0377:  E714
L0394:  1550            L0378:  13F1
L0315:  1556            L0379:  13FC
L0395:  155C            L0380:  13FE
L0404:  156B            L0381:  0913
L0327:  1570            L0382:  142C
L0396:  1573            L0383:  143A
L0301:  159C            L0384:  1448
L0399:  15A5            L0385:  1461
L0397:  15A6            L0386:  1469
L0398:  15AE            L0387:  1471
L0409:  15CA            L0388:  1479
L0302:  15E0            L0389:  1481
L0407:  15F3            L0390:  1489
L0406:  15FF            L0391:  1491
L0400:  160E            L0392:  1499
L0401:  161B            L0393:  1545
L0405:  1624            L0394:  1550
L0423:  162A            L0395:  155C
L0403:  1641            L0396:  1573
L0408:  1647            L0397:  15A6
L0303:  164B            L0398:  15AE
L0402:  164D            L0399:  15A5
L0418:  1651            L0400:  160E
L0410:  1655            L0401:  161B
L0411:  1659            L0402:  164D
L0413:  165D            L0403:  1641
L0416:  1660            L0404:  156B
L0414:  1661            L0405:  1624
L0417:  1675            L0406:  15FF
L0424:  169F            L0407:  15F3
L0412:  16AA            L0408:  1647
L0304:  16AB            L0409:  15CA
L0425:  16B1            L0410:  1655
L0415:  16B2            L0411:  1659
L0428:  16C0            L0412:  16AA
L0427:  16C5            L0413:  165D
L0421:  16C6            L0414:  1661
L0422:  16C8            L0415:  16B2
L0426:  16DC            L0416:  1660
L0419:  16DE            L0417:  1675
L0420:  16E1            L0418:  1651
L0429:  16E2            L0419:  16DE
L0439:  1718            L0420:  16E1
L0430:  1731            L0421:  16C6
L0431:  1743            L0422:  16C8
L0432:  1744            L0423:  162A
L0305:  1747            L0424:  169F
L0440:  174D            L0425:  16B1
L0434:  174F            L0426:  16DC
L0433:  1754            L0427:  16C5
L0437:  175B            L0428:  16C0
L0435:  1765            L0429:  16E2
L0436:  1772            L0430:  1731
L0443:  1784            L0431:  1743
L0444:  178A            L0432:  1744
L0438:  1790            L0433:  1754
L0441:  1794            L0434:  174F
L0442:  17A0            L0435:  1765
L0445:  17A2            L0436:  1772
L0448:  17A9            L0437:  175B
L0447:  17B8            L0438:  1790
L0452:  17C1            L0439:  1718
L0454:  17C8            L0440:  174D
L0449:  17D3            L0441:  1794
L0451:  17D8            L0442:  17A0
L0453:  17DF            L0443:  1784
L0450:  17E2            L0444:  178A
L0456:  17E5            L0445:  17A2
L0455:  17F2            L0446:  17F7
L0470:  17F4            L0447:  17B8
L0446:  17F7            L0448:  17A9
L0458:  17FA            L0449:  17D3
L0457:  1806            L0450:  17E2
L0460:  180F            L0451:  17D8
L0459:  1824            L0452:  17C1
L0461:  1862            L0453:  17DF
L0463:  1876            L0454:  17C8
L0462:  187A            L0455:  17F2
L0465:  1880            L0456:  17E5
L0469:  1891            L0457:  1806
L0306:  1893            L0458:  17FA
L0476:  1899            L0459:  1824
L0466:  189D            L0460:  180F
L0464:  189F            L0461:  1862
L0467:  18A7            L0462:  187A
L0468:  18A9            L0463:  1876
L0471:  18B0            L0464:  189F
L0474:  18B2            L0465:  1880
L0475:  18BB            L0466:  189D
L0472:  18BE            L0467:  18A7
L0478:  18C4            L0468:  18A9
L0480:  18D5            L0469:  1891
L0473:  18DC            L0470:  17F4
L0479:  18DD            L0471:  18B0
L0481:  18EA            L0472:  18BE
L0477:  18F9            L0473:  18DC
L0482:  18FC            L0474:  18B2
L0307:  1920            L0475:  18BB
L0493:  192A            L0476:  1899
L0483:  1948            L0477:  18F9
L0484:  194E            L0478:  18C4
L0487:  1950            L0479:  18DD
L0495:  195D            L0480:  18D5
L0494:  196A            L0481:  18EA
L0486:  198A            L0482:  18FC
L0492:  199B            L0483:  1948
L0497:  19AE            L0484:  194E
L0499:  19B7            L0485:  19CD
L0498:  19BE            L0486:  198A
L0496:  19C0            L0487:  1950
L0500:  19CB            L0488:  19E2
L0485:  19CD            L0489:  1A2C
L0491:  19D0            L0490:  19D6
L0490:  19D6            L0491:  19D0
L0488:  19E2            L0492:  199B
L0501:  19F2            L0493:  192A
L0502:  1A21            L0494:  196A
L0489:  1A2C            L0495:  195D
L0506:  1A38            L0496:  19C0
L0505:  1A39            L0497:  19AE
L0504:  1A3B            L0498:  19BE
L0503:  1A43            L0499:  19B7
L0509:  1A91            L0500:  19CB
L0507:  1A9B            L0501:  19F2
L0508:  1AB0            L0502:  1A21
L0511:  1AB4            L0503:  1A43
L0510:  1AD0            L0504:  1A3B
L0512:  1AD7            L0505:  1A39
L0513:  1AFA            L0506:  1A38
L0518:  1B13            L0507:  1A9B
L0519:  1B17            L0508:  1AB0
L0520:  1B1B            L0509:  1A91
L0521:  1B1F            L0510:  1AD0
L0515:  1B2F            L0511:  1AB4
L0514:  1B30            L0512:  1AD7
L0516:  1B41            L0513:  1AFA
L0517:  1B5A            L0514:  1B30
L0375:  4514            L0515:  1B2F
L0127:  6805            L0516:  1B41
L0110:  9607            L0517:  1B5A
L0029:  C103            L0518:  1B13
L0111:  CD96            L0519:  1B17
L0137:  E608            L0520:  1B1B
L0377:  E714            L0521:  1B1F
L0223:  F50C            L0522:  0004
